
UART_AppliNonSecure.elf:     file format elf32-littlearm

Sections:
Idx Name          Size      VMA       LMA       File off  Algn
  0 .isr_vector   0000034c  24100400  24100400  00000400  2**0
                  CONTENTS, ALLOC, LOAD, READONLY, DATA
  1 .text         0000a640  24100750  24100750  00000750  2**3
                  CONTENTS, ALLOC, LOAD, READONLY, CODE
  2 .rodata       00000038  2410ad90  2410ad90  0000ad90  2**2
                  CONTENTS, ALLOC, LOAD, READONLY, DATA
  3 .ARM.extab    00000000  2410adc8  2410adc8  0000b068  2**0
                  CONTENTS
  4 .ARM          00000008  2410adc8  2410adc8  0000adc8  2**2
                  CONTENTS, ALLOC, LOAD, READONLY, DATA
  5 .preinit_array 00000000  2410add0  2410add0  0000b068  2**0
                  CONTENTS, ALLOC, LOAD, DATA
  6 .init_array   00000004  2410add0  2410add0  0000add0  2**2
                  CONTENTS, ALLOC, LOAD, DATA
  7 .fini_array   00000004  2410add4  2410add4  0000add4  2**2
                  CONTENTS, ALLOC, LOAD, DATA
  8 .data         00000068  24180000  2410add8  0000b000  2**2
                  CONTENTS, ALLOC, LOAD, DATA
  9 .noncacheable 00000000  24180068  24180068  0000b068  2**0
                  CONTENTS
 10 .bss          00000204  24180068  2410ae40  0000b068  2**2
                  ALLOC
 11 ._user_heap_stack 00000a04  2418026c  2410ae40  0000b26c  2**0
                  ALLOC
 12 .ARM.attributes 0000003a  00000000  00000000  0000b068  2**0
                  CONTENTS, READONLY
 13 .debug_info   00014cc4  00000000  00000000  0000b0a2  2**0
                  CONTENTS, READONLY, DEBUGGING, OCTETS
 14 .debug_abbrev 00002078  00000000  00000000  0001fd66  2**0
                  CONTENTS, READONLY, DEBUGGING, OCTETS
 15 .debug_aranges 000016e8  00000000  00000000  00021de0  2**3
                  CONTENTS, READONLY, DEBUGGING, OCTETS
 16 .debug_rnglists 00001171  00000000  00000000  000234c8  2**0
                  CONTENTS, READONLY, DEBUGGING, OCTETS
 17 .debug_macro  00051676  00000000  00000000  00024639  2**0
                  CONTENTS, READONLY, DEBUGGING, OCTETS
 18 .debug_line   000122c2  00000000  00000000  00075caf  2**0
                  CONTENTS, READONLY, DEBUGGING, OCTETS
 19 .debug_str    001fee92  00000000  00000000  00087f71  2**0
                  CONTENTS, READONLY, DEBUGGING, OCTETS
 20 .comment      00000043  00000000  00000000  00286e03  2**0
                  CONTENTS, READONLY
 21 .debug_frame  00005e70  00000000  00000000  00286e48  2**2
                  CONTENTS, READONLY, DEBUGGING, OCTETS
 22 .debug_line_str 0000007d  00000000  00000000  0028ccb8  2**0
                  CONTENTS, READONLY, DEBUGGING, OCTETS

Disassembly of section .text:

24100750 <__do_global_dtors_aux>:
24100750:	b510      	push	{r4, lr}
24100752:	4c05      	ldr	r4, [pc, #20]	@ (24100768 <__do_global_dtors_aux+0x18>)
24100754:	7823      	ldrb	r3, [r4, #0]
24100756:	b933      	cbnz	r3, 24100766 <__do_global_dtors_aux+0x16>
24100758:	4b04      	ldr	r3, [pc, #16]	@ (2410076c <__do_global_dtors_aux+0x1c>)
2410075a:	b113      	cbz	r3, 24100762 <__do_global_dtors_aux+0x12>
2410075c:	4804      	ldr	r0, [pc, #16]	@ (24100770 <__do_global_dtors_aux+0x20>)
2410075e:	f3af 8000 	nop.w
24100762:	2301      	movs	r3, #1
24100764:	7023      	strb	r3, [r4, #0]
24100766:	bd10      	pop	{r4, pc}
24100768:	24180068 	.word	0x24180068
2410076c:	00000000 	.word	0x00000000
24100770:	2410ad70 	.word	0x2410ad70

24100774 <frame_dummy>:
24100774:	b508      	push	{r3, lr}
24100776:	4b03      	ldr	r3, [pc, #12]	@ (24100784 <frame_dummy+0x10>)
24100778:	b11b      	cbz	r3, 24100782 <frame_dummy+0xe>
2410077a:	4903      	ldr	r1, [pc, #12]	@ (24100788 <frame_dummy+0x14>)
2410077c:	4803      	ldr	r0, [pc, #12]	@ (2410078c <frame_dummy+0x18>)
2410077e:	f3af 8000 	nop.w
24100782:	bd08      	pop	{r3, pc}
24100784:	00000000 	.word	0x00000000
24100788:	2418006c 	.word	0x2418006c
2410078c:	2410ad70 	.word	0x2410ad70

24100790 <__aeabi_uldivmod>:
24100790:	b953      	cbnz	r3, 241007a8 <__aeabi_uldivmod+0x18>
24100792:	b94a      	cbnz	r2, 241007a8 <__aeabi_uldivmod+0x18>
24100794:	2900      	cmp	r1, #0
24100796:	bf08      	it	eq
24100798:	2800      	cmpeq	r0, #0
2410079a:	bf1c      	itt	ne
2410079c:	f04f 31ff 	movne.w	r1, #4294967295	@ 0xffffffff
241007a0:	f04f 30ff 	movne.w	r0, #4294967295	@ 0xffffffff
241007a4:	f000 b9b2 	b.w	24100b0c <__aeabi_idiv0>
241007a8:	f1ad 0c08 	sub.w	ip, sp, #8
241007ac:	e96d ce04 	strd	ip, lr, [sp, #-16]!
241007b0:	f000 f806 	bl	241007c0 <__udivmoddi4>
241007b4:	f8dd e004 	ldr.w	lr, [sp, #4]
241007b8:	e9dd 2302 	ldrd	r2, r3, [sp, #8]
241007bc:	b004      	add	sp, #16
241007be:	4770      	bx	lr

241007c0 <__udivmoddi4>:
241007c0:	e92d 4ff0 	stmdb	sp!, {r4, r5, r6, r7, r8, r9, sl, fp, lr}
241007c4:	468c      	mov	ip, r1
241007c6:	9e09      	ldr	r6, [sp, #36]	@ 0x24
241007c8:	4604      	mov	r4, r0
241007ca:	460f      	mov	r7, r1
241007cc:	2b00      	cmp	r3, #0
241007ce:	d148      	bne.n	24100862 <__udivmoddi4+0xa2>
241007d0:	428a      	cmp	r2, r1
241007d2:	4615      	mov	r5, r2
241007d4:	d95e      	bls.n	24100894 <__udivmoddi4+0xd4>
241007d6:	fab2 f382 	clz	r3, r2
241007da:	b13b      	cbz	r3, 241007ec <__udivmoddi4+0x2c>
241007dc:	f1c3 0220 	rsb	r2, r3, #32
241007e0:	409f      	lsls	r7, r3
241007e2:	409d      	lsls	r5, r3
241007e4:	409c      	lsls	r4, r3
241007e6:	fa20 f202 	lsr.w	r2, r0, r2
241007ea:	4317      	orrs	r7, r2
241007ec:	ea4f 4e15 	mov.w	lr, r5, lsr #16
241007f0:	fa1f fc85 	uxth.w	ip, r5
241007f4:	0c22      	lsrs	r2, r4, #16
241007f6:	fbb7 f1fe 	udiv	r1, r7, lr
241007fa:	fb0e 7711 	mls	r7, lr, r1, r7
241007fe:	fb01 f00c 	mul.w	r0, r1, ip
24100802:	ea42 4207 	orr.w	r2, r2, r7, lsl #16
24100806:	4290      	cmp	r0, r2
24100808:	d907      	bls.n	2410081a <__udivmoddi4+0x5a>
2410080a:	18aa      	adds	r2, r5, r2
2410080c:	f101 37ff 	add.w	r7, r1, #4294967295	@ 0xffffffff
24100810:	d202      	bcs.n	24100818 <__udivmoddi4+0x58>
24100812:	4290      	cmp	r0, r2
24100814:	f200 8158 	bhi.w	24100ac8 <__udivmoddi4+0x308>
24100818:	4639      	mov	r1, r7
2410081a:	1a12      	subs	r2, r2, r0
2410081c:	b2a4      	uxth	r4, r4
2410081e:	fbb2 f0fe 	udiv	r0, r2, lr
24100822:	fb0e 2210 	mls	r2, lr, r0, r2
24100826:	fb00 fc0c 	mul.w	ip, r0, ip
2410082a:	ea44 4402 	orr.w	r4, r4, r2, lsl #16
2410082e:	45a4      	cmp	ip, r4
24100830:	d90b      	bls.n	2410084a <__udivmoddi4+0x8a>
24100832:	192c      	adds	r4, r5, r4
24100834:	f100 32ff 	add.w	r2, r0, #4294967295	@ 0xffffffff
24100838:	bf2c      	ite	cs
2410083a:	2701      	movcs	r7, #1
2410083c:	2700      	movcc	r7, #0
2410083e:	45a4      	cmp	ip, r4
24100840:	d902      	bls.n	24100848 <__udivmoddi4+0x88>
24100842:	2f00      	cmp	r7, #0
24100844:	f000 8143 	beq.w	24100ace <__udivmoddi4+0x30e>
24100848:	4610      	mov	r0, r2
2410084a:	ea40 4001 	orr.w	r0, r0, r1, lsl #16
2410084e:	eba4 040c 	sub.w	r4, r4, ip
24100852:	2100      	movs	r1, #0
24100854:	b11e      	cbz	r6, 2410085e <__udivmoddi4+0x9e>
24100856:	40dc      	lsrs	r4, r3
24100858:	2300      	movs	r3, #0
2410085a:	e9c6 4300 	strd	r4, r3, [r6]
2410085e:	e8bd 8ff0 	ldmia.w	sp!, {r4, r5, r6, r7, r8, r9, sl, fp, pc}
24100862:	428b      	cmp	r3, r1
24100864:	d906      	bls.n	24100874 <__udivmoddi4+0xb4>
24100866:	b10e      	cbz	r6, 2410086c <__udivmoddi4+0xac>
24100868:	e9c6 0100 	strd	r0, r1, [r6]
2410086c:	2100      	movs	r1, #0
2410086e:	4608      	mov	r0, r1
24100870:	e8bd 8ff0 	ldmia.w	sp!, {r4, r5, r6, r7, r8, r9, sl, fp, pc}
24100874:	fab3 f183 	clz	r1, r3
24100878:	2900      	cmp	r1, #0
2410087a:	d151      	bne.n	24100920 <__udivmoddi4+0x160>
2410087c:	4563      	cmp	r3, ip
2410087e:	f0c0 8116 	bcc.w	24100aae <__udivmoddi4+0x2ee>
24100882:	4282      	cmp	r2, r0
24100884:	f240 8113 	bls.w	24100aae <__udivmoddi4+0x2ee>
24100888:	4608      	mov	r0, r1
2410088a:	2e00      	cmp	r6, #0
2410088c:	d0e7      	beq.n	2410085e <__udivmoddi4+0x9e>
2410088e:	e9c6 4700 	strd	r4, r7, [r6]
24100892:	e7e4      	b.n	2410085e <__udivmoddi4+0x9e>
24100894:	2a00      	cmp	r2, #0
24100896:	f000 80af 	beq.w	241009f8 <__udivmoddi4+0x238>
2410089a:	fab2 f382 	clz	r3, r2
2410089e:	2b00      	cmp	r3, #0
241008a0:	f040 80c2 	bne.w	24100a28 <__udivmoddi4+0x268>
241008a4:	1a8a      	subs	r2, r1, r2
241008a6:	ea4f 4e15 	mov.w	lr, r5, lsr #16
241008aa:	b2af      	uxth	r7, r5
241008ac:	2101      	movs	r1, #1
241008ae:	0c20      	lsrs	r0, r4, #16
241008b0:	fbb2 fcfe 	udiv	ip, r2, lr
241008b4:	fb0e 221c 	mls	r2, lr, ip, r2
241008b8:	ea40 4202 	orr.w	r2, r0, r2, lsl #16
241008bc:	fb07 f00c 	mul.w	r0, r7, ip
241008c0:	4290      	cmp	r0, r2
241008c2:	d90e      	bls.n	241008e2 <__udivmoddi4+0x122>
241008c4:	18aa      	adds	r2, r5, r2
241008c6:	f10c 38ff 	add.w	r8, ip, #4294967295	@ 0xffffffff
241008ca:	bf2c      	ite	cs
241008cc:	f04f 0901 	movcs.w	r9, #1
241008d0:	f04f 0900 	movcc.w	r9, #0
241008d4:	4290      	cmp	r0, r2
241008d6:	d903      	bls.n	241008e0 <__udivmoddi4+0x120>
241008d8:	f1b9 0f00 	cmp.w	r9, #0
241008dc:	f000 80f0 	beq.w	24100ac0 <__udivmoddi4+0x300>
241008e0:	46c4      	mov	ip, r8
241008e2:	1a12      	subs	r2, r2, r0
241008e4:	b2a4      	uxth	r4, r4
241008e6:	fbb2 f0fe 	udiv	r0, r2, lr
241008ea:	fb0e 2210 	mls	r2, lr, r0, r2
241008ee:	fb00 f707 	mul.w	r7, r0, r7
241008f2:	ea44 4402 	orr.w	r4, r4, r2, lsl #16
241008f6:	42a7      	cmp	r7, r4
241008f8:	d90e      	bls.n	24100918 <__udivmoddi4+0x158>
241008fa:	192c      	adds	r4, r5, r4
241008fc:	f100 32ff 	add.w	r2, r0, #4294967295	@ 0xffffffff
24100900:	bf2c      	ite	cs
24100902:	f04f 0e01 	movcs.w	lr, #1
24100906:	f04f 0e00 	movcc.w	lr, #0
2410090a:	42a7      	cmp	r7, r4
2410090c:	d903      	bls.n	24100916 <__udivmoddi4+0x156>
2410090e:	f1be 0f00 	cmp.w	lr, #0
24100912:	f000 80d2 	beq.w	24100aba <__udivmoddi4+0x2fa>
24100916:	4610      	mov	r0, r2
24100918:	1be4      	subs	r4, r4, r7
2410091a:	ea40 400c 	orr.w	r0, r0, ip, lsl #16
2410091e:	e799      	b.n	24100854 <__udivmoddi4+0x94>
24100920:	f1c1 0520 	rsb	r5, r1, #32
24100924:	408b      	lsls	r3, r1
24100926:	fa0c f401 	lsl.w	r4, ip, r1
2410092a:	fa00 f901 	lsl.w	r9, r0, r1
2410092e:	fa22 f705 	lsr.w	r7, r2, r5
24100932:	fa2c fc05 	lsr.w	ip, ip, r5
24100936:	408a      	lsls	r2, r1
24100938:	431f      	orrs	r7, r3
2410093a:	fa20 f305 	lsr.w	r3, r0, r5
2410093e:	0c38      	lsrs	r0, r7, #16
24100940:	4323      	orrs	r3, r4
24100942:	fa1f fe87 	uxth.w	lr, r7
24100946:	0c1c      	lsrs	r4, r3, #16
24100948:	fbbc f8f0 	udiv	r8, ip, r0
2410094c:	fb00 cc18 	mls	ip, r0, r8, ip
24100950:	ea44 440c 	orr.w	r4, r4, ip, lsl #16
24100954:	fb08 fc0e 	mul.w	ip, r8, lr
24100958:	45a4      	cmp	ip, r4
2410095a:	d90e      	bls.n	2410097a <__udivmoddi4+0x1ba>
2410095c:	193c      	adds	r4, r7, r4
2410095e:	f108 3aff 	add.w	sl, r8, #4294967295	@ 0xffffffff
24100962:	bf2c      	ite	cs
24100964:	f04f 0b01 	movcs.w	fp, #1
24100968:	f04f 0b00 	movcc.w	fp, #0
2410096c:	45a4      	cmp	ip, r4
2410096e:	d903      	bls.n	24100978 <__udivmoddi4+0x1b8>
24100970:	f1bb 0f00 	cmp.w	fp, #0
24100974:	f000 80b8 	beq.w	24100ae8 <__udivmoddi4+0x328>
24100978:	46d0      	mov	r8, sl
2410097a:	eba4 040c 	sub.w	r4, r4, ip
2410097e:	fa1f fc83 	uxth.w	ip, r3
24100982:	fbb4 f3f0 	udiv	r3, r4, r0
24100986:	fb00 4413 	mls	r4, r0, r3, r4
2410098a:	fb03 fe0e 	mul.w	lr, r3, lr
2410098e:	ea4c 4404 	orr.w	r4, ip, r4, lsl #16
24100992:	45a6      	cmp	lr, r4
24100994:	d90e      	bls.n	241009b4 <__udivmoddi4+0x1f4>
24100996:	193c      	adds	r4, r7, r4
24100998:	f103 30ff 	add.w	r0, r3, #4294967295	@ 0xffffffff
2410099c:	bf2c      	ite	cs
2410099e:	f04f 0c01 	movcs.w	ip, #1
241009a2:	f04f 0c00 	movcc.w	ip, #0
241009a6:	45a6      	cmp	lr, r4
241009a8:	d903      	bls.n	241009b2 <__udivmoddi4+0x1f2>
241009aa:	f1bc 0f00 	cmp.w	ip, #0
241009ae:	f000 809f 	beq.w	24100af0 <__udivmoddi4+0x330>
241009b2:	4603      	mov	r3, r0
241009b4:	ea43 4008 	orr.w	r0, r3, r8, lsl #16
241009b8:	eba4 040e 	sub.w	r4, r4, lr
241009bc:	fba0 ec02 	umull	lr, ip, r0, r2
241009c0:	4564      	cmp	r4, ip
241009c2:	4673      	mov	r3, lr
241009c4:	46e0      	mov	r8, ip
241009c6:	d302      	bcc.n	241009ce <__udivmoddi4+0x20e>
241009c8:	d107      	bne.n	241009da <__udivmoddi4+0x21a>
241009ca:	45f1      	cmp	r9, lr
241009cc:	d205      	bcs.n	241009da <__udivmoddi4+0x21a>
241009ce:	ebbe 0302 	subs.w	r3, lr, r2
241009d2:	eb6c 0c07 	sbc.w	ip, ip, r7
241009d6:	3801      	subs	r0, #1
241009d8:	46e0      	mov	r8, ip
241009da:	b15e      	cbz	r6, 241009f4 <__udivmoddi4+0x234>
241009dc:	ebb9 0203 	subs.w	r2, r9, r3
241009e0:	eb64 0408 	sbc.w	r4, r4, r8
241009e4:	fa04 f505 	lsl.w	r5, r4, r5
241009e8:	fa22 f301 	lsr.w	r3, r2, r1
241009ec:	40cc      	lsrs	r4, r1
241009ee:	431d      	orrs	r5, r3
241009f0:	e9c6 5400 	strd	r5, r4, [r6]
241009f4:	2100      	movs	r1, #0
241009f6:	e732      	b.n	2410085e <__udivmoddi4+0x9e>
241009f8:	0842      	lsrs	r2, r0, #1
241009fa:	462f      	mov	r7, r5
241009fc:	084b      	lsrs	r3, r1, #1
241009fe:	46ac      	mov	ip, r5
24100a00:	ea42 72c1 	orr.w	r2, r2, r1, lsl #31
24100a04:	46ae      	mov	lr, r5
24100a06:	07c4      	lsls	r4, r0, #31
24100a08:	0c11      	lsrs	r1, r2, #16
24100a0a:	b292      	uxth	r2, r2
24100a0c:	ea41 4103 	orr.w	r1, r1, r3, lsl #16
24100a10:	ea42 4201 	orr.w	r2, r2, r1, lsl #16
24100a14:	fbb1 f1f5 	udiv	r1, r1, r5
24100a18:	fbb3 f0f5 	udiv	r0, r3, r5
24100a1c:	231f      	movs	r3, #31
24100a1e:	eba2 020c 	sub.w	r2, r2, ip
24100a22:	ea41 4100 	orr.w	r1, r1, r0, lsl #16
24100a26:	e742      	b.n	241008ae <__udivmoddi4+0xee>
24100a28:	409d      	lsls	r5, r3
24100a2a:	f1c3 0220 	rsb	r2, r3, #32
24100a2e:	4099      	lsls	r1, r3
24100a30:	409c      	lsls	r4, r3
24100a32:	fa2c fc02 	lsr.w	ip, ip, r2
24100a36:	ea4f 4e15 	mov.w	lr, r5, lsr #16
24100a3a:	fa20 f202 	lsr.w	r2, r0, r2
24100a3e:	b2af      	uxth	r7, r5
24100a40:	fbbc f8fe 	udiv	r8, ip, lr
24100a44:	430a      	orrs	r2, r1
24100a46:	fb0e cc18 	mls	ip, lr, r8, ip
24100a4a:	0c11      	lsrs	r1, r2, #16
24100a4c:	ea41 410c 	orr.w	r1, r1, ip, lsl #16
24100a50:	fb08 fc07 	mul.w	ip, r8, r7
24100a54:	458c      	cmp	ip, r1
24100a56:	d950      	bls.n	24100afa <__udivmoddi4+0x33a>
24100a58:	1869      	adds	r1, r5, r1
24100a5a:	f108 30ff 	add.w	r0, r8, #4294967295	@ 0xffffffff
24100a5e:	bf2c      	ite	cs
24100a60:	f04f 0901 	movcs.w	r9, #1
24100a64:	f04f 0900 	movcc.w	r9, #0
24100a68:	458c      	cmp	ip, r1
24100a6a:	d902      	bls.n	24100a72 <__udivmoddi4+0x2b2>
24100a6c:	f1b9 0f00 	cmp.w	r9, #0
24100a70:	d030      	beq.n	24100ad4 <__udivmoddi4+0x314>
24100a72:	eba1 010c 	sub.w	r1, r1, ip
24100a76:	fbb1 f8fe 	udiv	r8, r1, lr
24100a7a:	fb08 fc07 	mul.w	ip, r8, r7
24100a7e:	fb0e 1118 	mls	r1, lr, r8, r1
24100a82:	b292      	uxth	r2, r2
24100a84:	ea42 4201 	orr.w	r2, r2, r1, lsl #16
24100a88:	4562      	cmp	r2, ip
24100a8a:	d234      	bcs.n	24100af6 <__udivmoddi4+0x336>
24100a8c:	18aa      	adds	r2, r5, r2
24100a8e:	f108 31ff 	add.w	r1, r8, #4294967295	@ 0xffffffff
24100a92:	bf2c      	ite	cs
24100a94:	f04f 0901 	movcs.w	r9, #1
24100a98:	f04f 0900 	movcc.w	r9, #0
24100a9c:	4562      	cmp	r2, ip
24100a9e:	d2be      	bcs.n	24100a1e <__udivmoddi4+0x25e>
24100aa0:	f1b9 0f00 	cmp.w	r9, #0
24100aa4:	d1bb      	bne.n	24100a1e <__udivmoddi4+0x25e>
24100aa6:	f1a8 0102 	sub.w	r1, r8, #2
24100aaa:	442a      	add	r2, r5
24100aac:	e7b7      	b.n	24100a1e <__udivmoddi4+0x25e>
24100aae:	1a84      	subs	r4, r0, r2
24100ab0:	eb6c 0203 	sbc.w	r2, ip, r3
24100ab4:	2001      	movs	r0, #1
24100ab6:	4617      	mov	r7, r2
24100ab8:	e6e7      	b.n	2410088a <__udivmoddi4+0xca>
24100aba:	442c      	add	r4, r5
24100abc:	3802      	subs	r0, #2
24100abe:	e72b      	b.n	24100918 <__udivmoddi4+0x158>
24100ac0:	f1ac 0c02 	sub.w	ip, ip, #2
24100ac4:	442a      	add	r2, r5
24100ac6:	e70c      	b.n	241008e2 <__udivmoddi4+0x122>
24100ac8:	3902      	subs	r1, #2
24100aca:	442a      	add	r2, r5
24100acc:	e6a5      	b.n	2410081a <__udivmoddi4+0x5a>
24100ace:	442c      	add	r4, r5
24100ad0:	3802      	subs	r0, #2
24100ad2:	e6ba      	b.n	2410084a <__udivmoddi4+0x8a>
24100ad4:	eba5 0c0c 	sub.w	ip, r5, ip
24100ad8:	f1a8 0002 	sub.w	r0, r8, #2
24100adc:	4461      	add	r1, ip
24100ade:	fbb1 f8fe 	udiv	r8, r1, lr
24100ae2:	fb08 fc07 	mul.w	ip, r8, r7
24100ae6:	e7ca      	b.n	24100a7e <__udivmoddi4+0x2be>
24100ae8:	f1a8 0802 	sub.w	r8, r8, #2
24100aec:	443c      	add	r4, r7
24100aee:	e744      	b.n	2410097a <__udivmoddi4+0x1ba>
24100af0:	3b02      	subs	r3, #2
24100af2:	443c      	add	r4, r7
24100af4:	e75e      	b.n	241009b4 <__udivmoddi4+0x1f4>
24100af6:	4641      	mov	r1, r8
24100af8:	e791      	b.n	24100a1e <__udivmoddi4+0x25e>
24100afa:	eba1 010c 	sub.w	r1, r1, ip
24100afe:	4640      	mov	r0, r8
24100b00:	fbb1 f8fe 	udiv	r8, r1, lr
24100b04:	fb08 fc07 	mul.w	ip, r8, r7
24100b08:	e7b9      	b.n	24100a7e <__udivmoddi4+0x2be>
24100b0a:	bf00      	nop

24100b0c <__aeabi_idiv0>:
24100b0c:	4770      	bx	lr
24100b0e:	bf00      	nop

24100b10 <LL_AHB4_GRP1_EnableClock>:
  *         @arg @ref LL_AHB4_GRP1_PERIPH_PWR
  *         @arg @ref LL_AHB4_GRP1_PERIPH_CRC
  * @retval None
  */
__STATIC_INLINE void LL_AHB4_GRP1_EnableClock(uint32_t Periphs)
{
24100b10:	b480      	push	{r7}
24100b12:	b085      	sub	sp, #20
24100b14:	af00      	add	r7, sp, #0
24100b16:	6078      	str	r0, [r7, #4]
  __IO uint32_t tmpreg;
  WRITE_REG(RCC->AHB4ENSR, Periphs);
24100b18:	4a07      	ldr	r2, [pc, #28]	@ (24100b38 <LL_AHB4_GRP1_EnableClock+0x28>)
24100b1a:	687b      	ldr	r3, [r7, #4]
24100b1c:	f8c2 3a5c 	str.w	r3, [r2, #2652]	@ 0xa5c
  /* Delay after an RCC peripheral clock enabling */
  tmpreg = READ_REG(RCC->AHB4ENR);
24100b20:	4b05      	ldr	r3, [pc, #20]	@ (24100b38 <LL_AHB4_GRP1_EnableClock+0x28>)
24100b22:	f8d3 325c 	ldr.w	r3, [r3, #604]	@ 0x25c
24100b26:	60fb      	str	r3, [r7, #12]
  (void)tmpreg;
24100b28:	68fb      	ldr	r3, [r7, #12]
}
24100b2a:	bf00      	nop
24100b2c:	3714      	adds	r7, #20
24100b2e:	46bd      	mov	sp, r7
24100b30:	f85d 7b04 	ldr.w	r7, [sp], #4
24100b34:	4770      	bx	lr
24100b36:	bf00      	nop
24100b38:	46028000 	.word	0x46028000

24100b3c <main>:
/**
  * @brief  The application entry point.
  * @retval int
  */
int main(void)
{
24100b3c:	b580      	push	{r7, lr}
24100b3e:	af00      	add	r7, sp, #0
  /* USER CODE BEGIN 1 */

  /* USER CODE END 1 */

  /* MCU Configuration--------------------------------------------------------*/
  HAL_Init();
24100b40:	f000 fa57 	bl	24100ff2 <HAL_Init>
  /* USER CODE BEGIN SysInit */

  /* USER CODE END SysInit */

  /* Initialize all configured peripherals */
  MX_GPIO_Init();
24100b44:	f000 f85c 	bl	24100c00 <MX_GPIO_Init>
  MX_USART2_UART_Init();
24100b48:	f000 f80e 	bl	24100b68 <MX_USART2_UART_Init>
  /* USER CODE BEGIN 2 */
  NS_LED_InitAndOn();
24100b4c:	f000 f878 	bl	24100c40 <NS_LED_InitAndOn>
  while (1)
  {
    /* USER CODE END WHILE */

    /* USER CODE BEGIN 3 */
    printf("Hello World\r\n");
24100b50:	4804      	ldr	r0, [pc, #16]	@ (24100b64 <main+0x28>)
24100b52:	f009 fd83 	bl	2410a65c <puts>
    HAL_Delay(500);
24100b56:	f44f 70fa 	mov.w	r0, #500	@ 0x1f4
24100b5a:	f000 fab5 	bl	241010c8 <HAL_Delay>
    printf("Hello World\r\n");
24100b5e:	bf00      	nop
24100b60:	e7f6      	b.n	24100b50 <main+0x14>
24100b62:	bf00      	nop
24100b64:	2410ad90 	.word	0x2410ad90

24100b68 <MX_USART2_UART_Init>:
  * @brief USART2 Initialization Function
  * @param None
  * @retval None
  */
static void MX_USART2_UART_Init(void)
{
24100b68:	b580      	push	{r7, lr}
24100b6a:	af00      	add	r7, sp, #0
  /* USER CODE END USART2_Init 0 */

  /* USER CODE BEGIN USART2_Init 1 */

  /* USER CODE END USART2_Init 1 */
  huart2.Instance = USART1;
24100b6c:	4b22      	ldr	r3, [pc, #136]	@ (24100bf8 <MX_USART2_UART_Init+0x90>)
24100b6e:	4a23      	ldr	r2, [pc, #140]	@ (24100bfc <MX_USART2_UART_Init+0x94>)
24100b70:	601a      	str	r2, [r3, #0]
  huart2.Init.BaudRate = 115200;
24100b72:	4b21      	ldr	r3, [pc, #132]	@ (24100bf8 <MX_USART2_UART_Init+0x90>)
24100b74:	f44f 32e1 	mov.w	r2, #115200	@ 0x1c200
24100b78:	605a      	str	r2, [r3, #4]
  huart2.Init.WordLength = UART_WORDLENGTH_8B;
24100b7a:	4b1f      	ldr	r3, [pc, #124]	@ (24100bf8 <MX_USART2_UART_Init+0x90>)
24100b7c:	2200      	movs	r2, #0
24100b7e:	609a      	str	r2, [r3, #8]
  huart2.Init.StopBits = UART_STOPBITS_1;
24100b80:	4b1d      	ldr	r3, [pc, #116]	@ (24100bf8 <MX_USART2_UART_Init+0x90>)
24100b82:	2200      	movs	r2, #0
24100b84:	60da      	str	r2, [r3, #12]
  huart2.Init.Parity = UART_PARITY_NONE;
24100b86:	4b1c      	ldr	r3, [pc, #112]	@ (24100bf8 <MX_USART2_UART_Init+0x90>)
24100b88:	2200      	movs	r2, #0
24100b8a:	611a      	str	r2, [r3, #16]
  huart2.Init.Mode = UART_MODE_TX_RX;
24100b8c:	4b1a      	ldr	r3, [pc, #104]	@ (24100bf8 <MX_USART2_UART_Init+0x90>)
24100b8e:	220c      	movs	r2, #12
24100b90:	615a      	str	r2, [r3, #20]
  huart2.Init.HwFlowCtl = UART_HWCONTROL_NONE;
24100b92:	4b19      	ldr	r3, [pc, #100]	@ (24100bf8 <MX_USART2_UART_Init+0x90>)
24100b94:	2200      	movs	r2, #0
24100b96:	619a      	str	r2, [r3, #24]
  huart2.Init.OverSampling = UART_OVERSAMPLING_16;
24100b98:	4b17      	ldr	r3, [pc, #92]	@ (24100bf8 <MX_USART2_UART_Init+0x90>)
24100b9a:	2200      	movs	r2, #0
24100b9c:	61da      	str	r2, [r3, #28]
  huart2.Init.OneBitSampling = UART_ONE_BIT_SAMPLE_DISABLE;
24100b9e:	4b16      	ldr	r3, [pc, #88]	@ (24100bf8 <MX_USART2_UART_Init+0x90>)
24100ba0:	2200      	movs	r2, #0
24100ba2:	621a      	str	r2, [r3, #32]
  huart2.Init.ClockPrescaler = UART_PRESCALER_DIV1;
24100ba4:	4b14      	ldr	r3, [pc, #80]	@ (24100bf8 <MX_USART2_UART_Init+0x90>)
24100ba6:	2200      	movs	r2, #0
24100ba8:	625a      	str	r2, [r3, #36]	@ 0x24
  huart2.AdvancedInit.AdvFeatureInit = UART_ADVFEATURE_NO_INIT;
24100baa:	4b13      	ldr	r3, [pc, #76]	@ (24100bf8 <MX_USART2_UART_Init+0x90>)
24100bac:	2200      	movs	r2, #0
24100bae:	629a      	str	r2, [r3, #40]	@ 0x28
  if (HAL_UART_Init(&huart2) != HAL_OK)
24100bb0:	4811      	ldr	r0, [pc, #68]	@ (24100bf8 <MX_USART2_UART_Init+0x90>)
24100bb2:	f008 fe51 	bl	24109858 <HAL_UART_Init>
24100bb6:	4603      	mov	r3, r0
24100bb8:	2b00      	cmp	r3, #0
24100bba:	d001      	beq.n	24100bc0 <MX_USART2_UART_Init+0x58>
  {
    Error_Handler();
24100bbc:	f000 f868 	bl	24100c90 <Error_Handler>
  }
  if (HAL_UARTEx_SetTxFifoThreshold(&huart2, UART_TXFIFO_THRESHOLD_1_8) != HAL_OK)
24100bc0:	2100      	movs	r1, #0
24100bc2:	480d      	ldr	r0, [pc, #52]	@ (24100bf8 <MX_USART2_UART_Init+0x90>)
24100bc4:	f009 fb66 	bl	2410a294 <HAL_UARTEx_SetTxFifoThreshold>
24100bc8:	4603      	mov	r3, r0
24100bca:	2b00      	cmp	r3, #0
24100bcc:	d001      	beq.n	24100bd2 <MX_USART2_UART_Init+0x6a>
  {
    Error_Handler();
24100bce:	f000 f85f 	bl	24100c90 <Error_Handler>
  }
  if (HAL_UARTEx_SetRxFifoThreshold(&huart2, UART_RXFIFO_THRESHOLD_1_8) != HAL_OK)
24100bd2:	2100      	movs	r1, #0
24100bd4:	4808      	ldr	r0, [pc, #32]	@ (24100bf8 <MX_USART2_UART_Init+0x90>)
24100bd6:	f009 fb9b 	bl	2410a310 <HAL_UARTEx_SetRxFifoThreshold>
24100bda:	4603      	mov	r3, r0
24100bdc:	2b00      	cmp	r3, #0
24100bde:	d001      	beq.n	24100be4 <MX_USART2_UART_Init+0x7c>
  {
    Error_Handler();
24100be0:	f000 f856 	bl	24100c90 <Error_Handler>
  }
  if (HAL_UARTEx_DisableFifoMode(&huart2) != HAL_OK)
24100be4:	4804      	ldr	r0, [pc, #16]	@ (24100bf8 <MX_USART2_UART_Init+0x90>)
24100be6:	f009 fb1c 	bl	2410a222 <HAL_UARTEx_DisableFifoMode>
24100bea:	4603      	mov	r3, r0
24100bec:	2b00      	cmp	r3, #0
24100bee:	d001      	beq.n	24100bf4 <MX_USART2_UART_Init+0x8c>
  {
    Error_Handler();
24100bf0:	f000 f84e 	bl	24100c90 <Error_Handler>
  }
  /* USER CODE BEGIN USART2_Init 2 */

  /* USER CODE END USART2_Init 2 */

}
24100bf4:	bf00      	nop
24100bf6:	bd80      	pop	{r7, pc}
24100bf8:	24180084 	.word	0x24180084
24100bfc:	42001000 	.word	0x42001000

24100c00 <MX_GPIO_Init>:
  * @brief GPIO Initialization Function
  * @param None
  * @retval None
  */
static void MX_GPIO_Init(void)
{
24100c00:	b580      	push	{r7, lr}
24100c02:	af00      	add	r7, sp, #0
  /* USER CODE BEGIN MX_GPIO_Init_1 */

  /* USER CODE END MX_GPIO_Init_1 */

  /* GPIO Ports Clock Enable */
  __HAL_RCC_GPIOC_CLK_ENABLE();
24100c04:	2004      	movs	r0, #4
24100c06:	f7ff ff83 	bl	24100b10 <LL_AHB4_GRP1_EnableClock>
  __HAL_RCC_GPIOD_CLK_ENABLE();
24100c0a:	2008      	movs	r0, #8
24100c0c:	f7ff ff80 	bl	24100b10 <LL_AHB4_GRP1_EnableClock>

  /* USER CODE BEGIN MX_GPIO_Init_2 */

  /* USER CODE END MX_GPIO_Init_2 */
}
24100c10:	bf00      	nop
24100c12:	bd80      	pop	{r7, pc}

24100c14 <__io_putchar>:

/* USER CODE BEGIN 4 */

int __io_putchar(int ch)
{
24100c14:	b580      	push	{r7, lr}
24100c16:	b084      	sub	sp, #16
24100c18:	af00      	add	r7, sp, #0
24100c1a:	6078      	str	r0, [r7, #4]
  uint8_t c = (uint8_t)ch;
24100c1c:	687b      	ldr	r3, [r7, #4]
24100c1e:	b2db      	uxtb	r3, r3
24100c20:	73fb      	strb	r3, [r7, #15]
  (void)HAL_UART_Transmit(&huart2, &c, 1U, HAL_MAX_DELAY);
24100c22:	f107 010f 	add.w	r1, r7, #15
24100c26:	f04f 33ff 	mov.w	r3, #4294967295	@ 0xffffffff
24100c2a:	2201      	movs	r2, #1
24100c2c:	4803      	ldr	r0, [pc, #12]	@ (24100c3c <__io_putchar+0x28>)
24100c2e:	f008 fe63 	bl	241098f8 <HAL_UART_Transmit>
  return ch;
24100c32:	687b      	ldr	r3, [r7, #4]
}
24100c34:	4618      	mov	r0, r3
24100c36:	3710      	adds	r7, #16
24100c38:	46bd      	mov	sp, r7
24100c3a:	bd80      	pop	{r7, pc}
24100c3c:	24180084 	.word	0x24180084

24100c40 <NS_LED_InitAndOn>:

static void NS_LED_InitAndOn(void)
{
24100c40:	b580      	push	{r7, lr}
24100c42:	b086      	sub	sp, #24
24100c44:	af00      	add	r7, sp, #0
  GPIO_InitTypeDef GPIO_InitStruct = {0};
24100c46:	1d3b      	adds	r3, r7, #4
24100c48:	2200      	movs	r2, #0
24100c4a:	601a      	str	r2, [r3, #0]
24100c4c:	605a      	str	r2, [r3, #4]
24100c4e:	609a      	str	r2, [r3, #8]
24100c50:	60da      	str	r2, [r3, #12]
24100c52:	611a      	str	r2, [r3, #16]

  __HAL_RCC_GPIOG_CLK_ENABLE();
24100c54:	2040      	movs	r0, #64	@ 0x40
24100c56:	f7ff ff5b 	bl	24100b10 <LL_AHB4_GRP1_EnableClock>

  GPIO_InitStruct.Pin = GPIO_PIN_0 | GPIO_PIN_8 | GPIO_PIN_10;
24100c5a:	f240 5301 	movw	r3, #1281	@ 0x501
24100c5e:	607b      	str	r3, [r7, #4]
  GPIO_InitStruct.Mode = GPIO_MODE_OUTPUT_PP;
24100c60:	2301      	movs	r3, #1
24100c62:	60bb      	str	r3, [r7, #8]
  GPIO_InitStruct.Pull = GPIO_NOPULL;
24100c64:	2300      	movs	r3, #0
24100c66:	60fb      	str	r3, [r7, #12]
  GPIO_InitStruct.Speed = GPIO_SPEED_FREQ_VERY_HIGH;
24100c68:	2303      	movs	r3, #3
24100c6a:	613b      	str	r3, [r7, #16]
  HAL_GPIO_Init(GPIOG, &GPIO_InitStruct);
24100c6c:	1d3b      	adds	r3, r7, #4
24100c6e:	4619      	mov	r1, r3
24100c70:	4806      	ldr	r0, [pc, #24]	@ (24100c8c <NS_LED_InitAndOn+0x4c>)
24100c72:	f000 fb33 	bl	241012dc <HAL_GPIO_Init>

  /* On NUCLEO-N657X0-Q LEDs are active low. */
  HAL_GPIO_WritePin(GPIOG, GPIO_PIN_0 | GPIO_PIN_8 | GPIO_PIN_10, GPIO_PIN_RESET);
24100c76:	2200      	movs	r2, #0
24100c78:	f240 5101 	movw	r1, #1281	@ 0x501
24100c7c:	4803      	ldr	r0, [pc, #12]	@ (24100c8c <NS_LED_InitAndOn+0x4c>)
24100c7e:	f000 fcdf 	bl	24101640 <HAL_GPIO_WritePin>
}
24100c82:	bf00      	nop
24100c84:	3718      	adds	r7, #24
24100c86:	46bd      	mov	sp, r7
24100c88:	bd80      	pop	{r7, pc}
24100c8a:	bf00      	nop
24100c8c:	46021800 	.word	0x46021800

24100c90 <Error_Handler>:
/**
  * @brief  This function is executed in case of error occurrence.
  * @retval None
  */
void Error_Handler(void)
{
24100c90:	b480      	push	{r7}
24100c92:	af00      	add	r7, sp, #0
  \details Disables IRQ interrupts by setting special-purpose register PRIMASK.
           Can only be executed in Privileged modes.
 */
__STATIC_FORCEINLINE void __disable_irq(void)
{
  __ASM volatile ("cpsid i" : : : "memory");
24100c94:	b672      	cpsid	i
}
24100c96:	bf00      	nop
  /* USER CODE BEGIN Error_Handler_Debug */
  /* User can add his own implementation to report the HAL error return state */
  __disable_irq();
  while (1)
24100c98:	bf00      	nop
24100c9a:	e7fd      	b.n	24100c98 <Error_Handler+0x8>

24100c9c <LL_AHB4_GRP1_EnableClock>:
{
24100c9c:	b480      	push	{r7}
24100c9e:	b085      	sub	sp, #20
24100ca0:	af00      	add	r7, sp, #0
24100ca2:	6078      	str	r0, [r7, #4]
  WRITE_REG(RCC->AHB4ENSR, Periphs);
24100ca4:	4a07      	ldr	r2, [pc, #28]	@ (24100cc4 <LL_AHB4_GRP1_EnableClock+0x28>)
24100ca6:	687b      	ldr	r3, [r7, #4]
24100ca8:	f8c2 3a5c 	str.w	r3, [r2, #2652]	@ 0xa5c
  tmpreg = READ_REG(RCC->AHB4ENR);
24100cac:	4b05      	ldr	r3, [pc, #20]	@ (24100cc4 <LL_AHB4_GRP1_EnableClock+0x28>)
24100cae:	f8d3 325c 	ldr.w	r3, [r3, #604]	@ 0x25c
24100cb2:	60fb      	str	r3, [r7, #12]
  (void)tmpreg;
24100cb4:	68fb      	ldr	r3, [r7, #12]
}
24100cb6:	bf00      	nop
24100cb8:	3714      	adds	r7, #20
24100cba:	46bd      	mov	sp, r7
24100cbc:	f85d 7b04 	ldr.w	r7, [sp], #4
24100cc0:	4770      	bx	lr
24100cc2:	bf00      	nop
24100cc4:	46028000 	.word	0x46028000

24100cc8 <LL_APB2_GRP1_EnableClock>:
  *         @arg @ref LL_APB2_GRP1_PERIPH_UART9
  *         @arg @ref LL_APB2_GRP1_PERIPH_USART10
  * @retval None
  */
__STATIC_INLINE void LL_APB2_GRP1_EnableClock(uint32_t Periphs)
{
24100cc8:	b480      	push	{r7}
24100cca:	b085      	sub	sp, #20
24100ccc:	af00      	add	r7, sp, #0
24100cce:	6078      	str	r0, [r7, #4]
  __IO uint32_t tmpreg;
  WRITE_REG(RCC->APB2ENSR, Periphs);
24100cd0:	4a07      	ldr	r2, [pc, #28]	@ (24100cf0 <LL_APB2_GRP1_EnableClock+0x28>)
24100cd2:	687b      	ldr	r3, [r7, #4]
24100cd4:	f8c2 3a6c 	str.w	r3, [r2, #2668]	@ 0xa6c
  /* Delay after an RCC peripheral clock enabling */
  tmpreg = READ_REG(RCC->APB2ENR);
24100cd8:	4b05      	ldr	r3, [pc, #20]	@ (24100cf0 <LL_APB2_GRP1_EnableClock+0x28>)
24100cda:	f8d3 326c 	ldr.w	r3, [r3, #620]	@ 0x26c
24100cde:	60fb      	str	r3, [r7, #12]
  (void)tmpreg;
24100ce0:	68fb      	ldr	r3, [r7, #12]
}
24100ce2:	bf00      	nop
24100ce4:	3714      	adds	r7, #20
24100ce6:	46bd      	mov	sp, r7
24100ce8:	f85d 7b04 	ldr.w	r7, [sp], #4
24100cec:	4770      	bx	lr
24100cee:	bf00      	nop
24100cf0:	46028000 	.word	0x46028000

24100cf4 <HAL_MspInit>:
/* USER CODE END 0 */
/**
  * Initializes the Global MSP.
  */
void HAL_MspInit(void)
{
24100cf4:	b580      	push	{r7, lr}
24100cf6:	af00      	add	r7, sp, #0

  /* USER CODE END MspInit 0 */

  /* System interrupt init*/

  HAL_PWREx_EnableVddIO2();
24100cf8:	f000 fcba 	bl	24101670 <HAL_PWREx_EnableVddIO2>

  HAL_PWREx_EnableVddIO3();
24100cfc:	f000 fcc8 	bl	24101690 <HAL_PWREx_EnableVddIO3>

  HAL_PWREx_EnableVddIO4();
24100d00:	f000 fcd6 	bl	241016b0 <HAL_PWREx_EnableVddIO4>

  HAL_PWREx_EnableVddIO5();
24100d04:	f000 fce4 	bl	241016d0 <HAL_PWREx_EnableVddIO5>

  /* USER CODE BEGIN MspInit 1 */

  /* USER CODE END MspInit 1 */
}
24100d08:	bf00      	nop
24100d0a:	bd80      	pop	{r7, pc}

24100d0c <HAL_UART_MspInit>:
  * This function configures the hardware resources used in this example
  * @param huart: UART handle pointer
  * @retval None
  */
void HAL_UART_MspInit(UART_HandleTypeDef* huart)
{
24100d0c:	b580      	push	{r7, lr}
24100d0e:	b0ec      	sub	sp, #432	@ 0x1b0
24100d10:	af00      	add	r7, sp, #0
24100d12:	f507 73d8 	add.w	r3, r7, #432	@ 0x1b0
24100d16:	f5a3 73d6 	sub.w	r3, r3, #428	@ 0x1ac
24100d1a:	6018      	str	r0, [r3, #0]
  GPIO_InitTypeDef GPIO_InitStruct = {0};
24100d1c:	f507 73ce 	add.w	r3, r7, #412	@ 0x19c
24100d20:	2200      	movs	r2, #0
24100d22:	601a      	str	r2, [r3, #0]
24100d24:	605a      	str	r2, [r3, #4]
24100d26:	609a      	str	r2, [r3, #8]
24100d28:	60da      	str	r2, [r3, #12]
24100d2a:	611a      	str	r2, [r3, #16]
  RCC_PeriphCLKInitTypeDef PeriphClkInitStruct = {0};
24100d2c:	f507 73d8 	add.w	r3, r7, #432	@ 0x1b0
24100d30:	f5a3 73d4 	sub.w	r3, r3, #424	@ 0x1a8
24100d34:	4618      	mov	r0, r3
24100d36:	f44f 73c8 	mov.w	r3, #400	@ 0x190
24100d3a:	461a      	mov	r2, r3
24100d3c:	2100      	movs	r1, #0
24100d3e:	f009 fd6b 	bl	2410a818 <memset>
  if(huart->Instance==USART1)
24100d42:	f507 73d8 	add.w	r3, r7, #432	@ 0x1b0
24100d46:	f5a3 73d6 	sub.w	r3, r3, #428	@ 0x1ac
24100d4a:	681b      	ldr	r3, [r3, #0]
24100d4c:	681b      	ldr	r3, [r3, #0]
24100d4e:	4a1f      	ldr	r2, [pc, #124]	@ (24100dcc <HAL_UART_MspInit+0xc0>)
24100d50:	4293      	cmp	r3, r2
24100d52:	d135      	bne.n	24100dc0 <HAL_UART_MspInit+0xb4>

    /* USER CODE END USART1_MspInit 0 */

  /** Initializes the peripherals clock
  */
    PeriphClkInitStruct.PeriphClockSelection = RCC_PERIPHCLK_USART1;
24100d54:	f507 73d8 	add.w	r3, r7, #432	@ 0x1b0
24100d58:	f5a3 71d4 	sub.w	r1, r3, #424	@ 0x1a8
24100d5c:	f04f 0200 	mov.w	r2, #0
24100d60:	f44f 7380 	mov.w	r3, #256	@ 0x100
24100d64:	e9c1 2300 	strd	r2, r3, [r1]
    PeriphClkInitStruct.Usart1ClockSelection = RCC_USART1CLKSOURCE_PCLK2;
24100d68:	f507 73d8 	add.w	r3, r7, #432	@ 0x1b0
24100d6c:	f5a3 73d4 	sub.w	r3, r3, #424	@ 0x1a8
24100d70:	4a17      	ldr	r2, [pc, #92]	@ (24100dd0 <HAL_UART_MspInit+0xc4>)
24100d72:	f8c3 2150 	str.w	r2, [r3, #336]	@ 0x150
    if (HAL_RCCEx_PeriphCLKConfig(&PeriphClkInitStruct) != HAL_OK)
24100d76:	f107 0308 	add.w	r3, r7, #8
24100d7a:	4618      	mov	r0, r3
24100d7c:	f002 f8c0 	bl	24102f00 <HAL_RCCEx_PeriphCLKConfig>
24100d80:	4603      	mov	r3, r0
24100d82:	2b00      	cmp	r3, #0
24100d84:	d001      	beq.n	24100d8a <HAL_UART_MspInit+0x7e>
    {
      Error_Handler();
24100d86:	f7ff ff83 	bl	24100c90 <Error_Handler>
    }

    /* Peripheral clock enable */
    __HAL_RCC_USART1_CLK_ENABLE();
24100d8a:	2010      	movs	r0, #16
24100d8c:	f7ff ff9c 	bl	24100cc8 <LL_APB2_GRP1_EnableClock>

    __HAL_RCC_GPIOE_CLK_ENABLE();
24100d90:	2010      	movs	r0, #16
24100d92:	f7ff ff83 	bl	24100c9c <LL_AHB4_GRP1_EnableClock>
    /**USART1 GPIO Configuration
    PE5     ------> USART1_TX
    PE6     ------> USART1_RX
    */
    GPIO_InitStruct.Pin = GPIO_PIN_5|GPIO_PIN_6;
24100d96:	2360      	movs	r3, #96	@ 0x60
24100d98:	f8c7 319c 	str.w	r3, [r7, #412]	@ 0x19c
    GPIO_InitStruct.Mode = GPIO_MODE_AF_PP;
24100d9c:	2302      	movs	r3, #2
24100d9e:	f8c7 31a0 	str.w	r3, [r7, #416]	@ 0x1a0
    GPIO_InitStruct.Pull = GPIO_NOPULL;
24100da2:	2300      	movs	r3, #0
24100da4:	f8c7 31a4 	str.w	r3, [r7, #420]	@ 0x1a4
    GPIO_InitStruct.Speed = GPIO_SPEED_FREQ_LOW;
24100da8:	2300      	movs	r3, #0
24100daa:	f8c7 31a8 	str.w	r3, [r7, #424]	@ 0x1a8
    GPIO_InitStruct.Alternate = GPIO_AF7_USART1;
24100dae:	2307      	movs	r3, #7
24100db0:	f8c7 31ac 	str.w	r3, [r7, #428]	@ 0x1ac
    HAL_GPIO_Init(GPIOE, &GPIO_InitStruct);
24100db4:	f507 73ce 	add.w	r3, r7, #412	@ 0x19c
24100db8:	4619      	mov	r1, r3
24100dba:	4806      	ldr	r0, [pc, #24]	@ (24100dd4 <HAL_UART_MspInit+0xc8>)
24100dbc:	f000 fa8e 	bl	241012dc <HAL_GPIO_Init>

    /* USER CODE END USART1_MspInit 1 */

  }

}
24100dc0:	bf00      	nop
24100dc2:	f507 77d8 	add.w	r7, r7, #432	@ 0x1b0
24100dc6:	46bd      	mov	sp, r7
24100dc8:	bd80      	pop	{r7, pc}
24100dca:	bf00      	nop
24100dcc:	42001000 	.word	0x42001000
24100dd0:	07000030 	.word	0x07000030
24100dd4:	46021000 	.word	0x46021000

24100dd8 <MemManage_Handler>:
/******************************************************************************/
/**
  * @brief This function handles Memory management fault.
  */
void MemManage_Handler(void)
{
24100dd8:	b480      	push	{r7}
24100dda:	af00      	add	r7, sp, #0
  /* USER CODE BEGIN MemoryManagement_IRQn 0 */

  /* USER CODE END MemoryManagement_IRQn 0 */
  while (1)
24100ddc:	bf00      	nop
24100dde:	e7fd      	b.n	24100ddc <MemManage_Handler+0x4>

24100de0 <UsageFault_Handler>:

/**
  * @brief This function handles Undefined instruction or illegal state.
  */
void UsageFault_Handler(void)
{
24100de0:	b480      	push	{r7}
24100de2:	af00      	add	r7, sp, #0
  /* USER CODE BEGIN UsageFault_IRQn 0 */

  /* USER CODE END UsageFault_IRQn 0 */
  while (1)
24100de4:	bf00      	nop
24100de6:	e7fd      	b.n	24100de4 <UsageFault_Handler+0x4>

24100de8 <SecureFault_Handler>:

/**
  * @brief This function handles Secure fault.
  */
void SecureFault_Handler(void)
{
24100de8:	b480      	push	{r7}
24100dea:	af00      	add	r7, sp, #0
  /* USER CODE BEGIN SecureFault_IRQn 0 */

  /* USER CODE END SecureFault_IRQn 0 */
  while (1)
24100dec:	bf00      	nop
24100dee:	e7fd      	b.n	24100dec <SecureFault_Handler+0x4>

24100df0 <SVC_Handler>:

/**
  * @brief This function handles System service call via SWI instruction.
  */
void SVC_Handler(void)
{
24100df0:	b480      	push	{r7}
24100df2:	af00      	add	r7, sp, #0

  /* USER CODE END SVCall_IRQn 0 */
  /* USER CODE BEGIN SVCall_IRQn 1 */

  /* USER CODE END SVCall_IRQn 1 */
}
24100df4:	bf00      	nop
24100df6:	46bd      	mov	sp, r7
24100df8:	f85d 7b04 	ldr.w	r7, [sp], #4
24100dfc:	4770      	bx	lr

24100dfe <PendSV_Handler>:

/**
  * @brief This function handles Pendable request for system service.
  */
void PendSV_Handler(void)
{
24100dfe:	b480      	push	{r7}
24100e00:	af00      	add	r7, sp, #0

  /* USER CODE END PendSV_IRQn 0 */
  /* USER CODE BEGIN PendSV_IRQn 1 */

  /* USER CODE END PendSV_IRQn 1 */
}
24100e02:	bf00      	nop
24100e04:	46bd      	mov	sp, r7
24100e06:	f85d 7b04 	ldr.w	r7, [sp], #4
24100e0a:	4770      	bx	lr

24100e0c <SysTick_Handler>:

/**
  * @brief This function handles System tick timer.
  */
void SysTick_Handler(void)
{
24100e0c:	b580      	push	{r7, lr}
24100e0e:	af00      	add	r7, sp, #0
  /* USER CODE BEGIN SysTick_IRQn 0 */

  /* USER CODE END SysTick_IRQn 0 */
  HAL_IncTick();
24100e10:	f000 f93a 	bl	24101088 <HAL_IncTick>
  /* USER CODE BEGIN SysTick_IRQn 1 */

  /* USER CODE END SysTick_IRQn 1 */
}
24100e14:	bf00      	nop
24100e16:	bd80      	pop	{r7, pc}

24100e18 <_read>:
  _kill(status, -1);
  while (1) {}    /* Make sure we hang here */
}

__attribute__((weak)) int _read(int file, char *ptr, int len)
{
24100e18:	b580      	push	{r7, lr}
24100e1a:	b086      	sub	sp, #24
24100e1c:	af00      	add	r7, sp, #0
24100e1e:	60f8      	str	r0, [r7, #12]
24100e20:	60b9      	str	r1, [r7, #8]
24100e22:	607a      	str	r2, [r7, #4]
  (void)file;
  int DataIdx;

  for (DataIdx = 0; DataIdx < len; DataIdx++)
24100e24:	2300      	movs	r3, #0
24100e26:	617b      	str	r3, [r7, #20]
24100e28:	e00a      	b.n	24100e40 <_read+0x28>
  {
    *ptr++ = __io_getchar();
24100e2a:	f3af 8000 	nop.w
24100e2e:	4601      	mov	r1, r0
24100e30:	68bb      	ldr	r3, [r7, #8]
24100e32:	1c5a      	adds	r2, r3, #1
24100e34:	60ba      	str	r2, [r7, #8]
24100e36:	b2ca      	uxtb	r2, r1
24100e38:	701a      	strb	r2, [r3, #0]
  for (DataIdx = 0; DataIdx < len; DataIdx++)
24100e3a:	697b      	ldr	r3, [r7, #20]
24100e3c:	3301      	adds	r3, #1
24100e3e:	617b      	str	r3, [r7, #20]
24100e40:	697a      	ldr	r2, [r7, #20]
24100e42:	687b      	ldr	r3, [r7, #4]
24100e44:	429a      	cmp	r2, r3
24100e46:	dbf0      	blt.n	24100e2a <_read+0x12>
  }

  return len;
24100e48:	687b      	ldr	r3, [r7, #4]
}
24100e4a:	4618      	mov	r0, r3
24100e4c:	3718      	adds	r7, #24
24100e4e:	46bd      	mov	sp, r7
24100e50:	bd80      	pop	{r7, pc}

24100e52 <_write>:

__attribute__((weak)) int _write(int file, char *ptr, int len)
{
24100e52:	b580      	push	{r7, lr}
24100e54:	b086      	sub	sp, #24
24100e56:	af00      	add	r7, sp, #0
24100e58:	60f8      	str	r0, [r7, #12]
24100e5a:	60b9      	str	r1, [r7, #8]
24100e5c:	607a      	str	r2, [r7, #4]
  (void)file;
  int DataIdx;

  for (DataIdx = 0; DataIdx < len; DataIdx++)
24100e5e:	2300      	movs	r3, #0
24100e60:	617b      	str	r3, [r7, #20]
24100e62:	e009      	b.n	24100e78 <_write+0x26>
  {
    __io_putchar(*ptr++);
24100e64:	68bb      	ldr	r3, [r7, #8]
24100e66:	1c5a      	adds	r2, r3, #1
24100e68:	60ba      	str	r2, [r7, #8]
24100e6a:	781b      	ldrb	r3, [r3, #0]
24100e6c:	4618      	mov	r0, r3
24100e6e:	f7ff fed1 	bl	24100c14 <__io_putchar>
  for (DataIdx = 0; DataIdx < len; DataIdx++)
24100e72:	697b      	ldr	r3, [r7, #20]
24100e74:	3301      	adds	r3, #1
24100e76:	617b      	str	r3, [r7, #20]
24100e78:	697a      	ldr	r2, [r7, #20]
24100e7a:	687b      	ldr	r3, [r7, #4]
24100e7c:	429a      	cmp	r2, r3
24100e7e:	dbf1      	blt.n	24100e64 <_write+0x12>
  }
  return len;
24100e80:	687b      	ldr	r3, [r7, #4]
}
24100e82:	4618      	mov	r0, r3
24100e84:	3718      	adds	r7, #24
24100e86:	46bd      	mov	sp, r7
24100e88:	bd80      	pop	{r7, pc}

24100e8a <_close>:

int _close(int file)
{
24100e8a:	b480      	push	{r7}
24100e8c:	b083      	sub	sp, #12
24100e8e:	af00      	add	r7, sp, #0
24100e90:	6078      	str	r0, [r7, #4]
  (void)file;
  return -1;
24100e92:	f04f 33ff 	mov.w	r3, #4294967295	@ 0xffffffff
}
24100e96:	4618      	mov	r0, r3
24100e98:	370c      	adds	r7, #12
24100e9a:	46bd      	mov	sp, r7
24100e9c:	f85d 7b04 	ldr.w	r7, [sp], #4
24100ea0:	4770      	bx	lr

24100ea2 <_fstat>:


int _fstat(int file, struct stat *st)
{
24100ea2:	b480      	push	{r7}
24100ea4:	b083      	sub	sp, #12
24100ea6:	af00      	add	r7, sp, #0
24100ea8:	6078      	str	r0, [r7, #4]
24100eaa:	6039      	str	r1, [r7, #0]
  (void)file;
  st->st_mode = S_IFCHR;
24100eac:	683b      	ldr	r3, [r7, #0]
24100eae:	f44f 5200 	mov.w	r2, #8192	@ 0x2000
24100eb2:	605a      	str	r2, [r3, #4]
  return 0;
24100eb4:	2300      	movs	r3, #0
}
24100eb6:	4618      	mov	r0, r3
24100eb8:	370c      	adds	r7, #12
24100eba:	46bd      	mov	sp, r7
24100ebc:	f85d 7b04 	ldr.w	r7, [sp], #4
24100ec0:	4770      	bx	lr

24100ec2 <_isatty>:

int _isatty(int file)
{
24100ec2:	b480      	push	{r7}
24100ec4:	b083      	sub	sp, #12
24100ec6:	af00      	add	r7, sp, #0
24100ec8:	6078      	str	r0, [r7, #4]
  (void)file;
  return 1;
24100eca:	2301      	movs	r3, #1
}
24100ecc:	4618      	mov	r0, r3
24100ece:	370c      	adds	r7, #12
24100ed0:	46bd      	mov	sp, r7
24100ed2:	f85d 7b04 	ldr.w	r7, [sp], #4
24100ed6:	4770      	bx	lr

24100ed8 <_lseek>:

int _lseek(int file, int ptr, int dir)
{
24100ed8:	b480      	push	{r7}
24100eda:	b085      	sub	sp, #20
24100edc:	af00      	add	r7, sp, #0
24100ede:	60f8      	str	r0, [r7, #12]
24100ee0:	60b9      	str	r1, [r7, #8]
24100ee2:	607a      	str	r2, [r7, #4]
  (void)file;
  (void)ptr;
  (void)dir;
  return 0;
24100ee4:	2300      	movs	r3, #0
}
24100ee6:	4618      	mov	r0, r3
24100ee8:	3714      	adds	r7, #20
24100eea:	46bd      	mov	sp, r7
24100eec:	f85d 7b04 	ldr.w	r7, [sp], #4
24100ef0:	4770      	bx	lr
	...

24100ef4 <_sbrk>:
 *
 * @param incr Memory size
 * @return Pointer to allocated memory
 */
void *_sbrk(ptrdiff_t incr)
{
24100ef4:	b580      	push	{r7, lr}
24100ef6:	b086      	sub	sp, #24
24100ef8:	af00      	add	r7, sp, #0
24100efa:	6078      	str	r0, [r7, #4]
  extern uint8_t _end; /* Symbol defined in the linker script */
  extern uint8_t _estack; /* Symbol defined in the linker script */
  extern uint32_t _Min_Stack_Size; /* Symbol defined in the linker script */
  const uint32_t stack_limit = (uint32_t)&_estack - (uint32_t)&_Min_Stack_Size;
24100efc:	4a14      	ldr	r2, [pc, #80]	@ (24100f50 <_sbrk+0x5c>)
24100efe:	4b15      	ldr	r3, [pc, #84]	@ (24100f54 <_sbrk+0x60>)
24100f00:	1ad3      	subs	r3, r2, r3
24100f02:	617b      	str	r3, [r7, #20]
  const uint8_t *max_heap = (uint8_t *)stack_limit;
24100f04:	697b      	ldr	r3, [r7, #20]
24100f06:	613b      	str	r3, [r7, #16]
  uint8_t *prev_heap_end;

  /* Initialize heap end at first call */
  if (NULL == __sbrk_heap_end)
24100f08:	4b13      	ldr	r3, [pc, #76]	@ (24100f58 <_sbrk+0x64>)
24100f0a:	681b      	ldr	r3, [r3, #0]
24100f0c:	2b00      	cmp	r3, #0
24100f0e:	d102      	bne.n	24100f16 <_sbrk+0x22>
  {
    __sbrk_heap_end = &_end;
24100f10:	4b11      	ldr	r3, [pc, #68]	@ (24100f58 <_sbrk+0x64>)
24100f12:	4a12      	ldr	r2, [pc, #72]	@ (24100f5c <_sbrk+0x68>)
24100f14:	601a      	str	r2, [r3, #0]
  }

  /* Protect heap from growing into the reserved MSP stack */
  if (__sbrk_heap_end + incr > max_heap)
24100f16:	4b10      	ldr	r3, [pc, #64]	@ (24100f58 <_sbrk+0x64>)
24100f18:	681a      	ldr	r2, [r3, #0]
24100f1a:	687b      	ldr	r3, [r7, #4]
24100f1c:	4413      	add	r3, r2
24100f1e:	693a      	ldr	r2, [r7, #16]
24100f20:	429a      	cmp	r2, r3
24100f22:	d207      	bcs.n	24100f34 <_sbrk+0x40>
  {
    errno = ENOMEM;
24100f24:	f009 fcc6 	bl	2410a8b4 <__errno>
24100f28:	4603      	mov	r3, r0
24100f2a:	220c      	movs	r2, #12
24100f2c:	601a      	str	r2, [r3, #0]
    return (void *)-1;
24100f2e:	f04f 33ff 	mov.w	r3, #4294967295	@ 0xffffffff
24100f32:	e009      	b.n	24100f48 <_sbrk+0x54>
  }

  prev_heap_end = __sbrk_heap_end;
24100f34:	4b08      	ldr	r3, [pc, #32]	@ (24100f58 <_sbrk+0x64>)
24100f36:	681b      	ldr	r3, [r3, #0]
24100f38:	60fb      	str	r3, [r7, #12]
  __sbrk_heap_end += incr;
24100f3a:	4b07      	ldr	r3, [pc, #28]	@ (24100f58 <_sbrk+0x64>)
24100f3c:	681a      	ldr	r2, [r3, #0]
24100f3e:	687b      	ldr	r3, [r7, #4]
24100f40:	4413      	add	r3, r2
24100f42:	4a05      	ldr	r2, [pc, #20]	@ (24100f58 <_sbrk+0x64>)
24100f44:	6013      	str	r3, [r2, #0]

  return (void *)prev_heap_end;
24100f46:	68fb      	ldr	r3, [r7, #12]
}
24100f48:	4618      	mov	r0, r3
24100f4a:	3718      	adds	r7, #24
24100f4c:	46bd      	mov	sp, r7
24100f4e:	bd80      	pop	{r7, pc}
24100f50:	24200000 	.word	0x24200000
24100f54:	00000800 	.word	0x00000800
24100f58:	24180118 	.word	0x24180118
24100f5c:	24180270 	.word	0x24180270

24100f60 <SystemInit>:
  * @brief  Setup the microcontroller system.
  * @retval None
  */

void SystemInit(void)
{
24100f60:	b480      	push	{r7}
24100f62:	af00      	add	r7, sp, #0

  /* Configure the Vector Table location -------------------------------------*/
#if defined(USER_VECT_TAB_ADDRESS)
  SCB->VTOR = VECT_TAB_BASE_ADDRESS | VECT_TAB_OFFSET;
#else
  SCB->VTOR = INTVECT_START;
24100f64:	4b03      	ldr	r3, [pc, #12]	@ (24100f74 <SystemInit+0x14>)
24100f66:	4a04      	ldr	r2, [pc, #16]	@ (24100f78 <SystemInit+0x18>)
24100f68:	609a      	str	r2, [r3, #8]
#endif  /* USER_VECT_TAB_ADDRESS */

  /* Non-secure main application shall call SystemCoreClockUpdate() to update */
  /* the SystemCoreClock variable to insure non-secure application relies on  */
  /* the initial clock reference set by secure application.                   */
}
24100f6a:	bf00      	nop
24100f6c:	46bd      	mov	sp, r7
24100f6e:	f85d 7b04 	ldr.w	r7, [sp], #4
24100f72:	4770      	bx	lr
24100f74:	e000ed00 	.word	0xe000ed00
24100f78:	24100400 	.word	0x24100400

24100f7c <SystemCoreClockUpdate>:
  *           value for HSE crystal.
  *
  * @retval None
  */
void SystemCoreClockUpdate(void)
{
24100f7c:	b580      	push	{r7, lr}
24100f7e:	af00      	add	r7, sp, #0
  /* Get the SystemCoreClock value from the secure domain */
  SystemCoreClock = SECURE_SystemCoreClockUpdate();
24100f80:	f009 ff02 	bl	2410ad88 <__SECURE_SystemCoreClockUpdate_veneer>
24100f84:	4603      	mov	r3, r0
24100f86:	4a02      	ldr	r2, [pc, #8]	@ (24100f90 <SystemCoreClockUpdate+0x14>)
24100f88:	6013      	str	r3, [r2, #0]
}
24100f8a:	bf00      	nop
24100f8c:	bd80      	pop	{r7, pc}
24100f8e:	bf00      	nop
24100f90:	24180000 	.word	0x24180000

24100f94 <Reset_Handler>:

  .section .text.Reset_Handler
  .weak Reset_Handler
  .type Reset_Handler, %function
Reset_Handler:
  ldr   r0, =_sstack
24100f94:	480f      	ldr	r0, [pc, #60]	@ (24100fd4 <LoopForever+0x4>)
  msr   MSPLIM, r0
24100f96:	f380 880a 	msr	MSPLIM, r0
  ldr   r0, =_estack
24100f9a:	480f      	ldr	r0, [pc, #60]	@ (24100fd8 <LoopForever+0x8>)
  mov   sp, r0          /* set stack pointer */
24100f9c:	4685      	mov	sp, r0
/* Call the clock system initialization function.*/
  bl  SystemInit
24100f9e:	f7ff ffdf 	bl	24100f60 <SystemInit>

/* Copy the data segment initializers from flash to SRAM */
  ldr r0, =_sdata
24100fa2:	480e      	ldr	r0, [pc, #56]	@ (24100fdc <LoopForever+0xc>)
  ldr r1, =_edata
24100fa4:	490e      	ldr	r1, [pc, #56]	@ (24100fe0 <LoopForever+0x10>)
  ldr r2, =_sidata
24100fa6:	4a0f      	ldr	r2, [pc, #60]	@ (24100fe4 <LoopForever+0x14>)
  movs r3, #0
24100fa8:	2300      	movs	r3, #0
  b LoopCopyDataInit
24100faa:	e002      	b.n	24100fb2 <LoopCopyDataInit>

24100fac <CopyDataInit>:

CopyDataInit:
  ldr r4, [r2, r3]
24100fac:	58d4      	ldr	r4, [r2, r3]
  str r4, [r0, r3]
24100fae:	50c4      	str	r4, [r0, r3]
  adds r3, r3, #4
24100fb0:	3304      	adds	r3, #4

24100fb2 <LoopCopyDataInit>:

LoopCopyDataInit:
  adds r4, r0, r3
24100fb2:	18c4      	adds	r4, r0, r3
  cmp r4, r1
24100fb4:	428c      	cmp	r4, r1
  bcc CopyDataInit
24100fb6:	d3f9      	bcc.n	24100fac <CopyDataInit>

/* Zero fill the bss segment. */
  ldr r2, =_sbss
24100fb8:	4a0b      	ldr	r2, [pc, #44]	@ (24100fe8 <LoopForever+0x18>)
  ldr r4, =_ebss
24100fba:	4c0c      	ldr	r4, [pc, #48]	@ (24100fec <LoopForever+0x1c>)
  movs r3, #0
24100fbc:	2300      	movs	r3, #0
  b LoopFillZerobss
24100fbe:	e001      	b.n	24100fc4 <LoopFillZerobss>

24100fc0 <FillZerobss>:

FillZerobss:
  str  r3, [r2]
24100fc0:	6013      	str	r3, [r2, #0]
  adds r2, r2, #4
24100fc2:	3204      	adds	r2, #4

24100fc4 <LoopFillZerobss>:

LoopFillZerobss:
  cmp r2, r4
24100fc4:	42a2      	cmp	r2, r4
  bcc FillZerobss
24100fc6:	d3fb      	bcc.n	24100fc0 <FillZerobss>

/* Call static constructors */
  bl __libc_init_array
24100fc8:	f009 fc7a 	bl	2410a8c0 <__libc_init_array>
/* Call the application's entry point.*/
  bl main
24100fcc:	f7ff fdb6 	bl	24100b3c <main>

24100fd0 <LoopForever>:

LoopForever:
  b LoopForever
24100fd0:	e7fe      	b.n	24100fd0 <LoopForever>
24100fd2:	0000      	.short	0x0000
  ldr   r0, =_sstack
24100fd4:	241ff800 	.word	0x241ff800
  ldr   r0, =_estack
24100fd8:	24200000 	.word	0x24200000
  ldr r0, =_sdata
24100fdc:	24180000 	.word	0x24180000
  ldr r1, =_edata
24100fe0:	24180068 	.word	0x24180068
  ldr r2, =_sidata
24100fe4:	2410add8 	.word	0x2410add8
  ldr r2, =_sbss
24100fe8:	24180068 	.word	0x24180068
  ldr r4, =_ebss
24100fec:	2418026c 	.word	0x2418026c

24100ff0 <ADC1_2_IRQHandler>:
 * @retval : None
*/
  .section .text.Default_Handler,"ax",%progbits
Default_Handler:
Infinite_Loop:
  b Infinite_Loop
24100ff0:	e7fe      	b.n	24100ff0 <ADC1_2_IRQHandler>

24100ff2 <HAL_Init>:
  *         each 1ms in the SysTick_Handler() interrupt handler.
  *
  * @retval HAL status
  */
HAL_StatusTypeDef HAL_Init(void)
{
24100ff2:	b580      	push	{r7, lr}
24100ff4:	af00      	add	r7, sp, #0
  /* Set Interrupt Group Priority */
  HAL_NVIC_SetPriorityGrouping(NVIC_PRIORITYGROUP_4);
24100ff6:	2003      	movs	r0, #3
24100ff8:	f000 f93c 	bl	24101274 <HAL_NVIC_SetPriorityGrouping>

  /* Ensure time base clock coherency in SystemCoreClock global variable */
  SystemCoreClockUpdate();
24100ffc:	f7ff ffbe 	bl	24100f7c <SystemCoreClockUpdate>

  /* Initialize 1ms tick time base (default SysTick based on HSI clock after Reset) */
  if (HAL_InitTick(TICK_INT_PRIORITY) != HAL_OK)
24101000:	200f      	movs	r0, #15
24101002:	f000 f80b 	bl	2410101c <HAL_InitTick>
24101006:	4603      	mov	r3, r0
24101008:	2b00      	cmp	r3, #0
2410100a:	d001      	beq.n	24101010 <HAL_Init+0x1e>
  {
    return HAL_ERROR;
2410100c:	2301      	movs	r3, #1
2410100e:	e002      	b.n	24101016 <HAL_Init+0x24>
  }

  /* Init the low level hardware */
  HAL_MspInit();
24101010:	f7ff fe70 	bl	24100cf4 <HAL_MspInit>

  /* Return function status */
  return HAL_OK;
24101014:	2300      	movs	r3, #0
}
24101016:	4618      	mov	r0, r3
24101018:	bd80      	pop	{r7, pc}
	...

2410101c <HAL_InitTick>:
  *       implementation  in user file.
  * @param TickPriority: Tick interrupt priority.
  * @retval HAL status
  */
__weak HAL_StatusTypeDef HAL_InitTick(uint32_t TickPriority)
{
2410101c:	b580      	push	{r7, lr}
2410101e:	b082      	sub	sp, #8
24101020:	af00      	add	r7, sp, #0
24101022:	6078      	str	r0, [r7, #4]
  /* Check uwTickFreq for MisraC 2012 (even if uwTickFreq is a enum type that don't take the value zero)*/
  if ((uint32_t)uwTickFreq == 0UL)
24101024:	4b15      	ldr	r3, [pc, #84]	@ (2410107c <HAL_InitTick+0x60>)
24101026:	781b      	ldrb	r3, [r3, #0]
24101028:	2b00      	cmp	r3, #0
2410102a:	d101      	bne.n	24101030 <HAL_InitTick+0x14>
  {
    return HAL_ERROR;
2410102c:	2301      	movs	r3, #1
2410102e:	e021      	b.n	24101074 <HAL_InitTick+0x58>
  }

  /* Configure the SysTick to have interrupt in 1ms time basis*/
  if (HAL_SYSTICK_Config(SystemCoreClock / (1000UL / (uint32_t)uwTickFreq)) > 0U)
24101030:	4b13      	ldr	r3, [pc, #76]	@ (24101080 <HAL_InitTick+0x64>)
24101032:	681a      	ldr	r2, [r3, #0]
24101034:	4b11      	ldr	r3, [pc, #68]	@ (2410107c <HAL_InitTick+0x60>)
24101036:	781b      	ldrb	r3, [r3, #0]
24101038:	4619      	mov	r1, r3
2410103a:	f44f 737a 	mov.w	r3, #1000	@ 0x3e8
2410103e:	fbb3 f3f1 	udiv	r3, r3, r1
24101042:	fbb2 f3f3 	udiv	r3, r2, r3
24101046:	4618      	mov	r0, r3
24101048:	f000 f93c 	bl	241012c4 <HAL_SYSTICK_Config>
2410104c:	4603      	mov	r3, r0
2410104e:	2b00      	cmp	r3, #0
24101050:	d001      	beq.n	24101056 <HAL_InitTick+0x3a>
  {
    return HAL_ERROR;
24101052:	2301      	movs	r3, #1
24101054:	e00e      	b.n	24101074 <HAL_InitTick+0x58>
  }

  /* Configure the SysTick IRQ priority */
  if (TickPriority < (1UL << __NVIC_PRIO_BITS))
24101056:	687b      	ldr	r3, [r7, #4]
24101058:	2b0f      	cmp	r3, #15
2410105a:	d80a      	bhi.n	24101072 <HAL_InitTick+0x56>
  {
    HAL_NVIC_SetPriority(SysTick_IRQn, TickPriority, 0U);
2410105c:	2200      	movs	r2, #0
2410105e:	6879      	ldr	r1, [r7, #4]
24101060:	f04f 30ff 	mov.w	r0, #4294967295	@ 0xffffffff
24101064:	f000 f911 	bl	2410128a <HAL_NVIC_SetPriority>
    uwTickPrio = TickPriority;
24101068:	4a06      	ldr	r2, [pc, #24]	@ (24101084 <HAL_InitTick+0x68>)
2410106a:	687b      	ldr	r3, [r7, #4]
2410106c:	6013      	str	r3, [r2, #0]
  {
    return HAL_ERROR;
  }

  /* Return function status */
  return HAL_OK;
2410106e:	2300      	movs	r3, #0
24101070:	e000      	b.n	24101074 <HAL_InitTick+0x58>
    return HAL_ERROR;
24101072:	2301      	movs	r3, #1
}
24101074:	4618      	mov	r0, r3
24101076:	3708      	adds	r7, #8
24101078:	46bd      	mov	sp, r7
2410107a:	bd80      	pop	{r7, pc}
2410107c:	24180008 	.word	0x24180008
24101080:	24180000 	.word	0x24180000
24101084:	24180004 	.word	0x24180004

24101088 <HAL_IncTick>:
  * @note This function is declared as __weak to be overwritten in case of other
  *       implementations in user file.
  * @retval None
  */
__weak void HAL_IncTick(void)
{
24101088:	b480      	push	{r7}
2410108a:	af00      	add	r7, sp, #0
  uwTick += (uint32_t)uwTickFreq;
2410108c:	4b06      	ldr	r3, [pc, #24]	@ (241010a8 <HAL_IncTick+0x20>)
2410108e:	781b      	ldrb	r3, [r3, #0]
24101090:	461a      	mov	r2, r3
24101092:	4b06      	ldr	r3, [pc, #24]	@ (241010ac <HAL_IncTick+0x24>)
24101094:	681b      	ldr	r3, [r3, #0]
24101096:	4413      	add	r3, r2
24101098:	4a04      	ldr	r2, [pc, #16]	@ (241010ac <HAL_IncTick+0x24>)
2410109a:	6013      	str	r3, [r2, #0]
}
2410109c:	bf00      	nop
2410109e:	46bd      	mov	sp, r7
241010a0:	f85d 7b04 	ldr.w	r7, [sp], #4
241010a4:	4770      	bx	lr
241010a6:	bf00      	nop
241010a8:	24180008 	.word	0x24180008
241010ac:	2418011c 	.word	0x2418011c

241010b0 <HAL_GetTick>:
  * @note This function is declared as __weak to be overwritten in case of other
  *       implementations in user file.
  * @retval tick value
  */
__weak uint32_t HAL_GetTick(void)
{
241010b0:	b480      	push	{r7}
241010b2:	af00      	add	r7, sp, #0
  return uwTick;
241010b4:	4b03      	ldr	r3, [pc, #12]	@ (241010c4 <HAL_GetTick+0x14>)
241010b6:	681b      	ldr	r3, [r3, #0]
}
241010b8:	4618      	mov	r0, r3
241010ba:	46bd      	mov	sp, r7
241010bc:	f85d 7b04 	ldr.w	r7, [sp], #4
241010c0:	4770      	bx	lr
241010c2:	bf00      	nop
241010c4:	2418011c 	.word	0x2418011c

241010c8 <HAL_Delay>:
  *       implementations in user file.
  * @param Delay Specifies the delay time length, in milliseconds.
  * @retval None
  */
__weak void HAL_Delay(uint32_t Delay)
{
241010c8:	b580      	push	{r7, lr}
241010ca:	b084      	sub	sp, #16
241010cc:	af00      	add	r7, sp, #0
241010ce:	6078      	str	r0, [r7, #4]
  uint32_t tickstart = HAL_GetTick();
241010d0:	f7ff ffee 	bl	241010b0 <HAL_GetTick>
241010d4:	60b8      	str	r0, [r7, #8]
  uint32_t wait = Delay;
241010d6:	687b      	ldr	r3, [r7, #4]
241010d8:	60fb      	str	r3, [r7, #12]

  /* Add a freq to guarantee minimum wait */
  if (wait < HAL_MAX_DELAY)
241010da:	68fb      	ldr	r3, [r7, #12]
241010dc:	f1b3 3fff 	cmp.w	r3, #4294967295	@ 0xffffffff
241010e0:	d005      	beq.n	241010ee <HAL_Delay+0x26>
  {
    wait += (uint32_t)(uwTickFreq);
241010e2:	4b0a      	ldr	r3, [pc, #40]	@ (2410110c <HAL_Delay+0x44>)
241010e4:	781b      	ldrb	r3, [r3, #0]
241010e6:	461a      	mov	r2, r3
241010e8:	68fb      	ldr	r3, [r7, #12]
241010ea:	4413      	add	r3, r2
241010ec:	60fb      	str	r3, [r7, #12]
  }

  while ((HAL_GetTick() - tickstart) < wait)
241010ee:	bf00      	nop
241010f0:	f7ff ffde 	bl	241010b0 <HAL_GetTick>
241010f4:	4602      	mov	r2, r0
241010f6:	68bb      	ldr	r3, [r7, #8]
241010f8:	1ad3      	subs	r3, r2, r3
241010fa:	68fa      	ldr	r2, [r7, #12]
241010fc:	429a      	cmp	r2, r3
241010fe:	d8f7      	bhi.n	241010f0 <HAL_Delay+0x28>
  {
  }
}
24101100:	bf00      	nop
24101102:	bf00      	nop
24101104:	3710      	adds	r7, #16
24101106:	46bd      	mov	sp, r7
24101108:	bd80      	pop	{r7, pc}
2410110a:	bf00      	nop
2410110c:	24180008 	.word	0x24180008

24101110 <__NVIC_SetPriorityGrouping>:
           In case of a conflict between priority grouping and available
           priority bits (__NVIC_PRIO_BITS), the smallest possible priority group is set.
  \param [in]      PriorityGroup  Priority grouping field.
 */
__STATIC_INLINE void __NVIC_SetPriorityGrouping(uint32_t PriorityGroup)
{
24101110:	b480      	push	{r7}
24101112:	b085      	sub	sp, #20
24101114:	af00      	add	r7, sp, #0
24101116:	6078      	str	r0, [r7, #4]
  uint32_t reg_value;
  uint32_t PriorityGroupTmp = (PriorityGroup & (uint32_t)0x07UL);             /* only values 0..7 are used          */
24101118:	687b      	ldr	r3, [r7, #4]
2410111a:	f003 0307 	and.w	r3, r3, #7
2410111e:	60fb      	str	r3, [r7, #12]

  reg_value  =  SCB->AIRCR;                                                   /* read old register configuration    */
24101120:	4b0c      	ldr	r3, [pc, #48]	@ (24101154 <__NVIC_SetPriorityGrouping+0x44>)
24101122:	68db      	ldr	r3, [r3, #12]
24101124:	60bb      	str	r3, [r7, #8]
  reg_value &= ~((uint32_t)(SCB_AIRCR_VECTKEY_Msk | SCB_AIRCR_PRIGROUP_Msk)); /* clear bits to change               */
24101126:	68ba      	ldr	r2, [r7, #8]
24101128:	f64f 03ff 	movw	r3, #63743	@ 0xf8ff
2410112c:	4013      	ands	r3, r2
2410112e:	60bb      	str	r3, [r7, #8]
  reg_value  =  (reg_value                                   |
                ((uint32_t)0x5FAUL << SCB_AIRCR_VECTKEY_Pos) |
                (PriorityGroupTmp << SCB_AIRCR_PRIGROUP_Pos)  );              /* Insert write key and priority group */
24101130:	68fb      	ldr	r3, [r7, #12]
24101132:	021a      	lsls	r2, r3, #8
                ((uint32_t)0x5FAUL << SCB_AIRCR_VECTKEY_Pos) |
24101134:	68bb      	ldr	r3, [r7, #8]
24101136:	4313      	orrs	r3, r2
  reg_value  =  (reg_value                                   |
24101138:	f043 63bf 	orr.w	r3, r3, #100139008	@ 0x5f80000
2410113c:	f443 3300 	orr.w	r3, r3, #131072	@ 0x20000
24101140:	60bb      	str	r3, [r7, #8]
  SCB->AIRCR =  reg_value;
24101142:	4a04      	ldr	r2, [pc, #16]	@ (24101154 <__NVIC_SetPriorityGrouping+0x44>)
24101144:	68bb      	ldr	r3, [r7, #8]
24101146:	60d3      	str	r3, [r2, #12]
}
24101148:	bf00      	nop
2410114a:	3714      	adds	r7, #20
2410114c:	46bd      	mov	sp, r7
2410114e:	f85d 7b04 	ldr.w	r7, [sp], #4
24101152:	4770      	bx	lr
24101154:	e000ed00 	.word	0xe000ed00

24101158 <__NVIC_GetPriorityGrouping>:
  \brief   Get Priority Grouping
  \details Reads the priority grouping field from the NVIC Interrupt Controller.
  \return                Priority grouping field (SCB->AIRCR [10:8] PRIGROUP field).
 */
__STATIC_INLINE uint32_t __NVIC_GetPriorityGrouping(void)
{
24101158:	b480      	push	{r7}
2410115a:	af00      	add	r7, sp, #0
  return ((uint32_t)((SCB->AIRCR & SCB_AIRCR_PRIGROUP_Msk) >> SCB_AIRCR_PRIGROUP_Pos));
2410115c:	4b04      	ldr	r3, [pc, #16]	@ (24101170 <__NVIC_GetPriorityGrouping+0x18>)
2410115e:	68db      	ldr	r3, [r3, #12]
24101160:	0a1b      	lsrs	r3, r3, #8
24101162:	f003 0307 	and.w	r3, r3, #7
}
24101166:	4618      	mov	r0, r3
24101168:	46bd      	mov	sp, r7
2410116a:	f85d 7b04 	ldr.w	r7, [sp], #4
2410116e:	4770      	bx	lr
24101170:	e000ed00 	.word	0xe000ed00

24101174 <__NVIC_SetPriority>:
  \param [in]      IRQn  Interrupt number.
  \param [in]  priority  Priority to set.
  \note    The priority cannot be set for every processor exception.
 */
__STATIC_INLINE void __NVIC_SetPriority(IRQn_Type IRQn, uint32_t priority)
{
24101174:	b480      	push	{r7}
24101176:	b083      	sub	sp, #12
24101178:	af00      	add	r7, sp, #0
2410117a:	4603      	mov	r3, r0
2410117c:	6039      	str	r1, [r7, #0]
2410117e:	80fb      	strh	r3, [r7, #6]
  if ((int32_t)(IRQn) >= 0)
24101180:	f9b7 3006 	ldrsh.w	r3, [r7, #6]
24101184:	2b00      	cmp	r3, #0
24101186:	db0a      	blt.n	2410119e <__NVIC_SetPriority+0x2a>
  {
    NVIC->IPR[((uint32_t)IRQn)]               = (uint8_t)((priority << (8U - __NVIC_PRIO_BITS)) & (uint32_t)0xFFUL);
24101188:	683b      	ldr	r3, [r7, #0]
2410118a:	b2da      	uxtb	r2, r3
2410118c:	490c      	ldr	r1, [pc, #48]	@ (241011c0 <__NVIC_SetPriority+0x4c>)
2410118e:	f9b7 3006 	ldrsh.w	r3, [r7, #6]
24101192:	0112      	lsls	r2, r2, #4
24101194:	b2d2      	uxtb	r2, r2
24101196:	440b      	add	r3, r1
24101198:	f883 2300 	strb.w	r2, [r3, #768]	@ 0x300
  }
  else
  {
    SCB->SHPR[(((uint32_t)IRQn) & 0xFUL)-4UL] = (uint8_t)((priority << (8U - __NVIC_PRIO_BITS)) & (uint32_t)0xFFUL);
  }
}
2410119c:	e00a      	b.n	241011b4 <__NVIC_SetPriority+0x40>
    SCB->SHPR[(((uint32_t)IRQn) & 0xFUL)-4UL] = (uint8_t)((priority << (8U - __NVIC_PRIO_BITS)) & (uint32_t)0xFFUL);
2410119e:	683b      	ldr	r3, [r7, #0]
241011a0:	b2da      	uxtb	r2, r3
241011a2:	4908      	ldr	r1, [pc, #32]	@ (241011c4 <__NVIC_SetPriority+0x50>)
241011a4:	88fb      	ldrh	r3, [r7, #6]
241011a6:	f003 030f 	and.w	r3, r3, #15
241011aa:	3b04      	subs	r3, #4
241011ac:	0112      	lsls	r2, r2, #4
241011ae:	b2d2      	uxtb	r2, r2
241011b0:	440b      	add	r3, r1
241011b2:	761a      	strb	r2, [r3, #24]
}
241011b4:	bf00      	nop
241011b6:	370c      	adds	r7, #12
241011b8:	46bd      	mov	sp, r7
241011ba:	f85d 7b04 	ldr.w	r7, [sp], #4
241011be:	4770      	bx	lr
241011c0:	e000e100 	.word	0xe000e100
241011c4:	e000ed00 	.word	0xe000ed00

241011c8 <NVIC_EncodePriority>:
  \param [in]   PreemptPriority  Preemptive priority value (starting from 0).
  \param [in]       SubPriority  Subpriority value (starting from 0).
  \return                        Encoded priority. Value can be used in the function \ref NVIC_SetPriority().
 */
__STATIC_INLINE uint32_t NVIC_EncodePriority (uint32_t PriorityGroup, uint32_t PreemptPriority, uint32_t SubPriority)
{
241011c8:	b480      	push	{r7}
241011ca:	b089      	sub	sp, #36	@ 0x24
241011cc:	af00      	add	r7, sp, #0
241011ce:	60f8      	str	r0, [r7, #12]
241011d0:	60b9      	str	r1, [r7, #8]
241011d2:	607a      	str	r2, [r7, #4]
  uint32_t PriorityGroupTmp = (PriorityGroup & (uint32_t)0x07UL);   /* only values 0..7 are used          */
241011d4:	68fb      	ldr	r3, [r7, #12]
241011d6:	f003 0307 	and.w	r3, r3, #7
241011da:	61fb      	str	r3, [r7, #28]
  uint32_t PreemptPriorityBits;
  uint32_t SubPriorityBits;

  PreemptPriorityBits = ((7UL - PriorityGroupTmp) > (uint32_t)(__NVIC_PRIO_BITS)) ? (uint32_t)(__NVIC_PRIO_BITS) : (uint32_t)(7UL - PriorityGroupTmp);
241011dc:	69fb      	ldr	r3, [r7, #28]
241011de:	f1c3 0307 	rsb	r3, r3, #7
241011e2:	2b04      	cmp	r3, #4
241011e4:	bf28      	it	cs
241011e6:	2304      	movcs	r3, #4
241011e8:	61bb      	str	r3, [r7, #24]
  SubPriorityBits     = ((PriorityGroupTmp + (uint32_t)(__NVIC_PRIO_BITS)) < (uint32_t)7UL) ? (uint32_t)0UL : (uint32_t)((PriorityGroupTmp - 7UL) + (uint32_t)(__NVIC_PRIO_BITS));
241011ea:	69fb      	ldr	r3, [r7, #28]
241011ec:	3304      	adds	r3, #4
241011ee:	2b06      	cmp	r3, #6
241011f0:	d902      	bls.n	241011f8 <NVIC_EncodePriority+0x30>
241011f2:	69fb      	ldr	r3, [r7, #28]
241011f4:	3b03      	subs	r3, #3
241011f6:	e000      	b.n	241011fa <NVIC_EncodePriority+0x32>
241011f8:	2300      	movs	r3, #0
241011fa:	617b      	str	r3, [r7, #20]

  return (
           ((PreemptPriority & (uint32_t)((1UL << (PreemptPriorityBits)) - 1UL)) << SubPriorityBits) |
241011fc:	f04f 32ff 	mov.w	r2, #4294967295	@ 0xffffffff
24101200:	69bb      	ldr	r3, [r7, #24]
24101202:	fa02 f303 	lsl.w	r3, r2, r3
24101206:	43da      	mvns	r2, r3
24101208:	68bb      	ldr	r3, [r7, #8]
2410120a:	401a      	ands	r2, r3
2410120c:	697b      	ldr	r3, [r7, #20]
2410120e:	409a      	lsls	r2, r3
           ((SubPriority     & (uint32_t)((1UL << (SubPriorityBits    )) - 1UL)))
24101210:	f04f 31ff 	mov.w	r1, #4294967295	@ 0xffffffff
24101214:	697b      	ldr	r3, [r7, #20]
24101216:	fa01 f303 	lsl.w	r3, r1, r3
2410121a:	43d9      	mvns	r1, r3
2410121c:	687b      	ldr	r3, [r7, #4]
2410121e:	400b      	ands	r3, r1
           ((PreemptPriority & (uint32_t)((1UL << (PreemptPriorityBits)) - 1UL)) << SubPriorityBits) |
24101220:	4313      	orrs	r3, r2
         );
}
24101222:	4618      	mov	r0, r3
24101224:	3724      	adds	r7, #36	@ 0x24
24101226:	46bd      	mov	sp, r7
24101228:	f85d 7b04 	ldr.w	r7, [sp], #4
2410122c:	4770      	bx	lr
	...

24101230 <SysTick_Config>:
  \note    When the variable <b>__Vendor_SysTickConfig</b> is set to 1, then the
           function <b>SysTick_Config</b> is not included. In this case, the file <b><i>device</i>.h</b>
           must contain a vendor-specific implementation of this function.
 */
__STATIC_INLINE uint32_t SysTick_Config(uint32_t ticks)
{
24101230:	b580      	push	{r7, lr}
24101232:	b082      	sub	sp, #8
24101234:	af00      	add	r7, sp, #0
24101236:	6078      	str	r0, [r7, #4]
  if ((ticks - 1UL) > SysTick_LOAD_RELOAD_Msk)
24101238:	687b      	ldr	r3, [r7, #4]
2410123a:	3b01      	subs	r3, #1
2410123c:	f1b3 7f80 	cmp.w	r3, #16777216	@ 0x1000000
24101240:	d301      	bcc.n	24101246 <SysTick_Config+0x16>
  {
    return (1UL);                                                   /* Reload value impossible */
24101242:	2301      	movs	r3, #1
24101244:	e00f      	b.n	24101266 <SysTick_Config+0x36>
  }

  SysTick->LOAD  = (uint32_t)(ticks - 1UL);                         /* set reload register */
24101246:	4a0a      	ldr	r2, [pc, #40]	@ (24101270 <SysTick_Config+0x40>)
24101248:	687b      	ldr	r3, [r7, #4]
2410124a:	3b01      	subs	r3, #1
2410124c:	6053      	str	r3, [r2, #4]
  NVIC_SetPriority (SysTick_IRQn, (1UL << __NVIC_PRIO_BITS) - 1UL); /* set Priority for Systick Interrupt */
2410124e:	210f      	movs	r1, #15
24101250:	f04f 30ff 	mov.w	r0, #4294967295	@ 0xffffffff
24101254:	f7ff ff8e 	bl	24101174 <__NVIC_SetPriority>
  SysTick->VAL   = 0UL;                                             /* Load the SysTick Counter Value */
24101258:	4b05      	ldr	r3, [pc, #20]	@ (24101270 <SysTick_Config+0x40>)
2410125a:	2200      	movs	r2, #0
2410125c:	609a      	str	r2, [r3, #8]
  SysTick->CTRL  = SysTick_CTRL_CLKSOURCE_Msk |
2410125e:	4b04      	ldr	r3, [pc, #16]	@ (24101270 <SysTick_Config+0x40>)
24101260:	2207      	movs	r2, #7
24101262:	601a      	str	r2, [r3, #0]
                   SysTick_CTRL_TICKINT_Msk   |
                   SysTick_CTRL_ENABLE_Msk;                         /* Enable SysTick IRQ and SysTick Timer */
  return (0UL);                                                     /* Function successful */
24101264:	2300      	movs	r3, #0
}
24101266:	4618      	mov	r0, r3
24101268:	3708      	adds	r7, #8
2410126a:	46bd      	mov	sp, r7
2410126c:	bd80      	pop	{r7, pc}
2410126e:	bf00      	nop
24101270:	e000e010 	.word	0xe000e010

24101274 <HAL_NVIC_SetPriorityGrouping>:
  * @note   When the NVIC_PriorityGroup_0 is selected, IRQ pre-emption is no more possible.
  *         The pending IRQ priority will be managed only by the subpriority.
  * @retval None
  */
void HAL_NVIC_SetPriorityGrouping(uint32_t PriorityGroup)
{
24101274:	b580      	push	{r7, lr}
24101276:	b082      	sub	sp, #8
24101278:	af00      	add	r7, sp, #0
2410127a:	6078      	str	r0, [r7, #4]
  /* Check the parameters */
  assert_param(IS_NVIC_PRIORITY_GROUP(PriorityGroup));

  /* Set the PRIGROUP[10:8] bits according to the PriorityGroup parameter value */
  NVIC_SetPriorityGrouping(PriorityGroup);
2410127c:	6878      	ldr	r0, [r7, #4]
2410127e:	f7ff ff47 	bl	24101110 <__NVIC_SetPriorityGrouping>
}
24101282:	bf00      	nop
24101284:	3708      	adds	r7, #8
24101286:	46bd      	mov	sp, r7
24101288:	bd80      	pop	{r7, pc}

2410128a <HAL_NVIC_SetPriority>:
  *         This parameter can be a value between 0 and 15
  *         A lower priority value indicates a higher priority.
  * @retval None
  */
void HAL_NVIC_SetPriority(IRQn_Type IRQn, uint32_t PreemptPriority, uint32_t SubPriority)
{
2410128a:	b580      	push	{r7, lr}
2410128c:	b086      	sub	sp, #24
2410128e:	af00      	add	r7, sp, #0
24101290:	4603      	mov	r3, r0
24101292:	60b9      	str	r1, [r7, #8]
24101294:	607a      	str	r2, [r7, #4]
24101296:	81fb      	strh	r3, [r7, #14]
  uint32_t prioritygroup;

  /* Check the parameters */
  assert_param(IS_NVIC_PRIORITY_INTERRUPT(IRQn));

  prioritygroup = (NVIC_GetPriorityGrouping() & 0x7U);
24101298:	f7ff ff5e 	bl	24101158 <__NVIC_GetPriorityGrouping>
2410129c:	4603      	mov	r3, r0
2410129e:	f003 0307 	and.w	r3, r3, #7
241012a2:	617b      	str	r3, [r7, #20]
  assert_param(IS_NVIC_SUB_PRIORITY(SubPriority, prioritygroup));
  assert_param(IS_NVIC_PREEMPTION_PRIORITY(PreemptPriority, prioritygroup));

  NVIC_SetPriority(IRQn, NVIC_EncodePriority(prioritygroup, PreemptPriority, SubPriority));
241012a4:	687a      	ldr	r2, [r7, #4]
241012a6:	68b9      	ldr	r1, [r7, #8]
241012a8:	6978      	ldr	r0, [r7, #20]
241012aa:	f7ff ff8d 	bl	241011c8 <NVIC_EncodePriority>
241012ae:	4602      	mov	r2, r0
241012b0:	f9b7 300e 	ldrsh.w	r3, [r7, #14]
241012b4:	4611      	mov	r1, r2
241012b6:	4618      	mov	r0, r3
241012b8:	f7ff ff5c 	bl	24101174 <__NVIC_SetPriority>
}
241012bc:	bf00      	nop
241012be:	3718      	adds	r7, #24
241012c0:	46bd      	mov	sp, r7
241012c2:	bd80      	pop	{r7, pc}

241012c4 <HAL_SYSTICK_Config>:
  * @param  TicksNumb Specifies the ticks Number of ticks between two interrupts.
  * @retval status:  - 0  Function succeeded.
  *                  - 1  Function failed.
  */
uint32_t HAL_SYSTICK_Config(uint32_t TicksNumb)
{
241012c4:	b580      	push	{r7, lr}
241012c6:	b082      	sub	sp, #8
241012c8:	af00      	add	r7, sp, #0
241012ca:	6078      	str	r0, [r7, #4]
  return SysTick_Config(TicksNumb);
241012cc:	6878      	ldr	r0, [r7, #4]
241012ce:	f7ff ffaf 	bl	24101230 <SysTick_Config>
241012d2:	4603      	mov	r3, r0
}
241012d4:	4618      	mov	r0, r3
241012d6:	3708      	adds	r7, #8
241012d8:	46bd      	mov	sp, r7
241012da:	bd80      	pop	{r7, pc}

241012dc <HAL_GPIO_Init>:
  * @param  GPIO_Init pointer to a GPIO_InitTypeDef structure that contains
  *         the configuration information for the specified GPIO peripheral.
  * @retval None
  */
void HAL_GPIO_Init(GPIO_TypeDef  *GPIOx, const GPIO_InitTypeDef *GPIO_Init)
{
241012dc:	b480      	push	{r7}
241012de:	b087      	sub	sp, #28
241012e0:	af00      	add	r7, sp, #0
241012e2:	6078      	str	r0, [r7, #4]
241012e4:	6039      	str	r1, [r7, #0]
  uint32_t position = 0x00u;
241012e6:	2300      	movs	r3, #0
241012e8:	617b      	str	r3, [r7, #20]
  assert_param(IS_GPIO_ALL_INSTANCE(GPIOx));
  assert_param(IS_GPIO_PIN(GPIO_Init->Pin));
  assert_param(IS_GPIO_MODE(GPIO_Init->Mode));

  /* Configure the port pins */
  while (((GPIO_Init->Pin) >> position) != 0x00u)
241012ea:	e180      	b.n	241015ee <HAL_GPIO_Init+0x312>
  {
    /* Get current io position */
    iocurrent = (GPIO_Init->Pin) & (1uL << position);
241012ec:	683b      	ldr	r3, [r7, #0]
241012ee:	681a      	ldr	r2, [r3, #0]
241012f0:	2101      	movs	r1, #1
241012f2:	697b      	ldr	r3, [r7, #20]
241012f4:	fa01 f303 	lsl.w	r3, r1, r3
241012f8:	4013      	ands	r3, r2
241012fa:	60fb      	str	r3, [r7, #12]

    if (iocurrent != 0x00u)
241012fc:	68fb      	ldr	r3, [r7, #12]
241012fe:	2b00      	cmp	r3, #0
24101300:	f000 8172 	beq.w	241015e8 <HAL_GPIO_Init+0x30c>
    {
      /*--------------------- GPIO Mode Configuration ------------------------*/
      /* In case of Output or Alternate function mode selection */
      if (((GPIO_Init->Mode & GPIO_MODE) == MODE_OUTPUT) || ((GPIO_Init->Mode & GPIO_MODE) == MODE_AF))
24101304:	683b      	ldr	r3, [r7, #0]
24101306:	685b      	ldr	r3, [r3, #4]
24101308:	f003 0303 	and.w	r3, r3, #3
2410130c:	2b01      	cmp	r3, #1
2410130e:	d005      	beq.n	2410131c <HAL_GPIO_Init+0x40>
24101310:	683b      	ldr	r3, [r7, #0]
24101312:	685b      	ldr	r3, [r3, #4]
24101314:	f003 0303 	and.w	r3, r3, #3
24101318:	2b02      	cmp	r3, #2
2410131a:	d130      	bne.n	2410137e <HAL_GPIO_Init+0xa2>
      {
        /* Check the Speed parameter */
        assert_param(IS_GPIO_SPEED(GPIO_Init->Speed));

        /* Configure the IO Speed */
        temp = GPIOx->OSPEEDR;
2410131c:	687b      	ldr	r3, [r7, #4]
2410131e:	689b      	ldr	r3, [r3, #8]
24101320:	613b      	str	r3, [r7, #16]
        temp &= ~(GPIO_OSPEEDR_OSPEED0 << (position * GPIO_OSPEEDR_OSPEED1_Pos));
24101322:	697b      	ldr	r3, [r7, #20]
24101324:	005b      	lsls	r3, r3, #1
24101326:	2203      	movs	r2, #3
24101328:	fa02 f303 	lsl.w	r3, r2, r3
2410132c:	43db      	mvns	r3, r3
2410132e:	693a      	ldr	r2, [r7, #16]
24101330:	4013      	ands	r3, r2
24101332:	613b      	str	r3, [r7, #16]
        temp |= (GPIO_Init->Speed << (position * GPIO_OSPEEDR_OSPEED1_Pos));
24101334:	683b      	ldr	r3, [r7, #0]
24101336:	68da      	ldr	r2, [r3, #12]
24101338:	697b      	ldr	r3, [r7, #20]
2410133a:	005b      	lsls	r3, r3, #1
2410133c:	fa02 f303 	lsl.w	r3, r2, r3
24101340:	693a      	ldr	r2, [r7, #16]
24101342:	4313      	orrs	r3, r2
24101344:	613b      	str	r3, [r7, #16]
        GPIOx->OSPEEDR = temp;
24101346:	687b      	ldr	r3, [r7, #4]
24101348:	693a      	ldr	r2, [r7, #16]
2410134a:	609a      	str	r2, [r3, #8]

        /* Configure the IO Output Type */
        temp = GPIOx->OTYPER;
2410134c:	687b      	ldr	r3, [r7, #4]
2410134e:	685b      	ldr	r3, [r3, #4]
24101350:	613b      	str	r3, [r7, #16]
        temp &= ~(GPIO_OTYPER_OT0 << position) ;
24101352:	2201      	movs	r2, #1
24101354:	697b      	ldr	r3, [r7, #20]
24101356:	fa02 f303 	lsl.w	r3, r2, r3
2410135a:	43db      	mvns	r3, r3
2410135c:	693a      	ldr	r2, [r7, #16]
2410135e:	4013      	ands	r3, r2
24101360:	613b      	str	r3, [r7, #16]
        temp |= (((GPIO_Init->Mode & OUTPUT_TYPE) >> OUTPUT_TYPE_Pos) << position);
24101362:	683b      	ldr	r3, [r7, #0]
24101364:	685b      	ldr	r3, [r3, #4]
24101366:	091b      	lsrs	r3, r3, #4
24101368:	f003 0201 	and.w	r2, r3, #1
2410136c:	697b      	ldr	r3, [r7, #20]
2410136e:	fa02 f303 	lsl.w	r3, r2, r3
24101372:	693a      	ldr	r2, [r7, #16]
24101374:	4313      	orrs	r3, r2
24101376:	613b      	str	r3, [r7, #16]
        GPIOx->OTYPER = temp;
24101378:	687b      	ldr	r3, [r7, #4]
2410137a:	693a      	ldr	r2, [r7, #16]
2410137c:	605a      	str	r2, [r3, #4]
      }

      if (((GPIO_Init->Mode & GPIO_MODE) != MODE_ANALOG) ||
2410137e:	683b      	ldr	r3, [r7, #0]
24101380:	685b      	ldr	r3, [r3, #4]
24101382:	f003 0303 	and.w	r3, r3, #3
24101386:	2b03      	cmp	r3, #3
24101388:	d109      	bne.n	2410139e <HAL_GPIO_Init+0xc2>
          (((GPIO_Init->Mode & GPIO_MODE) == MODE_ANALOG) && (GPIO_Init->Pull != GPIO_PULLUP)))
2410138a:	683b      	ldr	r3, [r7, #0]
2410138c:	685b      	ldr	r3, [r3, #4]
2410138e:	f003 0303 	and.w	r3, r3, #3
      if (((GPIO_Init->Mode & GPIO_MODE) != MODE_ANALOG) ||
24101392:	2b03      	cmp	r3, #3
24101394:	d11b      	bne.n	241013ce <HAL_GPIO_Init+0xf2>
          (((GPIO_Init->Mode & GPIO_MODE) == MODE_ANALOG) && (GPIO_Init->Pull != GPIO_PULLUP)))
24101396:	683b      	ldr	r3, [r7, #0]
24101398:	689b      	ldr	r3, [r3, #8]
2410139a:	2b01      	cmp	r3, #1
2410139c:	d017      	beq.n	241013ce <HAL_GPIO_Init+0xf2>
      {
        /* Check the Pull parameter */
        assert_param(IS_GPIO_PULL(GPIO_Init->Pull));

        /* Activate the Pull-up or Pull down resistor for the current IO */
        temp = GPIOx->PUPDR;
2410139e:	687b      	ldr	r3, [r7, #4]
241013a0:	68db      	ldr	r3, [r3, #12]
241013a2:	613b      	str	r3, [r7, #16]
        temp &= ~(GPIO_PUPDR_PUPD0 << (position * GPIO_PUPDR_PUPD1_Pos));
241013a4:	697b      	ldr	r3, [r7, #20]
241013a6:	005b      	lsls	r3, r3, #1
241013a8:	2203      	movs	r2, #3
241013aa:	fa02 f303 	lsl.w	r3, r2, r3
241013ae:	43db      	mvns	r3, r3
241013b0:	693a      	ldr	r2, [r7, #16]
241013b2:	4013      	ands	r3, r2
241013b4:	613b      	str	r3, [r7, #16]
        temp |= ((GPIO_Init->Pull) << (position * GPIO_PUPDR_PUPD1_Pos));
241013b6:	683b      	ldr	r3, [r7, #0]
241013b8:	689a      	ldr	r2, [r3, #8]
241013ba:	697b      	ldr	r3, [r7, #20]
241013bc:	005b      	lsls	r3, r3, #1
241013be:	fa02 f303 	lsl.w	r3, r2, r3
241013c2:	693a      	ldr	r2, [r7, #16]
241013c4:	4313      	orrs	r3, r2
241013c6:	613b      	str	r3, [r7, #16]
        GPIOx->PUPDR = temp;
241013c8:	687b      	ldr	r3, [r7, #4]
241013ca:	693a      	ldr	r2, [r7, #16]
241013cc:	60da      	str	r2, [r3, #12]
      }

      /* In case of Alternate function mode selection */
      if ((GPIO_Init->Mode & GPIO_MODE) == MODE_AF)
241013ce:	683b      	ldr	r3, [r7, #0]
241013d0:	685b      	ldr	r3, [r3, #4]
241013d2:	f003 0303 	and.w	r3, r3, #3
241013d6:	2b02      	cmp	r3, #2
241013d8:	d123      	bne.n	24101422 <HAL_GPIO_Init+0x146>
        /* Check the Alternate function parameters */
        assert_param(IS_GPIO_AF_INSTANCE(GPIOx));
        assert_param(IS_GPIO_AF(GPIO_Init->Alternate));

        /* Configure Alternate function mapped with the current IO */
        temp = GPIOx->AFR[position >> 3u];
241013da:	697b      	ldr	r3, [r7, #20]
241013dc:	08da      	lsrs	r2, r3, #3
241013de:	687b      	ldr	r3, [r7, #4]
241013e0:	3208      	adds	r2, #8
241013e2:	f853 3022 	ldr.w	r3, [r3, r2, lsl #2]
241013e6:	613b      	str	r3, [r7, #16]
        temp &= ~(0xFu << ((position & 0x07u) * GPIO_AFRL_AFSEL1_Pos));
241013e8:	697b      	ldr	r3, [r7, #20]
241013ea:	f003 0307 	and.w	r3, r3, #7
241013ee:	009b      	lsls	r3, r3, #2
241013f0:	220f      	movs	r2, #15
241013f2:	fa02 f303 	lsl.w	r3, r2, r3
241013f6:	43db      	mvns	r3, r3
241013f8:	693a      	ldr	r2, [r7, #16]
241013fa:	4013      	ands	r3, r2
241013fc:	613b      	str	r3, [r7, #16]
        temp |= ((GPIO_Init->Alternate) << ((position & 0x07u) * GPIO_AFRL_AFSEL1_Pos));
241013fe:	683b      	ldr	r3, [r7, #0]
24101400:	691a      	ldr	r2, [r3, #16]
24101402:	697b      	ldr	r3, [r7, #20]
24101404:	f003 0307 	and.w	r3, r3, #7
24101408:	009b      	lsls	r3, r3, #2
2410140a:	fa02 f303 	lsl.w	r3, r2, r3
2410140e:	693a      	ldr	r2, [r7, #16]
24101410:	4313      	orrs	r3, r2
24101412:	613b      	str	r3, [r7, #16]
        GPIOx->AFR[position >> 3u] = temp;
24101414:	697b      	ldr	r3, [r7, #20]
24101416:	08da      	lsrs	r2, r3, #3
24101418:	687b      	ldr	r3, [r7, #4]
2410141a:	3208      	adds	r2, #8
2410141c:	6939      	ldr	r1, [r7, #16]
2410141e:	f843 1022 	str.w	r1, [r3, r2, lsl #2]
      }

      /* Configure IO Direction mode (Input, Output, Alternate or Analog) */
      temp = GPIOx->MODER;
24101422:	687b      	ldr	r3, [r7, #4]
24101424:	681b      	ldr	r3, [r3, #0]
24101426:	613b      	str	r3, [r7, #16]
      temp &= ~(GPIO_MODER_MODE0 << (position * GPIO_MODER_MODE1_Pos));
24101428:	697b      	ldr	r3, [r7, #20]
2410142a:	005b      	lsls	r3, r3, #1
2410142c:	2203      	movs	r2, #3
2410142e:	fa02 f303 	lsl.w	r3, r2, r3
24101432:	43db      	mvns	r3, r3
24101434:	693a      	ldr	r2, [r7, #16]
24101436:	4013      	ands	r3, r2
24101438:	613b      	str	r3, [r7, #16]
      temp |= ((GPIO_Init->Mode & GPIO_MODE) << (position * GPIO_MODER_MODE1_Pos));
2410143a:	683b      	ldr	r3, [r7, #0]
2410143c:	685b      	ldr	r3, [r3, #4]
2410143e:	f003 0203 	and.w	r2, r3, #3
24101442:	697b      	ldr	r3, [r7, #20]
24101444:	005b      	lsls	r3, r3, #1
24101446:	fa02 f303 	lsl.w	r3, r2, r3
2410144a:	693a      	ldr	r2, [r7, #16]
2410144c:	4313      	orrs	r3, r2
2410144e:	613b      	str	r3, [r7, #16]
      GPIOx->MODER = temp;
24101450:	687b      	ldr	r3, [r7, #4]
24101452:	693a      	ldr	r2, [r7, #16]
24101454:	601a      	str	r2, [r3, #0]

      /*--------------------- EXTI Mode Configuration ------------------------*/
      /* Configure the External Interrupt or event for the current IO */
      if ((GPIO_Init->Mode & EXTI_MODE) != 0x00u)
24101456:	683b      	ldr	r3, [r7, #0]
24101458:	685b      	ldr	r3, [r3, #4]
2410145a:	f403 3340 	and.w	r3, r3, #196608	@ 0x30000
2410145e:	2b00      	cmp	r3, #0
24101460:	f000 80c2 	beq.w	241015e8 <HAL_GPIO_Init+0x30c>
      {
        temp = EXTI->EXTICR[position >> 2u];
24101464:	4a69      	ldr	r2, [pc, #420]	@ (2410160c <HAL_GPIO_Init+0x330>)
24101466:	697b      	ldr	r3, [r7, #20]
24101468:	089b      	lsrs	r3, r3, #2
2410146a:	3318      	adds	r3, #24
2410146c:	f852 3023 	ldr.w	r3, [r2, r3, lsl #2]
24101470:	613b      	str	r3, [r7, #16]
        temp &= ~(0x0FuL << ((position & 0x03u) * EXTI_EXTICR1_EXTI1_Pos));
24101472:	697b      	ldr	r3, [r7, #20]
24101474:	f003 0303 	and.w	r3, r3, #3
24101478:	00db      	lsls	r3, r3, #3
2410147a:	220f      	movs	r2, #15
2410147c:	fa02 f303 	lsl.w	r3, r2, r3
24101480:	43db      	mvns	r3, r3
24101482:	693a      	ldr	r2, [r7, #16]
24101484:	4013      	ands	r3, r2
24101486:	613b      	str	r3, [r7, #16]
        temp |= (GPIO_GET_INDEX(GPIOx) << ((position & 0x03u) * EXTI_EXTICR1_EXTI1_Pos));
24101488:	687b      	ldr	r3, [r7, #4]
2410148a:	4a61      	ldr	r2, [pc, #388]	@ (24101610 <HAL_GPIO_Init+0x334>)
2410148c:	4293      	cmp	r3, r2
2410148e:	d043      	beq.n	24101518 <HAL_GPIO_Init+0x23c>
24101490:	687b      	ldr	r3, [r7, #4]
24101492:	4a60      	ldr	r2, [pc, #384]	@ (24101614 <HAL_GPIO_Init+0x338>)
24101494:	4293      	cmp	r3, r2
24101496:	d03d      	beq.n	24101514 <HAL_GPIO_Init+0x238>
24101498:	687b      	ldr	r3, [r7, #4]
2410149a:	4a5f      	ldr	r2, [pc, #380]	@ (24101618 <HAL_GPIO_Init+0x33c>)
2410149c:	4293      	cmp	r3, r2
2410149e:	d037      	beq.n	24101510 <HAL_GPIO_Init+0x234>
241014a0:	687b      	ldr	r3, [r7, #4]
241014a2:	4a5e      	ldr	r2, [pc, #376]	@ (2410161c <HAL_GPIO_Init+0x340>)
241014a4:	4293      	cmp	r3, r2
241014a6:	d031      	beq.n	2410150c <HAL_GPIO_Init+0x230>
241014a8:	687b      	ldr	r3, [r7, #4]
241014aa:	4a5d      	ldr	r2, [pc, #372]	@ (24101620 <HAL_GPIO_Init+0x344>)
241014ac:	4293      	cmp	r3, r2
241014ae:	d02b      	beq.n	24101508 <HAL_GPIO_Init+0x22c>
241014b0:	687b      	ldr	r3, [r7, #4]
241014b2:	4a5c      	ldr	r2, [pc, #368]	@ (24101624 <HAL_GPIO_Init+0x348>)
241014b4:	4293      	cmp	r3, r2
241014b6:	d025      	beq.n	24101504 <HAL_GPIO_Init+0x228>
241014b8:	687b      	ldr	r3, [r7, #4]
241014ba:	4a5b      	ldr	r2, [pc, #364]	@ (24101628 <HAL_GPIO_Init+0x34c>)
241014bc:	4293      	cmp	r3, r2
241014be:	d01f      	beq.n	24101500 <HAL_GPIO_Init+0x224>
241014c0:	687b      	ldr	r3, [r7, #4]
241014c2:	4a5a      	ldr	r2, [pc, #360]	@ (2410162c <HAL_GPIO_Init+0x350>)
241014c4:	4293      	cmp	r3, r2
241014c6:	d019      	beq.n	241014fc <HAL_GPIO_Init+0x220>
241014c8:	687b      	ldr	r3, [r7, #4]
241014ca:	4a59      	ldr	r2, [pc, #356]	@ (24101630 <HAL_GPIO_Init+0x354>)
241014cc:	4293      	cmp	r3, r2
241014ce:	d013      	beq.n	241014f8 <HAL_GPIO_Init+0x21c>
241014d0:	687b      	ldr	r3, [r7, #4]
241014d2:	4a58      	ldr	r2, [pc, #352]	@ (24101634 <HAL_GPIO_Init+0x358>)
241014d4:	4293      	cmp	r3, r2
241014d6:	d00d      	beq.n	241014f4 <HAL_GPIO_Init+0x218>
241014d8:	687b      	ldr	r3, [r7, #4]
241014da:	4a57      	ldr	r2, [pc, #348]	@ (24101638 <HAL_GPIO_Init+0x35c>)
241014dc:	4293      	cmp	r3, r2
241014de:	d007      	beq.n	241014f0 <HAL_GPIO_Init+0x214>
241014e0:	687b      	ldr	r3, [r7, #4]
241014e2:	4a56      	ldr	r2, [pc, #344]	@ (2410163c <HAL_GPIO_Init+0x360>)
241014e4:	4293      	cmp	r3, r2
241014e6:	d101      	bne.n	241014ec <HAL_GPIO_Init+0x210>
241014e8:	230b      	movs	r3, #11
241014ea:	e016      	b.n	2410151a <HAL_GPIO_Init+0x23e>
241014ec:	2310      	movs	r3, #16
241014ee:	e014      	b.n	2410151a <HAL_GPIO_Init+0x23e>
241014f0:	230a      	movs	r3, #10
241014f2:	e012      	b.n	2410151a <HAL_GPIO_Init+0x23e>
241014f4:	2309      	movs	r3, #9
241014f6:	e010      	b.n	2410151a <HAL_GPIO_Init+0x23e>
241014f8:	2308      	movs	r3, #8
241014fa:	e00e      	b.n	2410151a <HAL_GPIO_Init+0x23e>
241014fc:	2307      	movs	r3, #7
241014fe:	e00c      	b.n	2410151a <HAL_GPIO_Init+0x23e>
24101500:	2306      	movs	r3, #6
24101502:	e00a      	b.n	2410151a <HAL_GPIO_Init+0x23e>
24101504:	2305      	movs	r3, #5
24101506:	e008      	b.n	2410151a <HAL_GPIO_Init+0x23e>
24101508:	2304      	movs	r3, #4
2410150a:	e006      	b.n	2410151a <HAL_GPIO_Init+0x23e>
2410150c:	2303      	movs	r3, #3
2410150e:	e004      	b.n	2410151a <HAL_GPIO_Init+0x23e>
24101510:	2302      	movs	r3, #2
24101512:	e002      	b.n	2410151a <HAL_GPIO_Init+0x23e>
24101514:	2301      	movs	r3, #1
24101516:	e000      	b.n	2410151a <HAL_GPIO_Init+0x23e>
24101518:	2300      	movs	r3, #0
2410151a:	697a      	ldr	r2, [r7, #20]
2410151c:	f002 0203 	and.w	r2, r2, #3
24101520:	00d2      	lsls	r2, r2, #3
24101522:	4093      	lsls	r3, r2
24101524:	693a      	ldr	r2, [r7, #16]
24101526:	4313      	orrs	r3, r2
24101528:	613b      	str	r3, [r7, #16]
        EXTI->EXTICR[position >> 2u] = temp;
2410152a:	4938      	ldr	r1, [pc, #224]	@ (2410160c <HAL_GPIO_Init+0x330>)
2410152c:	697b      	ldr	r3, [r7, #20]
2410152e:	089b      	lsrs	r3, r3, #2
24101530:	3318      	adds	r3, #24
24101532:	693a      	ldr	r2, [r7, #16]
24101534:	f841 2023 	str.w	r2, [r1, r3, lsl #2]

        /* Clear EXTI line configuration */
        temp = EXTI->IMR1;
24101538:	4b34      	ldr	r3, [pc, #208]	@ (2410160c <HAL_GPIO_Init+0x330>)
2410153a:	f8d3 3080 	ldr.w	r3, [r3, #128]	@ 0x80
2410153e:	613b      	str	r3, [r7, #16]
        temp &= ~(iocurrent);
24101540:	68fb      	ldr	r3, [r7, #12]
24101542:	43db      	mvns	r3, r3
24101544:	693a      	ldr	r2, [r7, #16]
24101546:	4013      	ands	r3, r2
24101548:	613b      	str	r3, [r7, #16]
        if ((GPIO_Init->Mode & EXTI_IT) != 0x00u)
2410154a:	683b      	ldr	r3, [r7, #0]
2410154c:	685b      	ldr	r3, [r3, #4]
2410154e:	f403 3380 	and.w	r3, r3, #65536	@ 0x10000
24101552:	2b00      	cmp	r3, #0
24101554:	d003      	beq.n	2410155e <HAL_GPIO_Init+0x282>
        {
          temp |= iocurrent;
24101556:	693a      	ldr	r2, [r7, #16]
24101558:	68fb      	ldr	r3, [r7, #12]
2410155a:	4313      	orrs	r3, r2
2410155c:	613b      	str	r3, [r7, #16]
        }
        EXTI->IMR1 = temp;
2410155e:	4a2b      	ldr	r2, [pc, #172]	@ (2410160c <HAL_GPIO_Init+0x330>)
24101560:	693b      	ldr	r3, [r7, #16]
24101562:	f8c2 3080 	str.w	r3, [r2, #128]	@ 0x80

        temp = EXTI->EMR1;
24101566:	4b29      	ldr	r3, [pc, #164]	@ (2410160c <HAL_GPIO_Init+0x330>)
24101568:	f8d3 3084 	ldr.w	r3, [r3, #132]	@ 0x84
2410156c:	613b      	str	r3, [r7, #16]
        temp &= ~(iocurrent);
2410156e:	68fb      	ldr	r3, [r7, #12]
24101570:	43db      	mvns	r3, r3
24101572:	693a      	ldr	r2, [r7, #16]
24101574:	4013      	ands	r3, r2
24101576:	613b      	str	r3, [r7, #16]
        if ((GPIO_Init->Mode & EXTI_EVT) != 0x00u)
24101578:	683b      	ldr	r3, [r7, #0]
2410157a:	685b      	ldr	r3, [r3, #4]
2410157c:	f403 3300 	and.w	r3, r3, #131072	@ 0x20000
24101580:	2b00      	cmp	r3, #0
24101582:	d003      	beq.n	2410158c <HAL_GPIO_Init+0x2b0>
        {
          temp |= iocurrent;
24101584:	693a      	ldr	r2, [r7, #16]
24101586:	68fb      	ldr	r3, [r7, #12]
24101588:	4313      	orrs	r3, r2
2410158a:	613b      	str	r3, [r7, #16]
        }
        EXTI->EMR1 = temp;
2410158c:	4a1f      	ldr	r2, [pc, #124]	@ (2410160c <HAL_GPIO_Init+0x330>)
2410158e:	693b      	ldr	r3, [r7, #16]
24101590:	f8c2 3084 	str.w	r3, [r2, #132]	@ 0x84

        /* Clear Rising Falling edge configuration */
        temp = EXTI->RTSR1;
24101594:	4b1d      	ldr	r3, [pc, #116]	@ (2410160c <HAL_GPIO_Init+0x330>)
24101596:	681b      	ldr	r3, [r3, #0]
24101598:	613b      	str	r3, [r7, #16]
        temp &= ~(iocurrent);
2410159a:	68fb      	ldr	r3, [r7, #12]
2410159c:	43db      	mvns	r3, r3
2410159e:	693a      	ldr	r2, [r7, #16]
241015a0:	4013      	ands	r3, r2
241015a2:	613b      	str	r3, [r7, #16]
        if ((GPIO_Init->Mode & TRIGGER_RISING) != 0x00u)
241015a4:	683b      	ldr	r3, [r7, #0]
241015a6:	685b      	ldr	r3, [r3, #4]
241015a8:	f403 1380 	and.w	r3, r3, #1048576	@ 0x100000
241015ac:	2b00      	cmp	r3, #0
241015ae:	d003      	beq.n	241015b8 <HAL_GPIO_Init+0x2dc>
        {
          temp |= iocurrent;
241015b0:	693a      	ldr	r2, [r7, #16]
241015b2:	68fb      	ldr	r3, [r7, #12]
241015b4:	4313      	orrs	r3, r2
241015b6:	613b      	str	r3, [r7, #16]
        }
        EXTI->RTSR1 = temp;
241015b8:	4a14      	ldr	r2, [pc, #80]	@ (2410160c <HAL_GPIO_Init+0x330>)
241015ba:	693b      	ldr	r3, [r7, #16]
241015bc:	6013      	str	r3, [r2, #0]

        temp = EXTI->FTSR1;
241015be:	4b13      	ldr	r3, [pc, #76]	@ (2410160c <HAL_GPIO_Init+0x330>)
241015c0:	685b      	ldr	r3, [r3, #4]
241015c2:	613b      	str	r3, [r7, #16]
        temp &= ~(iocurrent);
241015c4:	68fb      	ldr	r3, [r7, #12]
241015c6:	43db      	mvns	r3, r3
241015c8:	693a      	ldr	r2, [r7, #16]
241015ca:	4013      	ands	r3, r2
241015cc:	613b      	str	r3, [r7, #16]
        if ((GPIO_Init->Mode & TRIGGER_FALLING) != 0x00u)
241015ce:	683b      	ldr	r3, [r7, #0]
241015d0:	685b      	ldr	r3, [r3, #4]
241015d2:	f403 1300 	and.w	r3, r3, #2097152	@ 0x200000
241015d6:	2b00      	cmp	r3, #0
241015d8:	d003      	beq.n	241015e2 <HAL_GPIO_Init+0x306>
        {
          temp |= iocurrent;
241015da:	693a      	ldr	r2, [r7, #16]
241015dc:	68fb      	ldr	r3, [r7, #12]
241015de:	4313      	orrs	r3, r2
241015e0:	613b      	str	r3, [r7, #16]
        }
        EXTI->FTSR1 = temp;
241015e2:	4a0a      	ldr	r2, [pc, #40]	@ (2410160c <HAL_GPIO_Init+0x330>)
241015e4:	693b      	ldr	r3, [r7, #16]
241015e6:	6053      	str	r3, [r2, #4]
      }
    }

    position++;
241015e8:	697b      	ldr	r3, [r7, #20]
241015ea:	3301      	adds	r3, #1
241015ec:	617b      	str	r3, [r7, #20]
  while (((GPIO_Init->Pin) >> position) != 0x00u)
241015ee:	683b      	ldr	r3, [r7, #0]
241015f0:	681a      	ldr	r2, [r3, #0]
241015f2:	697b      	ldr	r3, [r7, #20]
241015f4:	fa22 f303 	lsr.w	r3, r2, r3
241015f8:	2b00      	cmp	r3, #0
241015fa:	f47f ae77 	bne.w	241012ec <HAL_GPIO_Init+0x10>
  }
}
241015fe:	bf00      	nop
24101600:	bf00      	nop
24101602:	371c      	adds	r7, #28
24101604:	46bd      	mov	sp, r7
24101606:	f85d 7b04 	ldr.w	r7, [sp], #4
2410160a:	4770      	bx	lr
2410160c:	46025000 	.word	0x46025000
24101610:	46020000 	.word	0x46020000
24101614:	46020400 	.word	0x46020400
24101618:	46020800 	.word	0x46020800
2410161c:	46020c00 	.word	0x46020c00
24101620:	46021000 	.word	0x46021000
24101624:	46021400 	.word	0x46021400
24101628:	46021800 	.word	0x46021800
2410162c:	46021c00 	.word	0x46021c00
24101630:	46023400 	.word	0x46023400
24101634:	46023800 	.word	0x46023800
24101638:	46023c00 	.word	0x46023c00
2410163c:	46024000 	.word	0x46024000

24101640 <HAL_GPIO_WritePin>:
  *            @arg GPIO_PIN_RESET: to clear the port pin
  *            @arg GPIO_PIN_SET: to set the port pin
  * @retval None
  */
void HAL_GPIO_WritePin(GPIO_TypeDef *GPIOx, uint16_t GPIO_Pin, GPIO_PinState PinState)
{
24101640:	b480      	push	{r7}
24101642:	b083      	sub	sp, #12
24101644:	af00      	add	r7, sp, #0
24101646:	6078      	str	r0, [r7, #4]
24101648:	460b      	mov	r3, r1
2410164a:	807b      	strh	r3, [r7, #2]
2410164c:	4613      	mov	r3, r2
2410164e:	707b      	strb	r3, [r7, #1]
  /* Check the parameters */
  assert_param(IS_GPIO_PIN(GPIO_Pin));
  assert_param(IS_GPIO_PIN_ACTION(PinState));

  if (PinState != GPIO_PIN_RESET)
24101650:	787b      	ldrb	r3, [r7, #1]
24101652:	2b00      	cmp	r3, #0
24101654:	d003      	beq.n	2410165e <HAL_GPIO_WritePin+0x1e>
  {
    GPIOx->BSRR = (uint32_t)GPIO_Pin;
24101656:	887a      	ldrh	r2, [r7, #2]
24101658:	687b      	ldr	r3, [r7, #4]
2410165a:	619a      	str	r2, [r3, #24]
  }
  else
  {
    GPIOx->BRR = (uint32_t)GPIO_Pin;
  }
}
2410165c:	e002      	b.n	24101664 <HAL_GPIO_WritePin+0x24>
    GPIOx->BRR = (uint32_t)GPIO_Pin;
2410165e:	887a      	ldrh	r2, [r7, #2]
24101660:	687b      	ldr	r3, [r7, #4]
24101662:	629a      	str	r2, [r3, #40]	@ 0x28
}
24101664:	bf00      	nop
24101666:	370c      	adds	r7, #12
24101668:	46bd      	mov	sp, r7
2410166a:	f85d 7b04 	ldr.w	r7, [sp], #4
2410166e:	4770      	bx	lr

24101670 <HAL_PWREx_EnableVddIO2>:
  * @brief  Enable VDDIO2 supply valid.
  * @note   Setting this bit is mandatory to use PO[5:0] and PP[15:0] I/Os.
  * @retval None.
  */
void HAL_PWREx_EnableVddIO2(void)
{
24101670:	b480      	push	{r7}
24101672:	af00      	add	r7, sp, #0
  SET_BIT(PWR->SVMCR3, PWR_SVMCR3_VDDIO2SV);
24101674:	4b05      	ldr	r3, [pc, #20]	@ (2410168c <HAL_PWREx_EnableVddIO2+0x1c>)
24101676:	6bdb      	ldr	r3, [r3, #60]	@ 0x3c
24101678:	4a04      	ldr	r2, [pc, #16]	@ (2410168c <HAL_PWREx_EnableVddIO2+0x1c>)
2410167a:	f443 7380 	orr.w	r3, r3, #256	@ 0x100
2410167e:	63d3      	str	r3, [r2, #60]	@ 0x3c
}
24101680:	bf00      	nop
24101682:	46bd      	mov	sp, r7
24101684:	f85d 7b04 	ldr.w	r7, [sp], #4
24101688:	4770      	bx	lr
2410168a:	bf00      	nop
2410168c:	46024800 	.word	0x46024800

24101690 <HAL_PWREx_EnableVddIO3>:
  * @brief  Enable VDDIO3 supply valid.
  * @note   Setting this bit is mandatory to use PN[12:0] I/Os.
  * @retval None.
  */
void HAL_PWREx_EnableVddIO3(void)
{
24101690:	b480      	push	{r7}
24101692:	af00      	add	r7, sp, #0
  SET_BIT(PWR->SVMCR3, PWR_SVMCR3_VDDIO3SV);
24101694:	4b05      	ldr	r3, [pc, #20]	@ (241016ac <HAL_PWREx_EnableVddIO3+0x1c>)
24101696:	6bdb      	ldr	r3, [r3, #60]	@ 0x3c
24101698:	4a04      	ldr	r2, [pc, #16]	@ (241016ac <HAL_PWREx_EnableVddIO3+0x1c>)
2410169a:	f443 7300 	orr.w	r3, r3, #512	@ 0x200
2410169e:	63d3      	str	r3, [r2, #60]	@ 0x3c
}
241016a0:	bf00      	nop
241016a2:	46bd      	mov	sp, r7
241016a4:	f85d 7b04 	ldr.w	r7, [sp], #4
241016a8:	4770      	bx	lr
241016aa:	bf00      	nop
241016ac:	46024800 	.word	0x46024800

241016b0 <HAL_PWREx_EnableVddIO4>:
  * @brief  Enable VDDIO4 supply valid.
  * @note   Setting this bit is mandatory to use PB[9,8], PC[12:6], and PD[2] I/Os.
  * @retval None.
  */
void HAL_PWREx_EnableVddIO4(void)
{
241016b0:	b480      	push	{r7}
241016b2:	af00      	add	r7, sp, #0
  SET_BIT(PWR->SVMCR1, PWR_SVMCR1_VDDIO4SV);
241016b4:	4b05      	ldr	r3, [pc, #20]	@ (241016cc <HAL_PWREx_EnableVddIO4+0x1c>)
241016b6:	6b5b      	ldr	r3, [r3, #52]	@ 0x34
241016b8:	4a04      	ldr	r2, [pc, #16]	@ (241016cc <HAL_PWREx_EnableVddIO4+0x1c>)
241016ba:	f443 7380 	orr.w	r3, r3, #256	@ 0x100
241016be:	6353      	str	r3, [r2, #52]	@ 0x34
}
241016c0:	bf00      	nop
241016c2:	46bd      	mov	sp, r7
241016c4:	f85d 7b04 	ldr.w	r7, [sp], #4
241016c8:	4770      	bx	lr
241016ca:	bf00      	nop
241016cc:	46024800 	.word	0x46024800

241016d0 <HAL_PWREx_EnableVddIO5>:
  * @brief  Enable VDDIO5 supply valid.
  * @note   Setting this bit is mandatory to use PN[12:0] I/Os.
  * @retval None.
  */
void HAL_PWREx_EnableVddIO5(void)
{
241016d0:	b480      	push	{r7}
241016d2:	af00      	add	r7, sp, #0
  SET_BIT(PWR->SVMCR2, PWR_SVMCR2_VDDIO5SV);
241016d4:	4b05      	ldr	r3, [pc, #20]	@ (241016ec <HAL_PWREx_EnableVddIO5+0x1c>)
241016d6:	6b9b      	ldr	r3, [r3, #56]	@ 0x38
241016d8:	4a04      	ldr	r2, [pc, #16]	@ (241016ec <HAL_PWREx_EnableVddIO5+0x1c>)
241016da:	f443 7380 	orr.w	r3, r3, #256	@ 0x100
241016de:	6393      	str	r3, [r2, #56]	@ 0x38
}
241016e0:	bf00      	nop
241016e2:	46bd      	mov	sp, r7
241016e4:	f85d 7b04 	ldr.w	r7, [sp], #4
241016e8:	4770      	bx	lr
241016ea:	bf00      	nop
241016ec:	46024800 	.word	0x46024800

241016f0 <LL_RCC_HSI_GetDivider>:
  *         @arg @ref LL_RCC_HSI_DIV_2
  *         @arg @ref LL_RCC_HSI_DIV_4
  *         @arg @ref LL_RCC_HSI_DIV_8
  */
__STATIC_INLINE uint32_t LL_RCC_HSI_GetDivider(void)
{
241016f0:	b480      	push	{r7}
241016f2:	af00      	add	r7, sp, #0
  return (READ_BIT(RCC->HSICFGR, RCC_HSICFGR_HSIDIV));
241016f4:	4b04      	ldr	r3, [pc, #16]	@ (24101708 <LL_RCC_HSI_GetDivider+0x18>)
241016f6:	6c9b      	ldr	r3, [r3, #72]	@ 0x48
241016f8:	f403 73c0 	and.w	r3, r3, #384	@ 0x180
}
241016fc:	4618      	mov	r0, r3
241016fe:	46bd      	mov	sp, r7
24101700:	f85d 7b04 	ldr.w	r7, [sp], #4
24101704:	4770      	bx	lr
24101706:	bf00      	nop
24101708:	46028000 	.word	0x46028000

2410170c <LL_RCC_GetSysClkSource>:
  *         @arg @ref LL_RCC_SYS_CLKSOURCE_STATUS_MSI
  *         @arg @ref LL_RCC_SYS_CLKSOURCE_STATUS_HSE
  *         @arg @ref LL_RCC_SYS_CLKSOURCE_STATUS_IC2_IC6_IC11
  */
__STATIC_INLINE uint32_t LL_RCC_GetSysClkSource(void)
{
2410170c:	b480      	push	{r7}
2410170e:	af00      	add	r7, sp, #0
  return (uint32_t)(READ_BIT(RCC->CFGR1, RCC_CFGR1_SYSSWS));
24101710:	4b04      	ldr	r3, [pc, #16]	@ (24101724 <LL_RCC_GetSysClkSource+0x18>)
24101712:	6a1b      	ldr	r3, [r3, #32]
24101714:	f003 5340 	and.w	r3, r3, #805306368	@ 0x30000000
}
24101718:	4618      	mov	r0, r3
2410171a:	46bd      	mov	sp, r7
2410171c:	f85d 7b04 	ldr.w	r7, [sp], #4
24101720:	4770      	bx	lr
24101722:	bf00      	nop
24101724:	46028000 	.word	0x46028000

24101728 <LL_RCC_IC2_GetSource>:
  *         @arg @ref LL_RCC_ICCLKSOURCE_PLL2
  *         @arg @ref LL_RCC_ICCLKSOURCE_PLL3
  *         @arg @ref LL_RCC_ICCLKSOURCE_PLL4
  */
__STATIC_INLINE uint32_t LL_RCC_IC2_GetSource(void)
{
24101728:	b480      	push	{r7}
2410172a:	af00      	add	r7, sp, #0
  return (uint32_t)(READ_BIT(RCC->IC2CFGR, RCC_IC2CFGR_IC2SEL));
2410172c:	4b04      	ldr	r3, [pc, #16]	@ (24101740 <LL_RCC_IC2_GetSource+0x18>)
2410172e:	f8d3 30c8 	ldr.w	r3, [r3, #200]	@ 0xc8
24101732:	f003 5340 	and.w	r3, r3, #805306368	@ 0x30000000
}
24101736:	4618      	mov	r0, r3
24101738:	46bd      	mov	sp, r7
2410173a:	f85d 7b04 	ldr.w	r7, [sp], #4
2410173e:	4770      	bx	lr
24101740:	46028000 	.word	0x46028000

24101744 <LL_RCC_IC2_GetDivider>:
  * @brief  Get IC2 divider
  * @rmtoll IC2CFGR      IC2INT        LL_RCC_IC2_GetDivider
  * @retval can be a value between 1 and 256.
  */
__STATIC_INLINE uint32_t LL_RCC_IC2_GetDivider(void)
{
24101744:	b480      	push	{r7}
24101746:	af00      	add	r7, sp, #0
  return ((READ_BIT(RCC->IC2CFGR, RCC_IC2CFGR_IC2INT) >> RCC_IC2CFGR_IC2INT_Pos) + 1UL);
24101748:	4b05      	ldr	r3, [pc, #20]	@ (24101760 <LL_RCC_IC2_GetDivider+0x1c>)
2410174a:	f8d3 30c8 	ldr.w	r3, [r3, #200]	@ 0xc8
2410174e:	0c1b      	lsrs	r3, r3, #16
24101750:	b2db      	uxtb	r3, r3
24101752:	3301      	adds	r3, #1
}
24101754:	4618      	mov	r0, r3
24101756:	46bd      	mov	sp, r7
24101758:	f85d 7b04 	ldr.w	r7, [sp], #4
2410175c:	4770      	bx	lr
2410175e:	bf00      	nop
24101760:	46028000 	.word	0x46028000

24101764 <HAL_RCC_GetSysClockFreq>:
  *         will be incorrect.
  *
  * @retval SYSCLK frequency
  */
uint32_t HAL_RCC_GetSysClockFreq(void)
{
24101764:	b598      	push	{r3, r4, r7, lr}
24101766:	af00      	add	r7, sp, #0
  return RCC_GetSysClockFreq(LL_RCC_IC2_GetSource(), LL_RCC_IC2_GetDivider());
24101768:	f7ff ffde 	bl	24101728 <LL_RCC_IC2_GetSource>
2410176c:	4604      	mov	r4, r0
2410176e:	f7ff ffe9 	bl	24101744 <LL_RCC_IC2_GetDivider>
24101772:	4603      	mov	r3, r0
24101774:	4619      	mov	r1, r3
24101776:	4620      	mov	r0, r4
24101778:	f000 f804 	bl	24101784 <RCC_GetSysClockFreq>
2410177c:	4603      	mov	r3, r0
}
2410177e:	4618      	mov	r0, r3
24101780:	bd98      	pop	{r3, r4, r7, pc}
	...

24101784 <RCC_GetSysClockFreq>:
  * @param  icx_divider The intermediate clock divider
  *
  * @retval SYSCLK frequency
  */
static uint32_t RCC_GetSysClockFreq(uint32_t icx_source, uint32_t icx_divider)
{
24101784:	b580      	push	{r7, lr}
24101786:	b084      	sub	sp, #16
24101788:	af00      	add	r7, sp, #0
2410178a:	6078      	str	r0, [r7, #4]
2410178c:	6039      	str	r1, [r7, #0]
  uint32_t frequency = 0U;
2410178e:	2300      	movs	r3, #0
24101790:	60fb      	str	r3, [r7, #12]

  /* Get SYSCLK source -------------------------------------------------------*/
  switch (LL_RCC_GetSysClkSource())
24101792:	f7ff ffbb 	bl	2410170c <LL_RCC_GetSysClkSource>
24101796:	4603      	mov	r3, r0
24101798:	f1b3 5f40 	cmp.w	r3, #805306368	@ 0x30000000
2410179c:	d026      	beq.n	241017ec <RCC_GetSysClockFreq+0x68>
2410179e:	f1b3 5f40 	cmp.w	r3, #805306368	@ 0x30000000
241017a2:	d861      	bhi.n	24101868 <RCC_GetSysClockFreq+0xe4>
241017a4:	f1b3 5f00 	cmp.w	r3, #536870912	@ 0x20000000
241017a8:	d01d      	beq.n	241017e6 <RCC_GetSysClockFreq+0x62>
241017aa:	f1b3 5f00 	cmp.w	r3, #536870912	@ 0x20000000
241017ae:	d85b      	bhi.n	24101868 <RCC_GetSysClockFreq+0xe4>
241017b0:	2b00      	cmp	r3, #0
241017b2:	d003      	beq.n	241017bc <RCC_GetSysClockFreq+0x38>
241017b4:	f1b3 5f80 	cmp.w	r3, #268435456	@ 0x10000000
241017b8:	d009      	beq.n	241017ce <RCC_GetSysClockFreq+0x4a>
      }
      break;

    default:
      /* Unexpected case */
      break;
241017ba:	e055      	b.n	24101868 <RCC_GetSysClockFreq+0xe4>
      frequency = HSI_VALUE >> (LL_RCC_HSI_GetDivider() >> RCC_HSICFGR_HSIDIV_Pos);
241017bc:	f7ff ff98 	bl	241016f0 <LL_RCC_HSI_GetDivider>
241017c0:	4603      	mov	r3, r0
241017c2:	09db      	lsrs	r3, r3, #7
241017c4:	4a2b      	ldr	r2, [pc, #172]	@ (24101874 <RCC_GetSysClockFreq+0xf0>)
241017c6:	fa22 f303 	lsr.w	r3, r2, r3
241017ca:	60fb      	str	r3, [r7, #12]
      break;
241017cc:	e04d      	b.n	2410186a <RCC_GetSysClockFreq+0xe6>
      frequency = RCC_GET_MSI_FREQUENCY();
241017ce:	4b2a      	ldr	r3, [pc, #168]	@ (24101878 <RCC_GetSysClockFreq+0xf4>)
241017d0:	6c5b      	ldr	r3, [r3, #68]	@ 0x44
241017d2:	f403 7300 	and.w	r3, r3, #512	@ 0x200
241017d6:	f5b3 7f00 	cmp.w	r3, #512	@ 0x200
241017da:	d101      	bne.n	241017e0 <RCC_GetSysClockFreq+0x5c>
241017dc:	4b27      	ldr	r3, [pc, #156]	@ (2410187c <RCC_GetSysClockFreq+0xf8>)
241017de:	e000      	b.n	241017e2 <RCC_GetSysClockFreq+0x5e>
241017e0:	4b27      	ldr	r3, [pc, #156]	@ (24101880 <RCC_GetSysClockFreq+0xfc>)
241017e2:	60fb      	str	r3, [r7, #12]
      break;
241017e4:	e041      	b.n	2410186a <RCC_GetSysClockFreq+0xe6>
      frequency = HSE_VALUE;
241017e6:	4b27      	ldr	r3, [pc, #156]	@ (24101884 <RCC_GetSysClockFreq+0x100>)
241017e8:	60fb      	str	r3, [r7, #12]
      break;
241017ea:	e03e      	b.n	2410186a <RCC_GetSysClockFreq+0xe6>
      switch (icx_source)
241017ec:	687b      	ldr	r3, [r7, #4]
241017ee:	f1b3 5f40 	cmp.w	r3, #805306368	@ 0x30000000
241017f2:	d02e      	beq.n	24101852 <RCC_GetSysClockFreq+0xce>
241017f4:	687b      	ldr	r3, [r7, #4]
241017f6:	f1b3 5f40 	cmp.w	r3, #805306368	@ 0x30000000
241017fa:	d833      	bhi.n	24101864 <RCC_GetSysClockFreq+0xe0>
241017fc:	687b      	ldr	r3, [r7, #4]
241017fe:	f1b3 5f00 	cmp.w	r3, #536870912	@ 0x20000000
24101802:	d01d      	beq.n	24101840 <RCC_GetSysClockFreq+0xbc>
24101804:	687b      	ldr	r3, [r7, #4]
24101806:	f1b3 5f00 	cmp.w	r3, #536870912	@ 0x20000000
2410180a:	d82b      	bhi.n	24101864 <RCC_GetSysClockFreq+0xe0>
2410180c:	687b      	ldr	r3, [r7, #4]
2410180e:	2b00      	cmp	r3, #0
24101810:	d004      	beq.n	2410181c <RCC_GetSysClockFreq+0x98>
24101812:	687b      	ldr	r3, [r7, #4]
24101814:	f1b3 5f80 	cmp.w	r3, #268435456	@ 0x10000000
24101818:	d009      	beq.n	2410182e <RCC_GetSysClockFreq+0xaa>
          break;
2410181a:	e023      	b.n	24101864 <RCC_GetSysClockFreq+0xe0>
          frequency = HAL_RCCEx_GetPLL1CLKFreq();
2410181c:	f004 faf0 	bl	24105e00 <HAL_RCCEx_GetPLL1CLKFreq>
24101820:	60f8      	str	r0, [r7, #12]
          frequency = frequency / icx_divider;
24101822:	68fa      	ldr	r2, [r7, #12]
24101824:	683b      	ldr	r3, [r7, #0]
24101826:	fbb2 f3f3 	udiv	r3, r2, r3
2410182a:	60fb      	str	r3, [r7, #12]
          break;
2410182c:	e01b      	b.n	24101866 <RCC_GetSysClockFreq+0xe2>
          frequency = HAL_RCCEx_GetPLL2CLKFreq();
2410182e:	f004 fb2d 	bl	24105e8c <HAL_RCCEx_GetPLL2CLKFreq>
24101832:	60f8      	str	r0, [r7, #12]
          frequency = frequency / icx_divider;
24101834:	68fa      	ldr	r2, [r7, #12]
24101836:	683b      	ldr	r3, [r7, #0]
24101838:	fbb2 f3f3 	udiv	r3, r2, r3
2410183c:	60fb      	str	r3, [r7, #12]
          break;
2410183e:	e012      	b.n	24101866 <RCC_GetSysClockFreq+0xe2>
          frequency = HAL_RCCEx_GetPLL3CLKFreq();
24101840:	f004 fb6a 	bl	24105f18 <HAL_RCCEx_GetPLL3CLKFreq>
24101844:	60f8      	str	r0, [r7, #12]
          frequency = frequency / icx_divider;
24101846:	68fa      	ldr	r2, [r7, #12]
24101848:	683b      	ldr	r3, [r7, #0]
2410184a:	fbb2 f3f3 	udiv	r3, r2, r3
2410184e:	60fb      	str	r3, [r7, #12]
          break;
24101850:	e009      	b.n	24101866 <RCC_GetSysClockFreq+0xe2>
          frequency = HAL_RCCEx_GetPLL4CLKFreq();
24101852:	f004 fba7 	bl	24105fa4 <HAL_RCCEx_GetPLL4CLKFreq>
24101856:	60f8      	str	r0, [r7, #12]
          frequency = frequency / icx_divider;
24101858:	68fa      	ldr	r2, [r7, #12]
2410185a:	683b      	ldr	r3, [r7, #0]
2410185c:	fbb2 f3f3 	udiv	r3, r2, r3
24101860:	60fb      	str	r3, [r7, #12]
          break;
24101862:	e000      	b.n	24101866 <RCC_GetSysClockFreq+0xe2>
          break;
24101864:	bf00      	nop
      break;
24101866:	e000      	b.n	2410186a <RCC_GetSysClockFreq+0xe6>
      break;
24101868:	bf00      	nop
  }

  return frequency;
2410186a:	68fb      	ldr	r3, [r7, #12]
}
2410186c:	4618      	mov	r0, r3
2410186e:	3710      	adds	r7, #16
24101870:	46bd      	mov	sp, r7
24101872:	bd80      	pop	{r7, pc}
24101874:	03d09000 	.word	0x03d09000
24101878:	46028000 	.word	0x46028000
2410187c:	00f42400 	.word	0x00f42400
24101880:	003d0900 	.word	0x003d0900
24101884:	016e3600 	.word	0x016e3600

24101888 <LL_RCC_HSE_SelectHSEAsDiv2Clock>:
{
24101888:	b480      	push	{r7}
2410188a:	af00      	add	r7, sp, #0
  CLEAR_BIT(RCC->HSECFGR, RCC_HSECFGR_HSEDIV2SEL);
2410188c:	4b05      	ldr	r3, [pc, #20]	@ (241018a4 <LL_RCC_HSE_SelectHSEAsDiv2Clock+0x1c>)
2410188e:	6d5b      	ldr	r3, [r3, #84]	@ 0x54
24101890:	4a04      	ldr	r2, [pc, #16]	@ (241018a4 <LL_RCC_HSE_SelectHSEAsDiv2Clock+0x1c>)
24101892:	f023 0340 	bic.w	r3, r3, #64	@ 0x40
24101896:	6553      	str	r3, [r2, #84]	@ 0x54
}
24101898:	bf00      	nop
2410189a:	46bd      	mov	sp, r7
2410189c:	f85d 7b04 	ldr.w	r7, [sp], #4
241018a0:	4770      	bx	lr
241018a2:	bf00      	nop
241018a4:	46028000 	.word	0x46028000

241018a8 <LL_RCC_HSE_SelectHSEDiv2AsDiv2Clock>:
{
241018a8:	b480      	push	{r7}
241018aa:	af00      	add	r7, sp, #0
  SET_BIT(RCC->HSECFGR, RCC_HSECFGR_HSEDIV2SEL);
241018ac:	4b05      	ldr	r3, [pc, #20]	@ (241018c4 <LL_RCC_HSE_SelectHSEDiv2AsDiv2Clock+0x1c>)
241018ae:	6d5b      	ldr	r3, [r3, #84]	@ 0x54
241018b0:	4a04      	ldr	r2, [pc, #16]	@ (241018c4 <LL_RCC_HSE_SelectHSEDiv2AsDiv2Clock+0x1c>)
241018b2:	f043 0340 	orr.w	r3, r3, #64	@ 0x40
241018b6:	6553      	str	r3, [r2, #84]	@ 0x54
}
241018b8:	bf00      	nop
241018ba:	46bd      	mov	sp, r7
241018bc:	f85d 7b04 	ldr.w	r7, [sp], #4
241018c0:	4770      	bx	lr
241018c2:	bf00      	nop
241018c4:	46028000 	.word	0x46028000

241018c8 <LL_RCC_HSE_IsSelectedHSEDiv2AsDiv2Clock>:
{
241018c8:	b480      	push	{r7}
241018ca:	af00      	add	r7, sp, #0
  return ((READ_BIT(RCC->HSECFGR, RCC_HSECFGR_HSEDIV2SEL) == RCC_HSECFGR_HSEDIV2SEL) ? 1UL : 0UL);
241018cc:	4b06      	ldr	r3, [pc, #24]	@ (241018e8 <LL_RCC_HSE_IsSelectedHSEDiv2AsDiv2Clock+0x20>)
241018ce:	6d5b      	ldr	r3, [r3, #84]	@ 0x54
241018d0:	f003 0340 	and.w	r3, r3, #64	@ 0x40
241018d4:	2b40      	cmp	r3, #64	@ 0x40
241018d6:	d101      	bne.n	241018dc <LL_RCC_HSE_IsSelectedHSEDiv2AsDiv2Clock+0x14>
241018d8:	2301      	movs	r3, #1
241018da:	e000      	b.n	241018de <LL_RCC_HSE_IsSelectedHSEDiv2AsDiv2Clock+0x16>
241018dc:	2300      	movs	r3, #0
}
241018de:	4618      	mov	r0, r3
241018e0:	46bd      	mov	sp, r7
241018e2:	f85d 7b04 	ldr.w	r7, [sp], #4
241018e6:	4770      	bx	lr
241018e8:	46028000 	.word	0x46028000

241018ec <LL_RCC_HSE_IsReady>:
{
241018ec:	b480      	push	{r7}
241018ee:	af00      	add	r7, sp, #0
  return ((READ_BIT(RCC->SR, RCC_SR_HSERDY) != 0UL) ? 1UL : 0UL);
241018f0:	4b06      	ldr	r3, [pc, #24]	@ (2410190c <LL_RCC_HSE_IsReady+0x20>)
241018f2:	685b      	ldr	r3, [r3, #4]
241018f4:	f003 0310 	and.w	r3, r3, #16
241018f8:	2b00      	cmp	r3, #0
241018fa:	d001      	beq.n	24101900 <LL_RCC_HSE_IsReady+0x14>
241018fc:	2301      	movs	r3, #1
241018fe:	e000      	b.n	24101902 <LL_RCC_HSE_IsReady+0x16>
24101900:	2300      	movs	r3, #0
}
24101902:	4618      	mov	r0, r3
24101904:	46bd      	mov	sp, r7
24101906:	f85d 7b04 	ldr.w	r7, [sp], #4
2410190a:	4770      	bx	lr
2410190c:	46028000 	.word	0x46028000

24101910 <LL_RCC_HSI_IsReady>:
{
24101910:	b480      	push	{r7}
24101912:	af00      	add	r7, sp, #0
  return ((READ_BIT(RCC->SR, RCC_SR_HSIRDY) != 0UL) ? 1UL : 0UL);
24101914:	4b06      	ldr	r3, [pc, #24]	@ (24101930 <LL_RCC_HSI_IsReady+0x20>)
24101916:	685b      	ldr	r3, [r3, #4]
24101918:	f003 0308 	and.w	r3, r3, #8
2410191c:	2b00      	cmp	r3, #0
2410191e:	d001      	beq.n	24101924 <LL_RCC_HSI_IsReady+0x14>
24101920:	2301      	movs	r3, #1
24101922:	e000      	b.n	24101926 <LL_RCC_HSI_IsReady+0x16>
24101924:	2300      	movs	r3, #0
}
24101926:	4618      	mov	r0, r3
24101928:	46bd      	mov	sp, r7
2410192a:	f85d 7b04 	ldr.w	r7, [sp], #4
2410192e:	4770      	bx	lr
24101930:	46028000 	.word	0x46028000

24101934 <LL_RCC_HSI_GetDivider>:
{
24101934:	b480      	push	{r7}
24101936:	af00      	add	r7, sp, #0
  return (READ_BIT(RCC->HSICFGR, RCC_HSICFGR_HSIDIV));
24101938:	4b04      	ldr	r3, [pc, #16]	@ (2410194c <LL_RCC_HSI_GetDivider+0x18>)
2410193a:	6c9b      	ldr	r3, [r3, #72]	@ 0x48
2410193c:	f403 73c0 	and.w	r3, r3, #384	@ 0x180
}
24101940:	4618      	mov	r0, r3
24101942:	46bd      	mov	sp, r7
24101944:	f85d 7b04 	ldr.w	r7, [sp], #4
24101948:	4770      	bx	lr
2410194a:	bf00      	nop
2410194c:	46028000 	.word	0x46028000

24101950 <LL_RCC_MSI_IsReady>:
{
24101950:	b480      	push	{r7}
24101952:	af00      	add	r7, sp, #0
  return ((READ_BIT(RCC->SR, RCC_SR_MSIRDY) != 0UL) ? 1UL : 0UL);
24101954:	4b06      	ldr	r3, [pc, #24]	@ (24101970 <LL_RCC_MSI_IsReady+0x20>)
24101956:	685b      	ldr	r3, [r3, #4]
24101958:	f003 0304 	and.w	r3, r3, #4
2410195c:	2b00      	cmp	r3, #0
2410195e:	d001      	beq.n	24101964 <LL_RCC_MSI_IsReady+0x14>
24101960:	2301      	movs	r3, #1
24101962:	e000      	b.n	24101966 <LL_RCC_MSI_IsReady+0x16>
24101964:	2300      	movs	r3, #0
}
24101966:	4618      	mov	r0, r3
24101968:	46bd      	mov	sp, r7
2410196a:	f85d 7b04 	ldr.w	r7, [sp], #4
2410196e:	4770      	bx	lr
24101970:	46028000 	.word	0x46028000

24101974 <LL_RCC_MSI_GetFrequency>:
{
24101974:	b480      	push	{r7}
24101976:	af00      	add	r7, sp, #0
  return (READ_BIT(RCC->MSICFGR, RCC_MSICFGR_MSIFREQSEL));
24101978:	4b04      	ldr	r3, [pc, #16]	@ (2410198c <LL_RCC_MSI_GetFrequency+0x18>)
2410197a:	6c5b      	ldr	r3, [r3, #68]	@ 0x44
2410197c:	f403 7300 	and.w	r3, r3, #512	@ 0x200
}
24101980:	4618      	mov	r0, r3
24101982:	46bd      	mov	sp, r7
24101984:	f85d 7b04 	ldr.w	r7, [sp], #4
24101988:	4770      	bx	lr
2410198a:	bf00      	nop
2410198c:	46028000 	.word	0x46028000

24101990 <LL_RCC_LSE_IsReady>:
{
24101990:	b480      	push	{r7}
24101992:	af00      	add	r7, sp, #0
  return ((READ_BIT(RCC->SR, RCC_SR_LSERDY) != 0UL) ? 1UL : 0UL);
24101994:	4b06      	ldr	r3, [pc, #24]	@ (241019b0 <LL_RCC_LSE_IsReady+0x20>)
24101996:	685b      	ldr	r3, [r3, #4]
24101998:	f003 0302 	and.w	r3, r3, #2
2410199c:	2b00      	cmp	r3, #0
2410199e:	d001      	beq.n	241019a4 <LL_RCC_LSE_IsReady+0x14>
241019a0:	2301      	movs	r3, #1
241019a2:	e000      	b.n	241019a6 <LL_RCC_LSE_IsReady+0x16>
241019a4:	2300      	movs	r3, #0
}
241019a6:	4618      	mov	r0, r3
241019a8:	46bd      	mov	sp, r7
241019aa:	f85d 7b04 	ldr.w	r7, [sp], #4
241019ae:	4770      	bx	lr
241019b0:	46028000 	.word	0x46028000

241019b4 <LL_RCC_LSI_IsReady>:
{
241019b4:	b480      	push	{r7}
241019b6:	af00      	add	r7, sp, #0
  return ((READ_BIT(RCC->SR, RCC_SR_LSIRDY) != 0UL) ? 1UL : 0UL);
241019b8:	4b04      	ldr	r3, [pc, #16]	@ (241019cc <LL_RCC_LSI_IsReady+0x18>)
241019ba:	685b      	ldr	r3, [r3, #4]
241019bc:	f003 0301 	and.w	r3, r3, #1
}
241019c0:	4618      	mov	r0, r3
241019c2:	46bd      	mov	sp, r7
241019c4:	f85d 7b04 	ldr.w	r7, [sp], #4
241019c8:	4770      	bx	lr
241019ca:	bf00      	nop
241019cc:	46028000 	.word	0x46028000

241019d0 <LL_RCC_GetAHBPrescaler>:
{
241019d0:	b480      	push	{r7}
241019d2:	af00      	add	r7, sp, #0
  return (uint32_t)(READ_BIT(RCC->CFGR2, RCC_CFGR2_HPRE));
241019d4:	4b04      	ldr	r3, [pc, #16]	@ (241019e8 <LL_RCC_GetAHBPrescaler+0x18>)
241019d6:	6a5b      	ldr	r3, [r3, #36]	@ 0x24
241019d8:	f403 03e0 	and.w	r3, r3, #7340032	@ 0x700000
}
241019dc:	4618      	mov	r0, r3
241019de:	46bd      	mov	sp, r7
241019e0:	f85d 7b04 	ldr.w	r7, [sp], #4
241019e4:	4770      	bx	lr
241019e6:	bf00      	nop
241019e8:	46028000 	.word	0x46028000

241019ec <LL_RCC_GetAPB1Prescaler>:
{
241019ec:	b480      	push	{r7}
241019ee:	af00      	add	r7, sp, #0
  return (uint32_t)(READ_BIT(RCC->CFGR2, RCC_CFGR2_PPRE1));
241019f0:	4b04      	ldr	r3, [pc, #16]	@ (24101a04 <LL_RCC_GetAPB1Prescaler+0x18>)
241019f2:	6a5b      	ldr	r3, [r3, #36]	@ 0x24
241019f4:	f003 0307 	and.w	r3, r3, #7
}
241019f8:	4618      	mov	r0, r3
241019fa:	46bd      	mov	sp, r7
241019fc:	f85d 7b04 	ldr.w	r7, [sp], #4
24101a00:	4770      	bx	lr
24101a02:	bf00      	nop
24101a04:	46028000 	.word	0x46028000

24101a08 <LL_RCC_GetAPB2Prescaler>:
{
24101a08:	b480      	push	{r7}
24101a0a:	af00      	add	r7, sp, #0
  return (uint32_t)(READ_BIT(RCC->CFGR2, RCC_CFGR2_PPRE2));
24101a0c:	4b04      	ldr	r3, [pc, #16]	@ (24101a20 <LL_RCC_GetAPB2Prescaler+0x18>)
24101a0e:	6a5b      	ldr	r3, [r3, #36]	@ 0x24
24101a10:	f003 0370 	and.w	r3, r3, #112	@ 0x70
}
24101a14:	4618      	mov	r0, r3
24101a16:	46bd      	mov	sp, r7
24101a18:	f85d 7b04 	ldr.w	r7, [sp], #4
24101a1c:	4770      	bx	lr
24101a1e:	bf00      	nop
24101a20:	46028000 	.word	0x46028000

24101a24 <LL_RCC_GetAPB4Prescaler>:
{
24101a24:	b480      	push	{r7}
24101a26:	af00      	add	r7, sp, #0
  return (uint32_t)(READ_BIT(RCC->CFGR2, RCC_CFGR2_PPRE4));
24101a28:	4b04      	ldr	r3, [pc, #16]	@ (24101a3c <LL_RCC_GetAPB4Prescaler+0x18>)
24101a2a:	6a5b      	ldr	r3, [r3, #36]	@ 0x24
24101a2c:	f403 43e0 	and.w	r3, r3, #28672	@ 0x7000
}
24101a30:	4618      	mov	r0, r3
24101a32:	46bd      	mov	sp, r7
24101a34:	f85d 7b04 	ldr.w	r7, [sp], #4
24101a38:	4770      	bx	lr
24101a3a:	bf00      	nop
24101a3c:	46028000 	.word	0x46028000

24101a40 <LL_RCC_GetAPB5Prescaler>:
{
24101a40:	b480      	push	{r7}
24101a42:	af00      	add	r7, sp, #0
  return (uint32_t)(READ_BIT(RCC->CFGR2, RCC_CFGR2_PPRE5));
24101a44:	4b04      	ldr	r3, [pc, #16]	@ (24101a58 <LL_RCC_GetAPB5Prescaler+0x18>)
24101a46:	6a5b      	ldr	r3, [r3, #36]	@ 0x24
24101a48:	f403 23e0 	and.w	r3, r3, #458752	@ 0x70000
}
24101a4c:	4618      	mov	r0, r3
24101a4e:	46bd      	mov	sp, r7
24101a50:	f85d 7b04 	ldr.w	r7, [sp], #4
24101a54:	4770      	bx	lr
24101a56:	bf00      	nop
24101a58:	46028000 	.word	0x46028000

24101a5c <LL_RCC_SetClockSource>:
{
24101a5c:	b480      	push	{r7}
24101a5e:	b085      	sub	sp, #20
24101a60:	af00      	add	r7, sp, #0
24101a62:	6078      	str	r0, [r7, #4]
  volatile uint32_t *pReg = (uint32_t *)((uint32_t)&RCC->CCIPR1 + LL_CLKSOURCE_REG(ClkSource));
24101a64:	687b      	ldr	r3, [r7, #4]
24101a66:	b2da      	uxtb	r2, r3
24101a68:	4b10      	ldr	r3, [pc, #64]	@ (24101aac <LL_RCC_SetClockSource+0x50>)
24101a6a:	4413      	add	r3, r2
24101a6c:	60fb      	str	r3, [r7, #12]
  MODIFY_REG(*pReg, LL_CLKSOURCE_MASK(ClkSource), LL_CLKSOURCE_CONFIG(ClkSource));
24101a6e:	68fb      	ldr	r3, [r7, #12]
24101a70:	681a      	ldr	r2, [r3, #0]
24101a72:	687b      	ldr	r3, [r7, #4]
24101a74:	0e19      	lsrs	r1, r3, #24
24101a76:	687b      	ldr	r3, [r7, #4]
24101a78:	0a1b      	lsrs	r3, r3, #8
24101a7a:	f003 031f 	and.w	r3, r3, #31
24101a7e:	fa01 f303 	lsl.w	r3, r1, r3
24101a82:	43db      	mvns	r3, r3
24101a84:	401a      	ands	r2, r3
24101a86:	687b      	ldr	r3, [r7, #4]
24101a88:	0c1b      	lsrs	r3, r3, #16
24101a8a:	b2d9      	uxtb	r1, r3
24101a8c:	687b      	ldr	r3, [r7, #4]
24101a8e:	0a1b      	lsrs	r3, r3, #8
24101a90:	f003 031f 	and.w	r3, r3, #31
24101a94:	fa01 f303 	lsl.w	r3, r1, r3
24101a98:	431a      	orrs	r2, r3
24101a9a:	68fb      	ldr	r3, [r7, #12]
24101a9c:	601a      	str	r2, [r3, #0]
}
24101a9e:	bf00      	nop
24101aa0:	3714      	adds	r7, #20
24101aa2:	46bd      	mov	sp, r7
24101aa4:	f85d 7b04 	ldr.w	r7, [sp], #4
24101aa8:	4770      	bx	lr
24101aaa:	bf00      	nop
24101aac:	46028144 	.word	0x46028144

24101ab0 <LL_RCC_GetADCPrescaler>:
{
24101ab0:	b480      	push	{r7}
24101ab2:	af00      	add	r7, sp, #0
  return (uint32_t)(READ_BIT(RCC->CCIPR1, RCC_CCIPR1_ADCPRE) >> RCC_CCIPR1_ADCPRE_Pos);
24101ab4:	4b04      	ldr	r3, [pc, #16]	@ (24101ac8 <LL_RCC_GetADCPrescaler+0x18>)
24101ab6:	f8d3 3144 	ldr.w	r3, [r3, #324]	@ 0x144
24101aba:	0a1b      	lsrs	r3, r3, #8
24101abc:	b2db      	uxtb	r3, r3
}
24101abe:	4618      	mov	r0, r3
24101ac0:	46bd      	mov	sp, r7
24101ac2:	f85d 7b04 	ldr.w	r7, [sp], #4
24101ac6:	4770      	bx	lr
24101ac8:	46028000 	.word	0x46028000

24101acc <LL_RCC_SetADFClockSource>:
{
24101acc:	b480      	push	{r7}
24101ace:	b083      	sub	sp, #12
24101ad0:	af00      	add	r7, sp, #0
24101ad2:	6078      	str	r0, [r7, #4]
  MODIFY_REG(RCC->CCIPR1, RCC_CCIPR1_ADF1SEL, ClkSource);
24101ad4:	4b07      	ldr	r3, [pc, #28]	@ (24101af4 <LL_RCC_SetADFClockSource+0x28>)
24101ad6:	f8d3 3144 	ldr.w	r3, [r3, #324]	@ 0x144
24101ada:	f023 0207 	bic.w	r2, r3, #7
24101ade:	4905      	ldr	r1, [pc, #20]	@ (24101af4 <LL_RCC_SetADFClockSource+0x28>)
24101ae0:	687b      	ldr	r3, [r7, #4]
24101ae2:	4313      	orrs	r3, r2
24101ae4:	f8c1 3144 	str.w	r3, [r1, #324]	@ 0x144
}
24101ae8:	bf00      	nop
24101aea:	370c      	adds	r7, #12
24101aec:	46bd      	mov	sp, r7
24101aee:	f85d 7b04 	ldr.w	r7, [sp], #4
24101af2:	4770      	bx	lr
24101af4:	46028000 	.word	0x46028000

24101af8 <LL_RCC_SetCLKPClockSource>:
{
24101af8:	b480      	push	{r7}
24101afa:	b083      	sub	sp, #12
24101afc:	af00      	add	r7, sp, #0
24101afe:	6078      	str	r0, [r7, #4]
  MODIFY_REG(RCC->CCIPR7, RCC_CCIPR7_PERSEL, ClkSource);
24101b00:	4b07      	ldr	r3, [pc, #28]	@ (24101b20 <LL_RCC_SetCLKPClockSource+0x28>)
24101b02:	f8d3 315c 	ldr.w	r3, [r3, #348]	@ 0x15c
24101b06:	f023 0207 	bic.w	r2, r3, #7
24101b0a:	4905      	ldr	r1, [pc, #20]	@ (24101b20 <LL_RCC_SetCLKPClockSource+0x28>)
24101b0c:	687b      	ldr	r3, [r7, #4]
24101b0e:	4313      	orrs	r3, r2
24101b10:	f8c1 315c 	str.w	r3, [r1, #348]	@ 0x15c
}
24101b14:	bf00      	nop
24101b16:	370c      	adds	r7, #12
24101b18:	46bd      	mov	sp, r7
24101b1a:	f85d 7b04 	ldr.w	r7, [sp], #4
24101b1e:	4770      	bx	lr
24101b20:	46028000 	.word	0x46028000

24101b24 <LL_RCC_SetDCMIPPClockSource>:
{
24101b24:	b480      	push	{r7}
24101b26:	b083      	sub	sp, #12
24101b28:	af00      	add	r7, sp, #0
24101b2a:	6078      	str	r0, [r7, #4]
  MODIFY_REG(RCC->CCIPR1, RCC_CCIPR1_DCMIPPSEL, ClkSource);
24101b2c:	4b07      	ldr	r3, [pc, #28]	@ (24101b4c <LL_RCC_SetDCMIPPClockSource+0x28>)
24101b2e:	f8d3 3144 	ldr.w	r3, [r3, #324]	@ 0x144
24101b32:	f423 1240 	bic.w	r2, r3, #3145728	@ 0x300000
24101b36:	4905      	ldr	r1, [pc, #20]	@ (24101b4c <LL_RCC_SetDCMIPPClockSource+0x28>)
24101b38:	687b      	ldr	r3, [r7, #4]
24101b3a:	4313      	orrs	r3, r2
24101b3c:	f8c1 3144 	str.w	r3, [r1, #324]	@ 0x144
}
24101b40:	bf00      	nop
24101b42:	370c      	adds	r7, #12
24101b44:	46bd      	mov	sp, r7
24101b46:	f85d 7b04 	ldr.w	r7, [sp], #4
24101b4a:	4770      	bx	lr
24101b4c:	46028000 	.word	0x46028000

24101b50 <LL_RCC_SetETHClockSource>:
{
24101b50:	b480      	push	{r7}
24101b52:	b083      	sub	sp, #12
24101b54:	af00      	add	r7, sp, #0
24101b56:	6078      	str	r0, [r7, #4]
  MODIFY_REG(RCC->CCIPR2, RCC_CCIPR2_ETH1CLKSEL, ClkSource);
24101b58:	4b07      	ldr	r3, [pc, #28]	@ (24101b78 <LL_RCC_SetETHClockSource+0x28>)
24101b5a:	f8d3 3148 	ldr.w	r3, [r3, #328]	@ 0x148
24101b5e:	f423 5240 	bic.w	r2, r3, #12288	@ 0x3000
24101b62:	4905      	ldr	r1, [pc, #20]	@ (24101b78 <LL_RCC_SetETHClockSource+0x28>)
24101b64:	687b      	ldr	r3, [r7, #4]
24101b66:	4313      	orrs	r3, r2
24101b68:	f8c1 3148 	str.w	r3, [r1, #328]	@ 0x148
}
24101b6c:	bf00      	nop
24101b6e:	370c      	adds	r7, #12
24101b70:	46bd      	mov	sp, r7
24101b72:	f85d 7b04 	ldr.w	r7, [sp], #4
24101b76:	4770      	bx	lr
24101b78:	46028000 	.word	0x46028000

24101b7c <LL_RCC_SetETHPHYInterface>:
{
24101b7c:	b480      	push	{r7}
24101b7e:	b083      	sub	sp, #12
24101b80:	af00      	add	r7, sp, #0
24101b82:	6078      	str	r0, [r7, #4]
  MODIFY_REG(RCC->CCIPR2, RCC_CCIPR2_ETH1SEL, Interface);
24101b84:	4b07      	ldr	r3, [pc, #28]	@ (24101ba4 <LL_RCC_SetETHPHYInterface+0x28>)
24101b86:	f8d3 3148 	ldr.w	r3, [r3, #328]	@ 0x148
24101b8a:	f423 22e0 	bic.w	r2, r3, #458752	@ 0x70000
24101b8e:	4905      	ldr	r1, [pc, #20]	@ (24101ba4 <LL_RCC_SetETHPHYInterface+0x28>)
24101b90:	687b      	ldr	r3, [r7, #4]
24101b92:	4313      	orrs	r3, r2
24101b94:	f8c1 3148 	str.w	r3, [r1, #328]	@ 0x148
}
24101b98:	bf00      	nop
24101b9a:	370c      	adds	r7, #12
24101b9c:	46bd      	mov	sp, r7
24101b9e:	f85d 7b04 	ldr.w	r7, [sp], #4
24101ba2:	4770      	bx	lr
24101ba4:	46028000 	.word	0x46028000

24101ba8 <LL_RCC_GetETH1PTPDivider>:
{
24101ba8:	b480      	push	{r7}
24101baa:	af00      	add	r7, sp, #0
  return (READ_BIT(RCC->CCIPR2, RCC_CCIPR2_ETH1PTPDIV));
24101bac:	4b04      	ldr	r3, [pc, #16]	@ (24101bc0 <LL_RCC_GetETH1PTPDivider+0x18>)
24101bae:	f8d3 3148 	ldr.w	r3, [r3, #328]	@ 0x148
24101bb2:	f003 03f0 	and.w	r3, r3, #240	@ 0xf0
}
24101bb6:	4618      	mov	r0, r3
24101bb8:	46bd      	mov	sp, r7
24101bba:	f85d 7b04 	ldr.w	r7, [sp], #4
24101bbe:	4770      	bx	lr
24101bc0:	46028000 	.word	0x46028000

24101bc4 <LL_RCC_SetETHREFRXClockSource>:
{
24101bc4:	b480      	push	{r7}
24101bc6:	b083      	sub	sp, #12
24101bc8:	af00      	add	r7, sp, #0
24101bca:	6078      	str	r0, [r7, #4]
  MODIFY_REG(RCC->CCIPR2, RCC_CCIPR2_ETH1REFCLKSEL, ClkSource);
24101bcc:	4b07      	ldr	r3, [pc, #28]	@ (24101bec <LL_RCC_SetETHREFRXClockSource+0x28>)
24101bce:	f8d3 3148 	ldr.w	r3, [r3, #328]	@ 0x148
24101bd2:	f423 1280 	bic.w	r2, r3, #1048576	@ 0x100000
24101bd6:	4905      	ldr	r1, [pc, #20]	@ (24101bec <LL_RCC_SetETHREFRXClockSource+0x28>)
24101bd8:	687b      	ldr	r3, [r7, #4]
24101bda:	4313      	orrs	r3, r2
24101bdc:	f8c1 3148 	str.w	r3, [r1, #328]	@ 0x148
}
24101be0:	bf00      	nop
24101be2:	370c      	adds	r7, #12
24101be4:	46bd      	mov	sp, r7
24101be6:	f85d 7b04 	ldr.w	r7, [sp], #4
24101bea:	4770      	bx	lr
24101bec:	46028000 	.word	0x46028000

24101bf0 <LL_RCC_SetETHREFTXClockSource>:
{
24101bf0:	b480      	push	{r7}
24101bf2:	b083      	sub	sp, #12
24101bf4:	af00      	add	r7, sp, #0
24101bf6:	6078      	str	r0, [r7, #4]
  MODIFY_REG(RCC->CCIPR2, RCC_CCIPR2_ETH1GTXCLKSEL, ClkSource);
24101bf8:	4b07      	ldr	r3, [pc, #28]	@ (24101c18 <LL_RCC_SetETHREFTXClockSource+0x28>)
24101bfa:	f8d3 3148 	ldr.w	r3, [r3, #328]	@ 0x148
24101bfe:	f023 7280 	bic.w	r2, r3, #16777216	@ 0x1000000
24101c02:	4905      	ldr	r1, [pc, #20]	@ (24101c18 <LL_RCC_SetETHREFTXClockSource+0x28>)
24101c04:	687b      	ldr	r3, [r7, #4]
24101c06:	4313      	orrs	r3, r2
24101c08:	f8c1 3148 	str.w	r3, [r1, #328]	@ 0x148
}
24101c0c:	bf00      	nop
24101c0e:	370c      	adds	r7, #12
24101c10:	46bd      	mov	sp, r7
24101c12:	f85d 7b04 	ldr.w	r7, [sp], #4
24101c16:	4770      	bx	lr
24101c18:	46028000 	.word	0x46028000

24101c1c <LL_RCC_SetFDCANClockSource>:
{
24101c1c:	b480      	push	{r7}
24101c1e:	b083      	sub	sp, #12
24101c20:	af00      	add	r7, sp, #0
24101c22:	6078      	str	r0, [r7, #4]
  MODIFY_REG(RCC->CCIPR3, RCC_CCIPR3_FDCANSEL, ClkSource);
24101c24:	4b07      	ldr	r3, [pc, #28]	@ (24101c44 <LL_RCC_SetFDCANClockSource+0x28>)
24101c26:	f8d3 314c 	ldr.w	r3, [r3, #332]	@ 0x14c
24101c2a:	f023 0203 	bic.w	r2, r3, #3
24101c2e:	4905      	ldr	r1, [pc, #20]	@ (24101c44 <LL_RCC_SetFDCANClockSource+0x28>)
24101c30:	687b      	ldr	r3, [r7, #4]
24101c32:	4313      	orrs	r3, r2
24101c34:	f8c1 314c 	str.w	r3, [r1, #332]	@ 0x14c
}
24101c38:	bf00      	nop
24101c3a:	370c      	adds	r7, #12
24101c3c:	46bd      	mov	sp, r7
24101c3e:	f85d 7b04 	ldr.w	r7, [sp], #4
24101c42:	4770      	bx	lr
24101c44:	46028000 	.word	0x46028000

24101c48 <LL_RCC_SetFMCClockSource>:
{
24101c48:	b480      	push	{r7}
24101c4a:	b083      	sub	sp, #12
24101c4c:	af00      	add	r7, sp, #0
24101c4e:	6078      	str	r0, [r7, #4]
  MODIFY_REG(RCC->CCIPR3, RCC_CCIPR3_FMCSEL, ClkSource);
24101c50:	4b07      	ldr	r3, [pc, #28]	@ (24101c70 <LL_RCC_SetFMCClockSource+0x28>)
24101c52:	f8d3 314c 	ldr.w	r3, [r3, #332]	@ 0x14c
24101c56:	f023 0230 	bic.w	r2, r3, #48	@ 0x30
24101c5a:	4905      	ldr	r1, [pc, #20]	@ (24101c70 <LL_RCC_SetFMCClockSource+0x28>)
24101c5c:	687b      	ldr	r3, [r7, #4]
24101c5e:	4313      	orrs	r3, r2
24101c60:	f8c1 314c 	str.w	r3, [r1, #332]	@ 0x14c
}
24101c64:	bf00      	nop
24101c66:	370c      	adds	r7, #12
24101c68:	46bd      	mov	sp, r7
24101c6a:	f85d 7b04 	ldr.w	r7, [sp], #4
24101c6e:	4770      	bx	lr
24101c70:	46028000 	.word	0x46028000

24101c74 <LL_RCC_SetI2CClockSource>:
{
24101c74:	b580      	push	{r7, lr}
24101c76:	b082      	sub	sp, #8
24101c78:	af00      	add	r7, sp, #0
24101c7a:	6078      	str	r0, [r7, #4]
  LL_RCC_SetClockSource(ClkSource);
24101c7c:	6878      	ldr	r0, [r7, #4]
24101c7e:	f7ff feed 	bl	24101a5c <LL_RCC_SetClockSource>
}
24101c82:	bf00      	nop
24101c84:	3708      	adds	r7, #8
24101c86:	46bd      	mov	sp, r7
24101c88:	bd80      	pop	{r7, pc}

24101c8a <LL_RCC_SetI3CClockSource>:
{
24101c8a:	b580      	push	{r7, lr}
24101c8c:	b082      	sub	sp, #8
24101c8e:	af00      	add	r7, sp, #0
24101c90:	6078      	str	r0, [r7, #4]
  LL_RCC_SetClockSource(ClkSource);
24101c92:	6878      	ldr	r0, [r7, #4]
24101c94:	f7ff fee2 	bl	24101a5c <LL_RCC_SetClockSource>
}
24101c98:	bf00      	nop
24101c9a:	3708      	adds	r7, #8
24101c9c:	46bd      	mov	sp, r7
24101c9e:	bd80      	pop	{r7, pc}

24101ca0 <LL_RCC_SetLPTIMClockSource>:
{
24101ca0:	b580      	push	{r7, lr}
24101ca2:	b082      	sub	sp, #8
24101ca4:	af00      	add	r7, sp, #0
24101ca6:	6078      	str	r0, [r7, #4]
  LL_RCC_SetClockSource(ClkSource);
24101ca8:	6878      	ldr	r0, [r7, #4]
24101caa:	f7ff fed7 	bl	24101a5c <LL_RCC_SetClockSource>
}
24101cae:	bf00      	nop
24101cb0:	3708      	adds	r7, #8
24101cb2:	46bd      	mov	sp, r7
24101cb4:	bd80      	pop	{r7, pc}
	...

24101cb8 <LL_RCC_SetLPUARTClockSource>:
{
24101cb8:	b480      	push	{r7}
24101cba:	b083      	sub	sp, #12
24101cbc:	af00      	add	r7, sp, #0
24101cbe:	6078      	str	r0, [r7, #4]
  MODIFY_REG(RCC->CCIPR14, RCC_CCIPR14_LPUART1SEL, ClkSource);
24101cc0:	4b07      	ldr	r3, [pc, #28]	@ (24101ce0 <LL_RCC_SetLPUARTClockSource+0x28>)
24101cc2:	f8d3 3178 	ldr.w	r3, [r3, #376]	@ 0x178
24101cc6:	f423 62e0 	bic.w	r2, r3, #1792	@ 0x700
24101cca:	4905      	ldr	r1, [pc, #20]	@ (24101ce0 <LL_RCC_SetLPUARTClockSource+0x28>)
24101ccc:	687b      	ldr	r3, [r7, #4]
24101cce:	4313      	orrs	r3, r2
24101cd0:	f8c1 3178 	str.w	r3, [r1, #376]	@ 0x178
}
24101cd4:	bf00      	nop
24101cd6:	370c      	adds	r7, #12
24101cd8:	46bd      	mov	sp, r7
24101cda:	f85d 7b04 	ldr.w	r7, [sp], #4
24101cde:	4770      	bx	lr
24101ce0:	46028000 	.word	0x46028000

24101ce4 <LL_RCC_SetLTDCClockSource>:
{
24101ce4:	b480      	push	{r7}
24101ce6:	b083      	sub	sp, #12
24101ce8:	af00      	add	r7, sp, #0
24101cea:	6078      	str	r0, [r7, #4]
  MODIFY_REG(RCC->CCIPR4, RCC_CCIPR4_LTDCSEL, ClkSource);
24101cec:	4b07      	ldr	r3, [pc, #28]	@ (24101d0c <LL_RCC_SetLTDCClockSource+0x28>)
24101cee:	f8d3 3150 	ldr.w	r3, [r3, #336]	@ 0x150
24101cf2:	f023 7240 	bic.w	r2, r3, #50331648	@ 0x3000000
24101cf6:	4905      	ldr	r1, [pc, #20]	@ (24101d0c <LL_RCC_SetLTDCClockSource+0x28>)
24101cf8:	687b      	ldr	r3, [r7, #4]
24101cfa:	4313      	orrs	r3, r2
24101cfc:	f8c1 3150 	str.w	r3, [r1, #336]	@ 0x150
}
24101d00:	bf00      	nop
24101d02:	370c      	adds	r7, #12
24101d04:	46bd      	mov	sp, r7
24101d06:	f85d 7b04 	ldr.w	r7, [sp], #4
24101d0a:	4770      	bx	lr
24101d0c:	46028000 	.word	0x46028000

24101d10 <LL_RCC_SetMDFClockSource>:
{
24101d10:	b480      	push	{r7}
24101d12:	b083      	sub	sp, #12
24101d14:	af00      	add	r7, sp, #0
24101d16:	6078      	str	r0, [r7, #4]
  MODIFY_REG(RCC->CCIPR5, RCC_CCIPR5_MDF1SEL, ClkSource);
24101d18:	4b07      	ldr	r3, [pc, #28]	@ (24101d38 <LL_RCC_SetMDFClockSource+0x28>)
24101d1a:	f8d3 3154 	ldr.w	r3, [r3, #340]	@ 0x154
24101d1e:	f423 22e0 	bic.w	r2, r3, #458752	@ 0x70000
24101d22:	4905      	ldr	r1, [pc, #20]	@ (24101d38 <LL_RCC_SetMDFClockSource+0x28>)
24101d24:	687b      	ldr	r3, [r7, #4]
24101d26:	4313      	orrs	r3, r2
24101d28:	f8c1 3154 	str.w	r3, [r1, #340]	@ 0x154
}
24101d2c:	bf00      	nop
24101d2e:	370c      	adds	r7, #12
24101d30:	46bd      	mov	sp, r7
24101d32:	f85d 7b04 	ldr.w	r7, [sp], #4
24101d36:	4770      	bx	lr
24101d38:	46028000 	.word	0x46028000

24101d3c <LL_RCC_SetOTGPHYClockSource>:
{
24101d3c:	b580      	push	{r7, lr}
24101d3e:	b082      	sub	sp, #8
24101d40:	af00      	add	r7, sp, #0
24101d42:	6078      	str	r0, [r7, #4]
  LL_RCC_SetClockSource(ClkSource);
24101d44:	6878      	ldr	r0, [r7, #4]
24101d46:	f7ff fe89 	bl	24101a5c <LL_RCC_SetClockSource>
}
24101d4a:	bf00      	nop
24101d4c:	3708      	adds	r7, #8
24101d4e:	46bd      	mov	sp, r7
24101d50:	bd80      	pop	{r7, pc}

24101d52 <LL_RCC_SetOTGPHYCKREFClockSource>:
{
24101d52:	b580      	push	{r7, lr}
24101d54:	b082      	sub	sp, #8
24101d56:	af00      	add	r7, sp, #0
24101d58:	6078      	str	r0, [r7, #4]
  LL_RCC_SetClockSource(ClkSource);
24101d5a:	6878      	ldr	r0, [r7, #4]
24101d5c:	f7ff fe7e 	bl	24101a5c <LL_RCC_SetClockSource>
}
24101d60:	bf00      	nop
24101d62:	3708      	adds	r7, #8
24101d64:	46bd      	mov	sp, r7
24101d66:	bd80      	pop	{r7, pc}

24101d68 <LL_RCC_SetPSSIClockSource>:
{
24101d68:	b480      	push	{r7}
24101d6a:	b083      	sub	sp, #12
24101d6c:	af00      	add	r7, sp, #0
24101d6e:	6078      	str	r0, [r7, #4]
  MODIFY_REG(RCC->CCIPR7, RCC_CCIPR7_PSSISEL, ClkSource);
24101d70:	4b07      	ldr	r3, [pc, #28]	@ (24101d90 <LL_RCC_SetPSSIClockSource+0x28>)
24101d72:	f8d3 315c 	ldr.w	r3, [r3, #348]	@ 0x15c
24101d76:	f023 0230 	bic.w	r2, r3, #48	@ 0x30
24101d7a:	4905      	ldr	r1, [pc, #20]	@ (24101d90 <LL_RCC_SetPSSIClockSource+0x28>)
24101d7c:	687b      	ldr	r3, [r7, #4]
24101d7e:	4313      	orrs	r3, r2
24101d80:	f8c1 315c 	str.w	r3, [r1, #348]	@ 0x15c
}
24101d84:	bf00      	nop
24101d86:	370c      	adds	r7, #12
24101d88:	46bd      	mov	sp, r7
24101d8a:	f85d 7b04 	ldr.w	r7, [sp], #4
24101d8e:	4770      	bx	lr
24101d90:	46028000 	.word	0x46028000

24101d94 <LL_RCC_SetSAIClockSource>:
{
24101d94:	b580      	push	{r7, lr}
24101d96:	b082      	sub	sp, #8
24101d98:	af00      	add	r7, sp, #0
24101d9a:	6078      	str	r0, [r7, #4]
  LL_RCC_SetClockSource(ClkSource);
24101d9c:	6878      	ldr	r0, [r7, #4]
24101d9e:	f7ff fe5d 	bl	24101a5c <LL_RCC_SetClockSource>
}
24101da2:	bf00      	nop
24101da4:	3708      	adds	r7, #8
24101da6:	46bd      	mov	sp, r7
24101da8:	bd80      	pop	{r7, pc}

24101daa <LL_RCC_SetSDMMCClockSource>:
{
24101daa:	b580      	push	{r7, lr}
24101dac:	b082      	sub	sp, #8
24101dae:	af00      	add	r7, sp, #0
24101db0:	6078      	str	r0, [r7, #4]
  LL_RCC_SetClockSource(ClkSource);
24101db2:	6878      	ldr	r0, [r7, #4]
24101db4:	f7ff fe52 	bl	24101a5c <LL_RCC_SetClockSource>
}
24101db8:	bf00      	nop
24101dba:	3708      	adds	r7, #8
24101dbc:	46bd      	mov	sp, r7
24101dbe:	bd80      	pop	{r7, pc}

24101dc0 <LL_RCC_SetSPDIFRXClockSource>:
{
24101dc0:	b480      	push	{r7}
24101dc2:	b083      	sub	sp, #12
24101dc4:	af00      	add	r7, sp, #0
24101dc6:	6078      	str	r0, [r7, #4]
  MODIFY_REG(RCC->CCIPR9, RCC_CCIPR9_SPDIFRX1SEL, ClkSource);
24101dc8:	4b07      	ldr	r3, [pc, #28]	@ (24101de8 <LL_RCC_SetSPDIFRXClockSource+0x28>)
24101dca:	f8d3 3164 	ldr.w	r3, [r3, #356]	@ 0x164
24101dce:	f023 0207 	bic.w	r2, r3, #7
24101dd2:	4905      	ldr	r1, [pc, #20]	@ (24101de8 <LL_RCC_SetSPDIFRXClockSource+0x28>)
24101dd4:	687b      	ldr	r3, [r7, #4]
24101dd6:	4313      	orrs	r3, r2
24101dd8:	f8c1 3164 	str.w	r3, [r1, #356]	@ 0x164
}
24101ddc:	bf00      	nop
24101dde:	370c      	adds	r7, #12
24101de0:	46bd      	mov	sp, r7
24101de2:	f85d 7b04 	ldr.w	r7, [sp], #4
24101de6:	4770      	bx	lr
24101de8:	46028000 	.word	0x46028000

24101dec <LL_RCC_SetSPIClockSource>:
{
24101dec:	b580      	push	{r7, lr}
24101dee:	b082      	sub	sp, #8
24101df0:	af00      	add	r7, sp, #0
24101df2:	6078      	str	r0, [r7, #4]
  LL_RCC_SetClockSource(ClkSource);
24101df4:	6878      	ldr	r0, [r7, #4]
24101df6:	f7ff fe31 	bl	24101a5c <LL_RCC_SetClockSource>
}
24101dfa:	bf00      	nop
24101dfc:	3708      	adds	r7, #8
24101dfe:	46bd      	mov	sp, r7
24101e00:	bd80      	pop	{r7, pc}

24101e02 <LL_RCC_SetUSARTClockSource>:
{
24101e02:	b580      	push	{r7, lr}
24101e04:	b082      	sub	sp, #8
24101e06:	af00      	add	r7, sp, #0
24101e08:	6078      	str	r0, [r7, #4]
  LL_RCC_SetClockSource(ClkSource);
24101e0a:	6878      	ldr	r0, [r7, #4]
24101e0c:	f7ff fe26 	bl	24101a5c <LL_RCC_SetClockSource>
}
24101e10:	bf00      	nop
24101e12:	3708      	adds	r7, #8
24101e14:	46bd      	mov	sp, r7
24101e16:	bd80      	pop	{r7, pc}

24101e18 <LL_RCC_SetXSPIClockSource>:
{
24101e18:	b580      	push	{r7, lr}
24101e1a:	b082      	sub	sp, #8
24101e1c:	af00      	add	r7, sp, #0
24101e1e:	6078      	str	r0, [r7, #4]
  LL_RCC_SetClockSource(ClkSource);
24101e20:	6878      	ldr	r0, [r7, #4]
24101e22:	f7ff fe1b 	bl	24101a5c <LL_RCC_SetClockSource>
}
24101e26:	bf00      	nop
24101e28:	3708      	adds	r7, #8
24101e2a:	46bd      	mov	sp, r7
24101e2c:	bd80      	pop	{r7, pc}
	...

24101e30 <LL_RCC_GetClockSource>:
{
24101e30:	b480      	push	{r7}
24101e32:	b085      	sub	sp, #20
24101e34:	af00      	add	r7, sp, #0
24101e36:	6078      	str	r0, [r7, #4]
  const volatile uint32_t *pReg = (uint32_t *)((uint32_t)((uint32_t)(&RCC->CCIPR1) + LL_CLKSOURCE_REG(Periph)));
24101e38:	687b      	ldr	r3, [r7, #4]
24101e3a:	b2da      	uxtb	r2, r3
24101e3c:	4b0e      	ldr	r3, [pc, #56]	@ (24101e78 <LL_RCC_GetClockSource+0x48>)
24101e3e:	4413      	add	r3, r2
24101e40:	60fb      	str	r3, [r7, #12]
  return (uint32_t)(Periph | (((READ_BIT(*pReg, LL_CLKSOURCE_MASK(Periph))) >> LL_CLKSOURCE_SHIFT(Periph)) << LL_RCC_CONFIG_SHIFT));
24101e42:	68fb      	ldr	r3, [r7, #12]
24101e44:	681a      	ldr	r2, [r3, #0]
24101e46:	687b      	ldr	r3, [r7, #4]
24101e48:	0e19      	lsrs	r1, r3, #24
24101e4a:	687b      	ldr	r3, [r7, #4]
24101e4c:	0a1b      	lsrs	r3, r3, #8
24101e4e:	f003 031f 	and.w	r3, r3, #31
24101e52:	fa01 f303 	lsl.w	r3, r1, r3
24101e56:	401a      	ands	r2, r3
24101e58:	687b      	ldr	r3, [r7, #4]
24101e5a:	0a1b      	lsrs	r3, r3, #8
24101e5c:	f003 031f 	and.w	r3, r3, #31
24101e60:	fa22 f303 	lsr.w	r3, r2, r3
24101e64:	041a      	lsls	r2, r3, #16
24101e66:	687b      	ldr	r3, [r7, #4]
24101e68:	4313      	orrs	r3, r2
}
24101e6a:	4618      	mov	r0, r3
24101e6c:	3714      	adds	r7, #20
24101e6e:	46bd      	mov	sp, r7
24101e70:	f85d 7b04 	ldr.w	r7, [sp], #4
24101e74:	4770      	bx	lr
24101e76:	bf00      	nop
24101e78:	46028144 	.word	0x46028144

24101e7c <LL_RCC_GetADCClockSource>:
{
24101e7c:	b480      	push	{r7}
24101e7e:	b083      	sub	sp, #12
24101e80:	af00      	add	r7, sp, #0
24101e82:	6078      	str	r0, [r7, #4]
  return (uint32_t)(READ_BIT(RCC->CCIPR1, RCC_CCIPR1_ADC12SEL));
24101e84:	4b05      	ldr	r3, [pc, #20]	@ (24101e9c <LL_RCC_GetADCClockSource+0x20>)
24101e86:	f8d3 3144 	ldr.w	r3, [r3, #324]	@ 0x144
24101e8a:	f003 0370 	and.w	r3, r3, #112	@ 0x70
}
24101e8e:	4618      	mov	r0, r3
24101e90:	370c      	adds	r7, #12
24101e92:	46bd      	mov	sp, r7
24101e94:	f85d 7b04 	ldr.w	r7, [sp], #4
24101e98:	4770      	bx	lr
24101e9a:	bf00      	nop
24101e9c:	46028000 	.word	0x46028000

24101ea0 <LL_RCC_GetADFClockSource>:
{
24101ea0:	b480      	push	{r7}
24101ea2:	b083      	sub	sp, #12
24101ea4:	af00      	add	r7, sp, #0
24101ea6:	6078      	str	r0, [r7, #4]
  return (uint32_t)(READ_BIT(RCC->CCIPR1, RCC_CCIPR1_ADF1SEL));
24101ea8:	4b05      	ldr	r3, [pc, #20]	@ (24101ec0 <LL_RCC_GetADFClockSource+0x20>)
24101eaa:	f8d3 3144 	ldr.w	r3, [r3, #324]	@ 0x144
24101eae:	f003 0307 	and.w	r3, r3, #7
}
24101eb2:	4618      	mov	r0, r3
24101eb4:	370c      	adds	r7, #12
24101eb6:	46bd      	mov	sp, r7
24101eb8:	f85d 7b04 	ldr.w	r7, [sp], #4
24101ebc:	4770      	bx	lr
24101ebe:	bf00      	nop
24101ec0:	46028000 	.word	0x46028000

24101ec4 <LL_RCC_GetCLKPClockSource>:
{
24101ec4:	b480      	push	{r7}
24101ec6:	b083      	sub	sp, #12
24101ec8:	af00      	add	r7, sp, #0
24101eca:	6078      	str	r0, [r7, #4]
  return (uint32_t)(READ_BIT(RCC->CCIPR7, RCC_CCIPR7_PERSEL));
24101ecc:	4b05      	ldr	r3, [pc, #20]	@ (24101ee4 <LL_RCC_GetCLKPClockSource+0x20>)
24101ece:	f8d3 315c 	ldr.w	r3, [r3, #348]	@ 0x15c
24101ed2:	f003 0307 	and.w	r3, r3, #7
}
24101ed6:	4618      	mov	r0, r3
24101ed8:	370c      	adds	r7, #12
24101eda:	46bd      	mov	sp, r7
24101edc:	f85d 7b04 	ldr.w	r7, [sp], #4
24101ee0:	4770      	bx	lr
24101ee2:	bf00      	nop
24101ee4:	46028000 	.word	0x46028000

24101ee8 <LL_RCC_GetDCMIPPClockSource>:
{
24101ee8:	b480      	push	{r7}
24101eea:	b083      	sub	sp, #12
24101eec:	af00      	add	r7, sp, #0
24101eee:	6078      	str	r0, [r7, #4]
  return (uint32_t)(READ_BIT(RCC->CCIPR1, RCC_CCIPR1_DCMIPPSEL));
24101ef0:	4b05      	ldr	r3, [pc, #20]	@ (24101f08 <LL_RCC_GetDCMIPPClockSource+0x20>)
24101ef2:	f8d3 3144 	ldr.w	r3, [r3, #324]	@ 0x144
24101ef6:	f403 1340 	and.w	r3, r3, #3145728	@ 0x300000
}
24101efa:	4618      	mov	r0, r3
24101efc:	370c      	adds	r7, #12
24101efe:	46bd      	mov	sp, r7
24101f00:	f85d 7b04 	ldr.w	r7, [sp], #4
24101f04:	4770      	bx	lr
24101f06:	bf00      	nop
24101f08:	46028000 	.word	0x46028000

24101f0c <LL_RCC_GetETHClockSource>:
{
24101f0c:	b480      	push	{r7}
24101f0e:	b083      	sub	sp, #12
24101f10:	af00      	add	r7, sp, #0
24101f12:	6078      	str	r0, [r7, #4]
  return (uint32_t)(READ_BIT(RCC->CCIPR2, RCC_CCIPR2_ETH1CLKSEL));
24101f14:	4b05      	ldr	r3, [pc, #20]	@ (24101f2c <LL_RCC_GetETHClockSource+0x20>)
24101f16:	f8d3 3148 	ldr.w	r3, [r3, #328]	@ 0x148
24101f1a:	f403 5340 	and.w	r3, r3, #12288	@ 0x3000
}
24101f1e:	4618      	mov	r0, r3
24101f20:	370c      	adds	r7, #12
24101f22:	46bd      	mov	sp, r7
24101f24:	f85d 7b04 	ldr.w	r7, [sp], #4
24101f28:	4770      	bx	lr
24101f2a:	bf00      	nop
24101f2c:	46028000 	.word	0x46028000

24101f30 <LL_RCC_GetETHPTPClockSource>:
{
24101f30:	b480      	push	{r7}
24101f32:	b083      	sub	sp, #12
24101f34:	af00      	add	r7, sp, #0
24101f36:	6078      	str	r0, [r7, #4]
  return (uint32_t)(READ_BIT(RCC->CCIPR2, RCC_CCIPR2_ETH1PTPSEL));
24101f38:	4b05      	ldr	r3, [pc, #20]	@ (24101f50 <LL_RCC_GetETHPTPClockSource+0x20>)
24101f3a:	f8d3 3148 	ldr.w	r3, [r3, #328]	@ 0x148
24101f3e:	f003 0303 	and.w	r3, r3, #3
}
24101f42:	4618      	mov	r0, r3
24101f44:	370c      	adds	r7, #12
24101f46:	46bd      	mov	sp, r7
24101f48:	f85d 7b04 	ldr.w	r7, [sp], #4
24101f4c:	4770      	bx	lr
24101f4e:	bf00      	nop
24101f50:	46028000 	.word	0x46028000

24101f54 <LL_RCC_GetFDCANClockSource>:
{
24101f54:	b480      	push	{r7}
24101f56:	b083      	sub	sp, #12
24101f58:	af00      	add	r7, sp, #0
24101f5a:	6078      	str	r0, [r7, #4]
  return (uint32_t)(READ_BIT(RCC->CCIPR3, RCC_CCIPR3_FDCANSEL));
24101f5c:	4b05      	ldr	r3, [pc, #20]	@ (24101f74 <LL_RCC_GetFDCANClockSource+0x20>)
24101f5e:	f8d3 314c 	ldr.w	r3, [r3, #332]	@ 0x14c
24101f62:	f003 0303 	and.w	r3, r3, #3
}
24101f66:	4618      	mov	r0, r3
24101f68:	370c      	adds	r7, #12
24101f6a:	46bd      	mov	sp, r7
24101f6c:	f85d 7b04 	ldr.w	r7, [sp], #4
24101f70:	4770      	bx	lr
24101f72:	bf00      	nop
24101f74:	46028000 	.word	0x46028000

24101f78 <LL_RCC_GetFMCClockSource>:
{
24101f78:	b480      	push	{r7}
24101f7a:	b083      	sub	sp, #12
24101f7c:	af00      	add	r7, sp, #0
24101f7e:	6078      	str	r0, [r7, #4]
  return (uint32_t)(READ_BIT(RCC->CCIPR3, RCC_CCIPR3_FMCSEL));
24101f80:	4b05      	ldr	r3, [pc, #20]	@ (24101f98 <LL_RCC_GetFMCClockSource+0x20>)
24101f82:	f8d3 314c 	ldr.w	r3, [r3, #332]	@ 0x14c
24101f86:	f003 0330 	and.w	r3, r3, #48	@ 0x30
}
24101f8a:	4618      	mov	r0, r3
24101f8c:	370c      	adds	r7, #12
24101f8e:	46bd      	mov	sp, r7
24101f90:	f85d 7b04 	ldr.w	r7, [sp], #4
24101f94:	4770      	bx	lr
24101f96:	bf00      	nop
24101f98:	46028000 	.word	0x46028000

24101f9c <LL_RCC_GetI2CClockSource>:
{
24101f9c:	b580      	push	{r7, lr}
24101f9e:	b082      	sub	sp, #8
24101fa0:	af00      	add	r7, sp, #0
24101fa2:	6078      	str	r0, [r7, #4]
  return LL_RCC_GetClockSource(Periph);
24101fa4:	6878      	ldr	r0, [r7, #4]
24101fa6:	f7ff ff43 	bl	24101e30 <LL_RCC_GetClockSource>
24101faa:	4603      	mov	r3, r0
}
24101fac:	4618      	mov	r0, r3
24101fae:	3708      	adds	r7, #8
24101fb0:	46bd      	mov	sp, r7
24101fb2:	bd80      	pop	{r7, pc}

24101fb4 <LL_RCC_GetI3CClockSource>:
{
24101fb4:	b580      	push	{r7, lr}
24101fb6:	b082      	sub	sp, #8
24101fb8:	af00      	add	r7, sp, #0
24101fba:	6078      	str	r0, [r7, #4]
  return LL_RCC_GetClockSource(Periph);
24101fbc:	6878      	ldr	r0, [r7, #4]
24101fbe:	f7ff ff37 	bl	24101e30 <LL_RCC_GetClockSource>
24101fc2:	4603      	mov	r3, r0
}
24101fc4:	4618      	mov	r0, r3
24101fc6:	3708      	adds	r7, #8
24101fc8:	46bd      	mov	sp, r7
24101fca:	bd80      	pop	{r7, pc}

24101fcc <LL_RCC_GetLPTIMClockSource>:
{
24101fcc:	b580      	push	{r7, lr}
24101fce:	b082      	sub	sp, #8
24101fd0:	af00      	add	r7, sp, #0
24101fd2:	6078      	str	r0, [r7, #4]
  return LL_RCC_GetClockSource(Periph);
24101fd4:	6878      	ldr	r0, [r7, #4]
24101fd6:	f7ff ff2b 	bl	24101e30 <LL_RCC_GetClockSource>
24101fda:	4603      	mov	r3, r0
}
24101fdc:	4618      	mov	r0, r3
24101fde:	3708      	adds	r7, #8
24101fe0:	46bd      	mov	sp, r7
24101fe2:	bd80      	pop	{r7, pc}

24101fe4 <LL_RCC_GetLPUARTClockSource>:
{
24101fe4:	b480      	push	{r7}
24101fe6:	b083      	sub	sp, #12
24101fe8:	af00      	add	r7, sp, #0
24101fea:	6078      	str	r0, [r7, #4]
  return (uint32_t)(READ_BIT(RCC->CCIPR14, RCC_CCIPR14_LPUART1SEL));
24101fec:	4b05      	ldr	r3, [pc, #20]	@ (24102004 <LL_RCC_GetLPUARTClockSource+0x20>)
24101fee:	f8d3 3178 	ldr.w	r3, [r3, #376]	@ 0x178
24101ff2:	f403 63e0 	and.w	r3, r3, #1792	@ 0x700
}
24101ff6:	4618      	mov	r0, r3
24101ff8:	370c      	adds	r7, #12
24101ffa:	46bd      	mov	sp, r7
24101ffc:	f85d 7b04 	ldr.w	r7, [sp], #4
24102000:	4770      	bx	lr
24102002:	bf00      	nop
24102004:	46028000 	.word	0x46028000

24102008 <LL_RCC_GetLTDCClockSource>:
{
24102008:	b480      	push	{r7}
2410200a:	b083      	sub	sp, #12
2410200c:	af00      	add	r7, sp, #0
2410200e:	6078      	str	r0, [r7, #4]
  return (uint32_t)(READ_BIT(RCC->CCIPR4, RCC_CCIPR4_LTDCSEL));
24102010:	4b05      	ldr	r3, [pc, #20]	@ (24102028 <LL_RCC_GetLTDCClockSource+0x20>)
24102012:	f8d3 3150 	ldr.w	r3, [r3, #336]	@ 0x150
24102016:	f003 7340 	and.w	r3, r3, #50331648	@ 0x3000000
}
2410201a:	4618      	mov	r0, r3
2410201c:	370c      	adds	r7, #12
2410201e:	46bd      	mov	sp, r7
24102020:	f85d 7b04 	ldr.w	r7, [sp], #4
24102024:	4770      	bx	lr
24102026:	bf00      	nop
24102028:	46028000 	.word	0x46028000

2410202c <LL_RCC_GetMDFClockSource>:
{
2410202c:	b480      	push	{r7}
2410202e:	b083      	sub	sp, #12
24102030:	af00      	add	r7, sp, #0
24102032:	6078      	str	r0, [r7, #4]
  return (uint32_t)(READ_BIT(RCC->CCIPR5, RCC_CCIPR5_MDF1SEL));
24102034:	4b05      	ldr	r3, [pc, #20]	@ (2410204c <LL_RCC_GetMDFClockSource+0x20>)
24102036:	f8d3 3154 	ldr.w	r3, [r3, #340]	@ 0x154
2410203a:	f403 23e0 	and.w	r3, r3, #458752	@ 0x70000
}
2410203e:	4618      	mov	r0, r3
24102040:	370c      	adds	r7, #12
24102042:	46bd      	mov	sp, r7
24102044:	f85d 7b04 	ldr.w	r7, [sp], #4
24102048:	4770      	bx	lr
2410204a:	bf00      	nop
2410204c:	46028000 	.word	0x46028000

24102050 <LL_RCC_GetPSSIClockSource>:
{
24102050:	b480      	push	{r7}
24102052:	b083      	sub	sp, #12
24102054:	af00      	add	r7, sp, #0
24102056:	6078      	str	r0, [r7, #4]
  return (uint32_t)(READ_BIT(RCC->CCIPR7, RCC_CCIPR7_PSSISEL));
24102058:	4b05      	ldr	r3, [pc, #20]	@ (24102070 <LL_RCC_GetPSSIClockSource+0x20>)
2410205a:	f8d3 315c 	ldr.w	r3, [r3, #348]	@ 0x15c
2410205e:	f003 0330 	and.w	r3, r3, #48	@ 0x30
}
24102062:	4618      	mov	r0, r3
24102064:	370c      	adds	r7, #12
24102066:	46bd      	mov	sp, r7
24102068:	f85d 7b04 	ldr.w	r7, [sp], #4
2410206c:	4770      	bx	lr
2410206e:	bf00      	nop
24102070:	46028000 	.word	0x46028000

24102074 <LL_RCC_GetSAIClockSource>:
{
24102074:	b580      	push	{r7, lr}
24102076:	b082      	sub	sp, #8
24102078:	af00      	add	r7, sp, #0
2410207a:	6078      	str	r0, [r7, #4]
  return LL_RCC_GetClockSource(Periph);
2410207c:	6878      	ldr	r0, [r7, #4]
2410207e:	f7ff fed7 	bl	24101e30 <LL_RCC_GetClockSource>
24102082:	4603      	mov	r3, r0
}
24102084:	4618      	mov	r0, r3
24102086:	3708      	adds	r7, #8
24102088:	46bd      	mov	sp, r7
2410208a:	bd80      	pop	{r7, pc}

2410208c <LL_RCC_GetSDMMCClockSource>:
{
2410208c:	b580      	push	{r7, lr}
2410208e:	b082      	sub	sp, #8
24102090:	af00      	add	r7, sp, #0
24102092:	6078      	str	r0, [r7, #4]
  return LL_RCC_GetClockSource(Periph);
24102094:	6878      	ldr	r0, [r7, #4]
24102096:	f7ff fecb 	bl	24101e30 <LL_RCC_GetClockSource>
2410209a:	4603      	mov	r3, r0
}
2410209c:	4618      	mov	r0, r3
2410209e:	3708      	adds	r7, #8
241020a0:	46bd      	mov	sp, r7
241020a2:	bd80      	pop	{r7, pc}

241020a4 <LL_RCC_GetSPDIFRXClockSource>:
{
241020a4:	b480      	push	{r7}
241020a6:	b083      	sub	sp, #12
241020a8:	af00      	add	r7, sp, #0
241020aa:	6078      	str	r0, [r7, #4]
  return (uint32_t)(READ_BIT(RCC->CCIPR9, RCC_CCIPR9_SPDIFRX1SEL));
241020ac:	4b05      	ldr	r3, [pc, #20]	@ (241020c4 <LL_RCC_GetSPDIFRXClockSource+0x20>)
241020ae:	f8d3 3164 	ldr.w	r3, [r3, #356]	@ 0x164
241020b2:	f003 0307 	and.w	r3, r3, #7
}
241020b6:	4618      	mov	r0, r3
241020b8:	370c      	adds	r7, #12
241020ba:	46bd      	mov	sp, r7
241020bc:	f85d 7b04 	ldr.w	r7, [sp], #4
241020c0:	4770      	bx	lr
241020c2:	bf00      	nop
241020c4:	46028000 	.word	0x46028000

241020c8 <LL_RCC_GetSPIClockSource>:
{
241020c8:	b580      	push	{r7, lr}
241020ca:	b082      	sub	sp, #8
241020cc:	af00      	add	r7, sp, #0
241020ce:	6078      	str	r0, [r7, #4]
  return LL_RCC_GetClockSource(Periph);
241020d0:	6878      	ldr	r0, [r7, #4]
241020d2:	f7ff fead 	bl	24101e30 <LL_RCC_GetClockSource>
241020d6:	4603      	mov	r3, r0
}
241020d8:	4618      	mov	r0, r3
241020da:	3708      	adds	r7, #8
241020dc:	46bd      	mov	sp, r7
241020de:	bd80      	pop	{r7, pc}

241020e0 <LL_RCC_GetUSARTClockSource>:
{
241020e0:	b580      	push	{r7, lr}
241020e2:	b082      	sub	sp, #8
241020e4:	af00      	add	r7, sp, #0
241020e6:	6078      	str	r0, [r7, #4]
  return LL_RCC_GetClockSource(Periph);
241020e8:	6878      	ldr	r0, [r7, #4]
241020ea:	f7ff fea1 	bl	24101e30 <LL_RCC_GetClockSource>
241020ee:	4603      	mov	r3, r0
}
241020f0:	4618      	mov	r0, r3
241020f2:	3708      	adds	r7, #8
241020f4:	46bd      	mov	sp, r7
241020f6:	bd80      	pop	{r7, pc}

241020f8 <LL_RCC_GetUARTClockSource>:
{
241020f8:	b580      	push	{r7, lr}
241020fa:	b082      	sub	sp, #8
241020fc:	af00      	add	r7, sp, #0
241020fe:	6078      	str	r0, [r7, #4]
  return LL_RCC_GetClockSource(Periph);
24102100:	6878      	ldr	r0, [r7, #4]
24102102:	f7ff fe95 	bl	24101e30 <LL_RCC_GetClockSource>
24102106:	4603      	mov	r3, r0
}
24102108:	4618      	mov	r0, r3
2410210a:	3708      	adds	r7, #8
2410210c:	46bd      	mov	sp, r7
2410210e:	bd80      	pop	{r7, pc}

24102110 <LL_RCC_GetUSBClockSource>:
{
24102110:	b580      	push	{r7, lr}
24102112:	b082      	sub	sp, #8
24102114:	af00      	add	r7, sp, #0
24102116:	6078      	str	r0, [r7, #4]
  return LL_RCC_GetClockSource(Periph);
24102118:	6878      	ldr	r0, [r7, #4]
2410211a:	f7ff fe89 	bl	24101e30 <LL_RCC_GetClockSource>
2410211e:	4603      	mov	r3, r0
}
24102120:	4618      	mov	r0, r3
24102122:	3708      	adds	r7, #8
24102124:	46bd      	mov	sp, r7
24102126:	bd80      	pop	{r7, pc}

24102128 <LL_RCC_GetXSPIClockSource>:
{
24102128:	b580      	push	{r7, lr}
2410212a:	b082      	sub	sp, #8
2410212c:	af00      	add	r7, sp, #0
2410212e:	6078      	str	r0, [r7, #4]
  return LL_RCC_GetClockSource(Periph);
24102130:	6878      	ldr	r0, [r7, #4]
24102132:	f7ff fe7d 	bl	24101e30 <LL_RCC_GetClockSource>
24102136:	4603      	mov	r3, r0
}
24102138:	4618      	mov	r0, r3
2410213a:	3708      	adds	r7, #8
2410213c:	46bd      	mov	sp, r7
2410213e:	bd80      	pop	{r7, pc}

24102140 <LL_RCC_SetRTCClockSource>:
{
24102140:	b480      	push	{r7}
24102142:	b083      	sub	sp, #12
24102144:	af00      	add	r7, sp, #0
24102146:	6078      	str	r0, [r7, #4]
  MODIFY_REG(RCC->CCIPR7, RCC_CCIPR7_RTCSEL, Source);
24102148:	4b07      	ldr	r3, [pc, #28]	@ (24102168 <LL_RCC_SetRTCClockSource+0x28>)
2410214a:	f8d3 315c 	ldr.w	r3, [r3, #348]	@ 0x15c
2410214e:	f423 7240 	bic.w	r2, r3, #768	@ 0x300
24102152:	4905      	ldr	r1, [pc, #20]	@ (24102168 <LL_RCC_SetRTCClockSource+0x28>)
24102154:	687b      	ldr	r3, [r7, #4]
24102156:	4313      	orrs	r3, r2
24102158:	f8c1 315c 	str.w	r3, [r1, #348]	@ 0x15c
}
2410215c:	bf00      	nop
2410215e:	370c      	adds	r7, #12
24102160:	46bd      	mov	sp, r7
24102162:	f85d 7b04 	ldr.w	r7, [sp], #4
24102166:	4770      	bx	lr
24102168:	46028000 	.word	0x46028000

2410216c <LL_RCC_GetRTCClockSource>:
{
2410216c:	b480      	push	{r7}
2410216e:	af00      	add	r7, sp, #0
  return (uint32_t)(READ_BIT(RCC->CCIPR7, RCC_CCIPR7_RTCSEL));
24102170:	4b04      	ldr	r3, [pc, #16]	@ (24102184 <LL_RCC_GetRTCClockSource+0x18>)
24102172:	f8d3 315c 	ldr.w	r3, [r3, #348]	@ 0x15c
24102176:	f403 7340 	and.w	r3, r3, #768	@ 0x300
}
2410217a:	4618      	mov	r0, r3
2410217c:	46bd      	mov	sp, r7
2410217e:	f85d 7b04 	ldr.w	r7, [sp], #4
24102182:	4770      	bx	lr
24102184:	46028000 	.word	0x46028000

24102188 <LL_RCC_SetRTC_HSEPrescaler>:
{
24102188:	b480      	push	{r7}
2410218a:	b083      	sub	sp, #12
2410218c:	af00      	add	r7, sp, #0
2410218e:	6078      	str	r0, [r7, #4]
  MODIFY_REG(RCC->CCIPR7, RCC_CCIPR7_RTCPRE, Prescaler);
24102190:	4b07      	ldr	r3, [pc, #28]	@ (241021b0 <LL_RCC_SetRTC_HSEPrescaler+0x28>)
24102192:	f8d3 315c 	ldr.w	r3, [r3, #348]	@ 0x15c
24102196:	f423 327c 	bic.w	r2, r3, #258048	@ 0x3f000
2410219a:	4905      	ldr	r1, [pc, #20]	@ (241021b0 <LL_RCC_SetRTC_HSEPrescaler+0x28>)
2410219c:	687b      	ldr	r3, [r7, #4]
2410219e:	4313      	orrs	r3, r2
241021a0:	f8c1 315c 	str.w	r3, [r1, #348]	@ 0x15c
}
241021a4:	bf00      	nop
241021a6:	370c      	adds	r7, #12
241021a8:	46bd      	mov	sp, r7
241021aa:	f85d 7b04 	ldr.w	r7, [sp], #4
241021ae:	4770      	bx	lr
241021b0:	46028000 	.word	0x46028000

241021b4 <LL_RCC_SetTIMPrescaler>:
{
241021b4:	b480      	push	{r7}
241021b6:	b083      	sub	sp, #12
241021b8:	af00      	add	r7, sp, #0
241021ba:	6078      	str	r0, [r7, #4]
  MODIFY_REG(RCC->CFGR2, RCC_CFGR2_TIMPRE, Prescaler << RCC_CFGR2_TIMPRE_Pos);
241021bc:	4b07      	ldr	r3, [pc, #28]	@ (241021dc <LL_RCC_SetTIMPrescaler+0x28>)
241021be:	6a5b      	ldr	r3, [r3, #36]	@ 0x24
241021c0:	f023 7240 	bic.w	r2, r3, #50331648	@ 0x3000000
241021c4:	687b      	ldr	r3, [r7, #4]
241021c6:	061b      	lsls	r3, r3, #24
241021c8:	4904      	ldr	r1, [pc, #16]	@ (241021dc <LL_RCC_SetTIMPrescaler+0x28>)
241021ca:	4313      	orrs	r3, r2
241021cc:	624b      	str	r3, [r1, #36]	@ 0x24
}
241021ce:	bf00      	nop
241021d0:	370c      	adds	r7, #12
241021d2:	46bd      	mov	sp, r7
241021d4:	f85d 7b04 	ldr.w	r7, [sp], #4
241021d8:	4770      	bx	lr
241021da:	bf00      	nop
241021dc:	46028000 	.word	0x46028000

241021e0 <LL_RCC_GetTIMPrescaler>:
{
241021e0:	b480      	push	{r7}
241021e2:	af00      	add	r7, sp, #0
  return (uint32_t)(READ_BIT(RCC->CFGR2, RCC_CFGR2_TIMPRE) >> RCC_CFGR2_TIMPRE_Pos);
241021e4:	4b04      	ldr	r3, [pc, #16]	@ (241021f8 <LL_RCC_GetTIMPrescaler+0x18>)
241021e6:	6a5b      	ldr	r3, [r3, #36]	@ 0x24
241021e8:	0e1b      	lsrs	r3, r3, #24
241021ea:	f003 0303 	and.w	r3, r3, #3
}
241021ee:	4618      	mov	r0, r3
241021f0:	46bd      	mov	sp, r7
241021f2:	f85d 7b04 	ldr.w	r7, [sp], #4
241021f6:	4770      	bx	lr
241021f8:	46028000 	.word	0x46028000

241021fc <LL_RCC_PLL1_GetSource>:
{
241021fc:	b480      	push	{r7}
241021fe:	af00      	add	r7, sp, #0
  return (uint32_t)(READ_BIT(RCC->PLL1CFGR1, RCC_PLL1CFGR1_PLL1SEL));
24102200:	4b04      	ldr	r3, [pc, #16]	@ (24102214 <LL_RCC_PLL1_GetSource+0x18>)
24102202:	f8d3 3080 	ldr.w	r3, [r3, #128]	@ 0x80
24102206:	f003 43e0 	and.w	r3, r3, #1879048192	@ 0x70000000
}
2410220a:	4618      	mov	r0, r3
2410220c:	46bd      	mov	sp, r7
2410220e:	f85d 7b04 	ldr.w	r7, [sp], #4
24102212:	4770      	bx	lr
24102214:	46028000 	.word	0x46028000

24102218 <LL_RCC_PLL1_IsReady>:
{
24102218:	b480      	push	{r7}
2410221a:	af00      	add	r7, sp, #0
  return ((READ_BIT(RCC->SR, RCC_SR_PLL1RDY) == (RCC_SR_PLL1RDY)) ? 1UL : 0UL);
2410221c:	4b07      	ldr	r3, [pc, #28]	@ (2410223c <LL_RCC_PLL1_IsReady+0x24>)
2410221e:	685b      	ldr	r3, [r3, #4]
24102220:	f403 7380 	and.w	r3, r3, #256	@ 0x100
24102224:	f5b3 7f80 	cmp.w	r3, #256	@ 0x100
24102228:	d101      	bne.n	2410222e <LL_RCC_PLL1_IsReady+0x16>
2410222a:	2301      	movs	r3, #1
2410222c:	e000      	b.n	24102230 <LL_RCC_PLL1_IsReady+0x18>
2410222e:	2300      	movs	r3, #0
}
24102230:	4618      	mov	r0, r3
24102232:	46bd      	mov	sp, r7
24102234:	f85d 7b04 	ldr.w	r7, [sp], #4
24102238:	4770      	bx	lr
2410223a:	bf00      	nop
2410223c:	46028000 	.word	0x46028000

24102240 <LL_RCC_PLL1_IsEnabledBypass>:
{
24102240:	b480      	push	{r7}
24102242:	af00      	add	r7, sp, #0
  return ((READ_BIT(RCC->PLL1CFGR1, RCC_PLL1CFGR1_PLL1BYP) == RCC_PLL1CFGR1_PLL1BYP) ? 1UL : 0UL);
24102244:	4b07      	ldr	r3, [pc, #28]	@ (24102264 <LL_RCC_PLL1_IsEnabledBypass+0x24>)
24102246:	f8d3 3080 	ldr.w	r3, [r3, #128]	@ 0x80
2410224a:	f003 6300 	and.w	r3, r3, #134217728	@ 0x8000000
2410224e:	f1b3 6f00 	cmp.w	r3, #134217728	@ 0x8000000
24102252:	d101      	bne.n	24102258 <LL_RCC_PLL1_IsEnabledBypass+0x18>
24102254:	2301      	movs	r3, #1
24102256:	e000      	b.n	2410225a <LL_RCC_PLL1_IsEnabledBypass+0x1a>
24102258:	2300      	movs	r3, #0
}
2410225a:	4618      	mov	r0, r3
2410225c:	46bd      	mov	sp, r7
2410225e:	f85d 7b04 	ldr.w	r7, [sp], #4
24102262:	4770      	bx	lr
24102264:	46028000 	.word	0x46028000

24102268 <LL_RCC_PLL1_GetN>:
{
24102268:	b480      	push	{r7}
2410226a:	af00      	add	r7, sp, #0
  return (uint32_t)((READ_BIT(RCC->PLL1CFGR1, RCC_PLL1CFGR1_PLL1DIVN) >> RCC_PLL1CFGR1_PLL1DIVN_Pos));
2410226c:	4b05      	ldr	r3, [pc, #20]	@ (24102284 <LL_RCC_PLL1_GetN+0x1c>)
2410226e:	f8d3 3080 	ldr.w	r3, [r3, #128]	@ 0x80
24102272:	0a1b      	lsrs	r3, r3, #8
24102274:	f3c3 030b 	ubfx	r3, r3, #0, #12
}
24102278:	4618      	mov	r0, r3
2410227a:	46bd      	mov	sp, r7
2410227c:	f85d 7b04 	ldr.w	r7, [sp], #4
24102280:	4770      	bx	lr
24102282:	bf00      	nop
24102284:	46028000 	.word	0x46028000

24102288 <LL_RCC_PLL1_GetM>:
{
24102288:	b480      	push	{r7}
2410228a:	af00      	add	r7, sp, #0
  return (uint32_t)(READ_BIT(RCC->PLL1CFGR1, RCC_PLL1CFGR1_PLL1DIVM) >> RCC_PLL1CFGR1_PLL1DIVM_Pos);
2410228c:	4b05      	ldr	r3, [pc, #20]	@ (241022a4 <LL_RCC_PLL1_GetM+0x1c>)
2410228e:	f8d3 3080 	ldr.w	r3, [r3, #128]	@ 0x80
24102292:	0d1b      	lsrs	r3, r3, #20
24102294:	f003 033f 	and.w	r3, r3, #63	@ 0x3f
}
24102298:	4618      	mov	r0, r3
2410229a:	46bd      	mov	sp, r7
2410229c:	f85d 7b04 	ldr.w	r7, [sp], #4
241022a0:	4770      	bx	lr
241022a2:	bf00      	nop
241022a4:	46028000 	.word	0x46028000

241022a8 <LL_RCC_PLL1_GetP1>:
{
241022a8:	b480      	push	{r7}
241022aa:	af00      	add	r7, sp, #0
  return (uint32_t)(READ_BIT(RCC->PLL1CFGR3, RCC_PLL1CFGR3_PLL1PDIV1) >> RCC_PLL1CFGR3_PLL1PDIV1_Pos);
241022ac:	4b05      	ldr	r3, [pc, #20]	@ (241022c4 <LL_RCC_PLL1_GetP1+0x1c>)
241022ae:	f8d3 3088 	ldr.w	r3, [r3, #136]	@ 0x88
241022b2:	0edb      	lsrs	r3, r3, #27
241022b4:	f003 0307 	and.w	r3, r3, #7
}
241022b8:	4618      	mov	r0, r3
241022ba:	46bd      	mov	sp, r7
241022bc:	f85d 7b04 	ldr.w	r7, [sp], #4
241022c0:	4770      	bx	lr
241022c2:	bf00      	nop
241022c4:	46028000 	.word	0x46028000

241022c8 <LL_RCC_PLL1_GetP2>:
{
241022c8:	b480      	push	{r7}
241022ca:	af00      	add	r7, sp, #0
  return (uint32_t)(READ_BIT(RCC->PLL1CFGR3, RCC_PLL1CFGR3_PLL1PDIV2) >> RCC_PLL1CFGR3_PLL1PDIV2_Pos);
241022cc:	4b05      	ldr	r3, [pc, #20]	@ (241022e4 <LL_RCC_PLL1_GetP2+0x1c>)
241022ce:	f8d3 3088 	ldr.w	r3, [r3, #136]	@ 0x88
241022d2:	0e1b      	lsrs	r3, r3, #24
241022d4:	f003 0307 	and.w	r3, r3, #7
}
241022d8:	4618      	mov	r0, r3
241022da:	46bd      	mov	sp, r7
241022dc:	f85d 7b04 	ldr.w	r7, [sp], #4
241022e0:	4770      	bx	lr
241022e2:	bf00      	nop
241022e4:	46028000 	.word	0x46028000

241022e8 <LL_RCC_PLL1P_IsEnabled>:
{
241022e8:	b480      	push	{r7}
241022ea:	af00      	add	r7, sp, #0
  return ((READ_BIT(RCC->PLL1CFGR3, RCC_PLL1CFGR3_PLL1PDIVEN) == RCC_PLL1CFGR3_PLL1PDIVEN) ? 1UL : 0UL);
241022ec:	4b07      	ldr	r3, [pc, #28]	@ (2410230c <LL_RCC_PLL1P_IsEnabled+0x24>)
241022ee:	f8d3 3088 	ldr.w	r3, [r3, #136]	@ 0x88
241022f2:	f003 4380 	and.w	r3, r3, #1073741824	@ 0x40000000
241022f6:	f1b3 4f80 	cmp.w	r3, #1073741824	@ 0x40000000
241022fa:	d101      	bne.n	24102300 <LL_RCC_PLL1P_IsEnabled+0x18>
241022fc:	2301      	movs	r3, #1
241022fe:	e000      	b.n	24102302 <LL_RCC_PLL1P_IsEnabled+0x1a>
24102300:	2300      	movs	r3, #0
}
24102302:	4618      	mov	r0, r3
24102304:	46bd      	mov	sp, r7
24102306:	f85d 7b04 	ldr.w	r7, [sp], #4
2410230a:	4770      	bx	lr
2410230c:	46028000 	.word	0x46028000

24102310 <LL_RCC_PLL1_GetFRACN>:
{
24102310:	b480      	push	{r7}
24102312:	af00      	add	r7, sp, #0
  return (uint32_t)(READ_BIT(RCC->PLL1CFGR2, RCC_PLL1CFGR2_PLL1DIVNFRAC) >> RCC_PLL1CFGR2_PLL1DIVNFRAC_Pos);
24102314:	4b04      	ldr	r3, [pc, #16]	@ (24102328 <LL_RCC_PLL1_GetFRACN+0x18>)
24102316:	f8d3 3084 	ldr.w	r3, [r3, #132]	@ 0x84
2410231a:	f023 437f 	bic.w	r3, r3, #4278190080	@ 0xff000000
}
2410231e:	4618      	mov	r0, r3
24102320:	46bd      	mov	sp, r7
24102322:	f85d 7b04 	ldr.w	r7, [sp], #4
24102326:	4770      	bx	lr
24102328:	46028000 	.word	0x46028000

2410232c <LL_RCC_PLL2_GetSource>:
{
2410232c:	b480      	push	{r7}
2410232e:	af00      	add	r7, sp, #0
  return (uint32_t)(READ_BIT(RCC->PLL2CFGR1, RCC_PLL2CFGR1_PLL2SEL));
24102330:	4b04      	ldr	r3, [pc, #16]	@ (24102344 <LL_RCC_PLL2_GetSource+0x18>)
24102332:	f8d3 3090 	ldr.w	r3, [r3, #144]	@ 0x90
24102336:	f003 43e0 	and.w	r3, r3, #1879048192	@ 0x70000000
}
2410233a:	4618      	mov	r0, r3
2410233c:	46bd      	mov	sp, r7
2410233e:	f85d 7b04 	ldr.w	r7, [sp], #4
24102342:	4770      	bx	lr
24102344:	46028000 	.word	0x46028000

24102348 <LL_RCC_PLL2_IsReady>:
{
24102348:	b480      	push	{r7}
2410234a:	af00      	add	r7, sp, #0
  return ((READ_BIT(RCC->SR, RCC_SR_PLL2RDY) == (RCC_SR_PLL2RDY)) ? 1UL : 0UL);
2410234c:	4b07      	ldr	r3, [pc, #28]	@ (2410236c <LL_RCC_PLL2_IsReady+0x24>)
2410234e:	685b      	ldr	r3, [r3, #4]
24102350:	f403 7300 	and.w	r3, r3, #512	@ 0x200
24102354:	f5b3 7f00 	cmp.w	r3, #512	@ 0x200
24102358:	d101      	bne.n	2410235e <LL_RCC_PLL2_IsReady+0x16>
2410235a:	2301      	movs	r3, #1
2410235c:	e000      	b.n	24102360 <LL_RCC_PLL2_IsReady+0x18>
2410235e:	2300      	movs	r3, #0
}
24102360:	4618      	mov	r0, r3
24102362:	46bd      	mov	sp, r7
24102364:	f85d 7b04 	ldr.w	r7, [sp], #4
24102368:	4770      	bx	lr
2410236a:	bf00      	nop
2410236c:	46028000 	.word	0x46028000

24102370 <LL_RCC_PLL2_IsEnabledBypass>:
{
24102370:	b480      	push	{r7}
24102372:	af00      	add	r7, sp, #0
  return ((READ_BIT(RCC->PLL2CFGR1, RCC_PLL2CFGR1_PLL2BYP) == RCC_PLL2CFGR1_PLL2BYP) ? 1UL : 0UL);
24102374:	4b07      	ldr	r3, [pc, #28]	@ (24102394 <LL_RCC_PLL2_IsEnabledBypass+0x24>)
24102376:	f8d3 3090 	ldr.w	r3, [r3, #144]	@ 0x90
2410237a:	f003 6300 	and.w	r3, r3, #134217728	@ 0x8000000
2410237e:	f1b3 6f00 	cmp.w	r3, #134217728	@ 0x8000000
24102382:	d101      	bne.n	24102388 <LL_RCC_PLL2_IsEnabledBypass+0x18>
24102384:	2301      	movs	r3, #1
24102386:	e000      	b.n	2410238a <LL_RCC_PLL2_IsEnabledBypass+0x1a>
24102388:	2300      	movs	r3, #0
}
2410238a:	4618      	mov	r0, r3
2410238c:	46bd      	mov	sp, r7
2410238e:	f85d 7b04 	ldr.w	r7, [sp], #4
24102392:	4770      	bx	lr
24102394:	46028000 	.word	0x46028000

24102398 <LL_RCC_PLL2_GetN>:
{
24102398:	b480      	push	{r7}
2410239a:	af00      	add	r7, sp, #0
  return (uint32_t)((READ_BIT(RCC->PLL2CFGR1, RCC_PLL2CFGR1_PLL2DIVN) >> RCC_PLL2CFGR1_PLL2DIVN_Pos));
2410239c:	4b05      	ldr	r3, [pc, #20]	@ (241023b4 <LL_RCC_PLL2_GetN+0x1c>)
2410239e:	f8d3 3090 	ldr.w	r3, [r3, #144]	@ 0x90
241023a2:	0a1b      	lsrs	r3, r3, #8
241023a4:	f3c3 030b 	ubfx	r3, r3, #0, #12
}
241023a8:	4618      	mov	r0, r3
241023aa:	46bd      	mov	sp, r7
241023ac:	f85d 7b04 	ldr.w	r7, [sp], #4
241023b0:	4770      	bx	lr
241023b2:	bf00      	nop
241023b4:	46028000 	.word	0x46028000

241023b8 <LL_RCC_PLL2_GetM>:
{
241023b8:	b480      	push	{r7}
241023ba:	af00      	add	r7, sp, #0
  return (uint32_t)(READ_BIT(RCC->PLL2CFGR1, RCC_PLL2CFGR1_PLL2DIVM) >> RCC_PLL2CFGR1_PLL2DIVM_Pos);
241023bc:	4b05      	ldr	r3, [pc, #20]	@ (241023d4 <LL_RCC_PLL2_GetM+0x1c>)
241023be:	f8d3 3090 	ldr.w	r3, [r3, #144]	@ 0x90
241023c2:	0d1b      	lsrs	r3, r3, #20
241023c4:	f003 033f 	and.w	r3, r3, #63	@ 0x3f
}
241023c8:	4618      	mov	r0, r3
241023ca:	46bd      	mov	sp, r7
241023cc:	f85d 7b04 	ldr.w	r7, [sp], #4
241023d0:	4770      	bx	lr
241023d2:	bf00      	nop
241023d4:	46028000 	.word	0x46028000

241023d8 <LL_RCC_PLL2_GetP1>:
{
241023d8:	b480      	push	{r7}
241023da:	af00      	add	r7, sp, #0
  return (uint32_t)(READ_BIT(RCC->PLL2CFGR3, RCC_PLL2CFGR3_PLL2PDIV1) >> RCC_PLL2CFGR3_PLL2PDIV1_Pos);
241023dc:	4b05      	ldr	r3, [pc, #20]	@ (241023f4 <LL_RCC_PLL2_GetP1+0x1c>)
241023de:	f8d3 3098 	ldr.w	r3, [r3, #152]	@ 0x98
241023e2:	0edb      	lsrs	r3, r3, #27
241023e4:	f003 0307 	and.w	r3, r3, #7
}
241023e8:	4618      	mov	r0, r3
241023ea:	46bd      	mov	sp, r7
241023ec:	f85d 7b04 	ldr.w	r7, [sp], #4
241023f0:	4770      	bx	lr
241023f2:	bf00      	nop
241023f4:	46028000 	.word	0x46028000

241023f8 <LL_RCC_PLL2_GetP2>:
{
241023f8:	b480      	push	{r7}
241023fa:	af00      	add	r7, sp, #0
  return (uint32_t)(READ_BIT(RCC->PLL2CFGR3, RCC_PLL2CFGR3_PLL2PDIV2) >> RCC_PLL2CFGR3_PLL2PDIV2_Pos);
241023fc:	4b05      	ldr	r3, [pc, #20]	@ (24102414 <LL_RCC_PLL2_GetP2+0x1c>)
241023fe:	f8d3 3098 	ldr.w	r3, [r3, #152]	@ 0x98
24102402:	0e1b      	lsrs	r3, r3, #24
24102404:	f003 0307 	and.w	r3, r3, #7
}
24102408:	4618      	mov	r0, r3
2410240a:	46bd      	mov	sp, r7
2410240c:	f85d 7b04 	ldr.w	r7, [sp], #4
24102410:	4770      	bx	lr
24102412:	bf00      	nop
24102414:	46028000 	.word	0x46028000

24102418 <LL_RCC_PLL2P_IsEnabled>:
{
24102418:	b480      	push	{r7}
2410241a:	af00      	add	r7, sp, #0
  return ((READ_BIT(RCC->PLL2CFGR3, RCC_PLL2CFGR3_PLL2PDIVEN) == RCC_PLL2CFGR3_PLL2PDIVEN) ? 1UL : 0UL);
2410241c:	4b07      	ldr	r3, [pc, #28]	@ (2410243c <LL_RCC_PLL2P_IsEnabled+0x24>)
2410241e:	f8d3 3098 	ldr.w	r3, [r3, #152]	@ 0x98
24102422:	f003 4380 	and.w	r3, r3, #1073741824	@ 0x40000000
24102426:	f1b3 4f80 	cmp.w	r3, #1073741824	@ 0x40000000
2410242a:	d101      	bne.n	24102430 <LL_RCC_PLL2P_IsEnabled+0x18>
2410242c:	2301      	movs	r3, #1
2410242e:	e000      	b.n	24102432 <LL_RCC_PLL2P_IsEnabled+0x1a>
24102430:	2300      	movs	r3, #0
}
24102432:	4618      	mov	r0, r3
24102434:	46bd      	mov	sp, r7
24102436:	f85d 7b04 	ldr.w	r7, [sp], #4
2410243a:	4770      	bx	lr
2410243c:	46028000 	.word	0x46028000

24102440 <LL_RCC_PLL2_GetFRACN>:
{
24102440:	b480      	push	{r7}
24102442:	af00      	add	r7, sp, #0
  return (uint32_t)(READ_BIT(RCC->PLL2CFGR2, RCC_PLL2CFGR2_PLL2DIVNFRAC) >> RCC_PLL2CFGR2_PLL2DIVNFRAC_Pos);
24102444:	4b04      	ldr	r3, [pc, #16]	@ (24102458 <LL_RCC_PLL2_GetFRACN+0x18>)
24102446:	f8d3 3094 	ldr.w	r3, [r3, #148]	@ 0x94
2410244a:	f023 437f 	bic.w	r3, r3, #4278190080	@ 0xff000000
}
2410244e:	4618      	mov	r0, r3
24102450:	46bd      	mov	sp, r7
24102452:	f85d 7b04 	ldr.w	r7, [sp], #4
24102456:	4770      	bx	lr
24102458:	46028000 	.word	0x46028000

2410245c <LL_RCC_PLL3_GetSource>:
{
2410245c:	b480      	push	{r7}
2410245e:	af00      	add	r7, sp, #0
  return (uint32_t)(READ_BIT(RCC->PLL3CFGR1, RCC_PLL3CFGR1_PLL3SEL));
24102460:	4b04      	ldr	r3, [pc, #16]	@ (24102474 <LL_RCC_PLL3_GetSource+0x18>)
24102462:	f8d3 30a0 	ldr.w	r3, [r3, #160]	@ 0xa0
24102466:	f003 43e0 	and.w	r3, r3, #1879048192	@ 0x70000000
}
2410246a:	4618      	mov	r0, r3
2410246c:	46bd      	mov	sp, r7
2410246e:	f85d 7b04 	ldr.w	r7, [sp], #4
24102472:	4770      	bx	lr
24102474:	46028000 	.word	0x46028000

24102478 <LL_RCC_PLL3_IsReady>:
{
24102478:	b480      	push	{r7}
2410247a:	af00      	add	r7, sp, #0
  return ((READ_BIT(RCC->SR, RCC_SR_PLL3RDY) == (RCC_SR_PLL3RDY)) ? 1UL : 0UL);
2410247c:	4b07      	ldr	r3, [pc, #28]	@ (2410249c <LL_RCC_PLL3_IsReady+0x24>)
2410247e:	685b      	ldr	r3, [r3, #4]
24102480:	f403 6380 	and.w	r3, r3, #1024	@ 0x400
24102484:	f5b3 6f80 	cmp.w	r3, #1024	@ 0x400
24102488:	d101      	bne.n	2410248e <LL_RCC_PLL3_IsReady+0x16>
2410248a:	2301      	movs	r3, #1
2410248c:	e000      	b.n	24102490 <LL_RCC_PLL3_IsReady+0x18>
2410248e:	2300      	movs	r3, #0
}
24102490:	4618      	mov	r0, r3
24102492:	46bd      	mov	sp, r7
24102494:	f85d 7b04 	ldr.w	r7, [sp], #4
24102498:	4770      	bx	lr
2410249a:	bf00      	nop
2410249c:	46028000 	.word	0x46028000

241024a0 <LL_RCC_PLL3_IsEnabledBypass>:
{
241024a0:	b480      	push	{r7}
241024a2:	af00      	add	r7, sp, #0
  return ((READ_BIT(RCC->PLL3CFGR1, RCC_PLL3CFGR1_PLL3BYP) == RCC_PLL3CFGR1_PLL3BYP) ? 1UL : 0UL);
241024a4:	4b07      	ldr	r3, [pc, #28]	@ (241024c4 <LL_RCC_PLL3_IsEnabledBypass+0x24>)
241024a6:	f8d3 30a0 	ldr.w	r3, [r3, #160]	@ 0xa0
241024aa:	f003 6300 	and.w	r3, r3, #134217728	@ 0x8000000
241024ae:	f1b3 6f00 	cmp.w	r3, #134217728	@ 0x8000000
241024b2:	d101      	bne.n	241024b8 <LL_RCC_PLL3_IsEnabledBypass+0x18>
241024b4:	2301      	movs	r3, #1
241024b6:	e000      	b.n	241024ba <LL_RCC_PLL3_IsEnabledBypass+0x1a>
241024b8:	2300      	movs	r3, #0
}
241024ba:	4618      	mov	r0, r3
241024bc:	46bd      	mov	sp, r7
241024be:	f85d 7b04 	ldr.w	r7, [sp], #4
241024c2:	4770      	bx	lr
241024c4:	46028000 	.word	0x46028000

241024c8 <LL_RCC_PLL3_GetN>:
{
241024c8:	b480      	push	{r7}
241024ca:	af00      	add	r7, sp, #0
  return (uint32_t)((READ_BIT(RCC->PLL3CFGR1, RCC_PLL3CFGR1_PLL3DIVN) >> RCC_PLL3CFGR1_PLL3DIVN_Pos));
241024cc:	4b05      	ldr	r3, [pc, #20]	@ (241024e4 <LL_RCC_PLL3_GetN+0x1c>)
241024ce:	f8d3 30a0 	ldr.w	r3, [r3, #160]	@ 0xa0
241024d2:	0a1b      	lsrs	r3, r3, #8
241024d4:	f3c3 030b 	ubfx	r3, r3, #0, #12
}
241024d8:	4618      	mov	r0, r3
241024da:	46bd      	mov	sp, r7
241024dc:	f85d 7b04 	ldr.w	r7, [sp], #4
241024e0:	4770      	bx	lr
241024e2:	bf00      	nop
241024e4:	46028000 	.word	0x46028000

241024e8 <LL_RCC_PLL3_GetM>:
{
241024e8:	b480      	push	{r7}
241024ea:	af00      	add	r7, sp, #0
  return (uint32_t)(READ_BIT(RCC->PLL3CFGR1, RCC_PLL3CFGR1_PLL3DIVM) >> RCC_PLL3CFGR1_PLL3DIVM_Pos);
241024ec:	4b05      	ldr	r3, [pc, #20]	@ (24102504 <LL_RCC_PLL3_GetM+0x1c>)
241024ee:	f8d3 30a0 	ldr.w	r3, [r3, #160]	@ 0xa0
241024f2:	0d1b      	lsrs	r3, r3, #20
241024f4:	f003 033f 	and.w	r3, r3, #63	@ 0x3f
}
241024f8:	4618      	mov	r0, r3
241024fa:	46bd      	mov	sp, r7
241024fc:	f85d 7b04 	ldr.w	r7, [sp], #4
24102500:	4770      	bx	lr
24102502:	bf00      	nop
24102504:	46028000 	.word	0x46028000

24102508 <LL_RCC_PLL3_GetP1>:
{
24102508:	b480      	push	{r7}
2410250a:	af00      	add	r7, sp, #0
  return (uint32_t)(READ_BIT(RCC->PLL3CFGR3, RCC_PLL3CFGR3_PLL3PDIV1) >> RCC_PLL3CFGR3_PLL3PDIV1_Pos);
2410250c:	4b05      	ldr	r3, [pc, #20]	@ (24102524 <LL_RCC_PLL3_GetP1+0x1c>)
2410250e:	f8d3 30a8 	ldr.w	r3, [r3, #168]	@ 0xa8
24102512:	0edb      	lsrs	r3, r3, #27
24102514:	f003 0307 	and.w	r3, r3, #7
}
24102518:	4618      	mov	r0, r3
2410251a:	46bd      	mov	sp, r7
2410251c:	f85d 7b04 	ldr.w	r7, [sp], #4
24102520:	4770      	bx	lr
24102522:	bf00      	nop
24102524:	46028000 	.word	0x46028000

24102528 <LL_RCC_PLL3_GetP2>:
{
24102528:	b480      	push	{r7}
2410252a:	af00      	add	r7, sp, #0
  return (uint32_t)(READ_BIT(RCC->PLL3CFGR3, RCC_PLL3CFGR3_PLL3PDIV2) >> RCC_PLL3CFGR3_PLL3PDIV2_Pos);
2410252c:	4b05      	ldr	r3, [pc, #20]	@ (24102544 <LL_RCC_PLL3_GetP2+0x1c>)
2410252e:	f8d3 30a8 	ldr.w	r3, [r3, #168]	@ 0xa8
24102532:	0e1b      	lsrs	r3, r3, #24
24102534:	f003 0307 	and.w	r3, r3, #7
}
24102538:	4618      	mov	r0, r3
2410253a:	46bd      	mov	sp, r7
2410253c:	f85d 7b04 	ldr.w	r7, [sp], #4
24102540:	4770      	bx	lr
24102542:	bf00      	nop
24102544:	46028000 	.word	0x46028000

24102548 <LL_RCC_PLL3P_IsEnabled>:
{
24102548:	b480      	push	{r7}
2410254a:	af00      	add	r7, sp, #0
  return ((READ_BIT(RCC->PLL3CFGR3, RCC_PLL3CFGR3_PLL3PDIVEN) == RCC_PLL3CFGR3_PLL3PDIVEN) ? 1UL : 0UL);
2410254c:	4b07      	ldr	r3, [pc, #28]	@ (2410256c <LL_RCC_PLL3P_IsEnabled+0x24>)
2410254e:	f8d3 30a8 	ldr.w	r3, [r3, #168]	@ 0xa8
24102552:	f003 4380 	and.w	r3, r3, #1073741824	@ 0x40000000
24102556:	f1b3 4f80 	cmp.w	r3, #1073741824	@ 0x40000000
2410255a:	d101      	bne.n	24102560 <LL_RCC_PLL3P_IsEnabled+0x18>
2410255c:	2301      	movs	r3, #1
2410255e:	e000      	b.n	24102562 <LL_RCC_PLL3P_IsEnabled+0x1a>
24102560:	2300      	movs	r3, #0
}
24102562:	4618      	mov	r0, r3
24102564:	46bd      	mov	sp, r7
24102566:	f85d 7b04 	ldr.w	r7, [sp], #4
2410256a:	4770      	bx	lr
2410256c:	46028000 	.word	0x46028000

24102570 <LL_RCC_PLL3_GetFRACN>:
{
24102570:	b480      	push	{r7}
24102572:	af00      	add	r7, sp, #0
  return (uint32_t)(READ_BIT(RCC->PLL3CFGR2, RCC_PLL3CFGR2_PLL3DIVNFRAC) >> RCC_PLL3CFGR2_PLL3DIVNFRAC_Pos);
24102574:	4b04      	ldr	r3, [pc, #16]	@ (24102588 <LL_RCC_PLL3_GetFRACN+0x18>)
24102576:	f8d3 30a4 	ldr.w	r3, [r3, #164]	@ 0xa4
2410257a:	f023 437f 	bic.w	r3, r3, #4278190080	@ 0xff000000
}
2410257e:	4618      	mov	r0, r3
24102580:	46bd      	mov	sp, r7
24102582:	f85d 7b04 	ldr.w	r7, [sp], #4
24102586:	4770      	bx	lr
24102588:	46028000 	.word	0x46028000

2410258c <LL_RCC_PLL4_GetSource>:
{
2410258c:	b480      	push	{r7}
2410258e:	af00      	add	r7, sp, #0
  return (uint32_t)(READ_BIT(RCC->PLL4CFGR1, RCC_PLL4CFGR1_PLL4SEL));
24102590:	4b04      	ldr	r3, [pc, #16]	@ (241025a4 <LL_RCC_PLL4_GetSource+0x18>)
24102592:	f8d3 30b0 	ldr.w	r3, [r3, #176]	@ 0xb0
24102596:	f003 43e0 	and.w	r3, r3, #1879048192	@ 0x70000000
}
2410259a:	4618      	mov	r0, r3
2410259c:	46bd      	mov	sp, r7
2410259e:	f85d 7b04 	ldr.w	r7, [sp], #4
241025a2:	4770      	bx	lr
241025a4:	46028000 	.word	0x46028000

241025a8 <LL_RCC_PLL4_IsReady>:
{
241025a8:	b480      	push	{r7}
241025aa:	af00      	add	r7, sp, #0
  return ((READ_BIT(RCC->SR, RCC_SR_PLL4RDY) == (RCC_SR_PLL4RDY)) ? 1UL : 0UL);
241025ac:	4b07      	ldr	r3, [pc, #28]	@ (241025cc <LL_RCC_PLL4_IsReady+0x24>)
241025ae:	685b      	ldr	r3, [r3, #4]
241025b0:	f403 6300 	and.w	r3, r3, #2048	@ 0x800
241025b4:	f5b3 6f00 	cmp.w	r3, #2048	@ 0x800
241025b8:	d101      	bne.n	241025be <LL_RCC_PLL4_IsReady+0x16>
241025ba:	2301      	movs	r3, #1
241025bc:	e000      	b.n	241025c0 <LL_RCC_PLL4_IsReady+0x18>
241025be:	2300      	movs	r3, #0
}
241025c0:	4618      	mov	r0, r3
241025c2:	46bd      	mov	sp, r7
241025c4:	f85d 7b04 	ldr.w	r7, [sp], #4
241025c8:	4770      	bx	lr
241025ca:	bf00      	nop
241025cc:	46028000 	.word	0x46028000

241025d0 <LL_RCC_PLL4_IsEnabledBypass>:
{
241025d0:	b480      	push	{r7}
241025d2:	af00      	add	r7, sp, #0
  return ((READ_BIT(RCC->PLL4CFGR1, RCC_PLL4CFGR1_PLL4BYP) == RCC_PLL4CFGR1_PLL4BYP) ? 1UL : 0UL);
241025d4:	4b07      	ldr	r3, [pc, #28]	@ (241025f4 <LL_RCC_PLL4_IsEnabledBypass+0x24>)
241025d6:	f8d3 30b0 	ldr.w	r3, [r3, #176]	@ 0xb0
241025da:	f003 6300 	and.w	r3, r3, #134217728	@ 0x8000000
241025de:	f1b3 6f00 	cmp.w	r3, #134217728	@ 0x8000000
241025e2:	d101      	bne.n	241025e8 <LL_RCC_PLL4_IsEnabledBypass+0x18>
241025e4:	2301      	movs	r3, #1
241025e6:	e000      	b.n	241025ea <LL_RCC_PLL4_IsEnabledBypass+0x1a>
241025e8:	2300      	movs	r3, #0
}
241025ea:	4618      	mov	r0, r3
241025ec:	46bd      	mov	sp, r7
241025ee:	f85d 7b04 	ldr.w	r7, [sp], #4
241025f2:	4770      	bx	lr
241025f4:	46028000 	.word	0x46028000

241025f8 <LL_RCC_PLL4_GetN>:
{
241025f8:	b480      	push	{r7}
241025fa:	af00      	add	r7, sp, #0
  return (uint32_t)((READ_BIT(RCC->PLL4CFGR1, RCC_PLL4CFGR1_PLL4DIVN) >> RCC_PLL4CFGR1_PLL4DIVN_Pos));
241025fc:	4b05      	ldr	r3, [pc, #20]	@ (24102614 <LL_RCC_PLL4_GetN+0x1c>)
241025fe:	f8d3 30b0 	ldr.w	r3, [r3, #176]	@ 0xb0
24102602:	0a1b      	lsrs	r3, r3, #8
24102604:	f3c3 030b 	ubfx	r3, r3, #0, #12
}
24102608:	4618      	mov	r0, r3
2410260a:	46bd      	mov	sp, r7
2410260c:	f85d 7b04 	ldr.w	r7, [sp], #4
24102610:	4770      	bx	lr
24102612:	bf00      	nop
24102614:	46028000 	.word	0x46028000

24102618 <LL_RCC_PLL4_GetM>:
{
24102618:	b480      	push	{r7}
2410261a:	af00      	add	r7, sp, #0
  return (uint32_t)(READ_BIT(RCC->PLL4CFGR1, RCC_PLL4CFGR1_PLL4DIVM) >> RCC_PLL4CFGR1_PLL4DIVM_Pos);
2410261c:	4b05      	ldr	r3, [pc, #20]	@ (24102634 <LL_RCC_PLL4_GetM+0x1c>)
2410261e:	f8d3 30b0 	ldr.w	r3, [r3, #176]	@ 0xb0
24102622:	0d1b      	lsrs	r3, r3, #20
24102624:	f003 033f 	and.w	r3, r3, #63	@ 0x3f
}
24102628:	4618      	mov	r0, r3
2410262a:	46bd      	mov	sp, r7
2410262c:	f85d 7b04 	ldr.w	r7, [sp], #4
24102630:	4770      	bx	lr
24102632:	bf00      	nop
24102634:	46028000 	.word	0x46028000

24102638 <LL_RCC_PLL4_GetP1>:
{
24102638:	b480      	push	{r7}
2410263a:	af00      	add	r7, sp, #0
  return (uint32_t)(READ_BIT(RCC->PLL4CFGR3, RCC_PLL4CFGR3_PLL4PDIV1) >> RCC_PLL4CFGR3_PLL4PDIV1_Pos);
2410263c:	4b05      	ldr	r3, [pc, #20]	@ (24102654 <LL_RCC_PLL4_GetP1+0x1c>)
2410263e:	f8d3 30b8 	ldr.w	r3, [r3, #184]	@ 0xb8
24102642:	0edb      	lsrs	r3, r3, #27
24102644:	f003 0307 	and.w	r3, r3, #7
}
24102648:	4618      	mov	r0, r3
2410264a:	46bd      	mov	sp, r7
2410264c:	f85d 7b04 	ldr.w	r7, [sp], #4
24102650:	4770      	bx	lr
24102652:	bf00      	nop
24102654:	46028000 	.word	0x46028000

24102658 <LL_RCC_PLL4_GetP2>:
{
24102658:	b480      	push	{r7}
2410265a:	af00      	add	r7, sp, #0
  return (uint32_t)(READ_BIT(RCC->PLL4CFGR3, RCC_PLL4CFGR3_PLL4PDIV2) >> RCC_PLL4CFGR3_PLL4PDIV2_Pos);
2410265c:	4b05      	ldr	r3, [pc, #20]	@ (24102674 <LL_RCC_PLL4_GetP2+0x1c>)
2410265e:	f8d3 30b8 	ldr.w	r3, [r3, #184]	@ 0xb8
24102662:	0e1b      	lsrs	r3, r3, #24
24102664:	f003 0307 	and.w	r3, r3, #7
}
24102668:	4618      	mov	r0, r3
2410266a:	46bd      	mov	sp, r7
2410266c:	f85d 7b04 	ldr.w	r7, [sp], #4
24102670:	4770      	bx	lr
24102672:	bf00      	nop
24102674:	46028000 	.word	0x46028000

24102678 <LL_RCC_PLL4P_IsEnabled>:
{
24102678:	b480      	push	{r7}
2410267a:	af00      	add	r7, sp, #0
  return ((READ_BIT(RCC->PLL4CFGR3, RCC_PLL4CFGR3_PLL4PDIVEN) == RCC_PLL4CFGR3_PLL4PDIVEN) ? 1UL : 0UL);
2410267c:	4b07      	ldr	r3, [pc, #28]	@ (2410269c <LL_RCC_PLL4P_IsEnabled+0x24>)
2410267e:	f8d3 30b8 	ldr.w	r3, [r3, #184]	@ 0xb8
24102682:	f003 4380 	and.w	r3, r3, #1073741824	@ 0x40000000
24102686:	f1b3 4f80 	cmp.w	r3, #1073741824	@ 0x40000000
2410268a:	d101      	bne.n	24102690 <LL_RCC_PLL4P_IsEnabled+0x18>
2410268c:	2301      	movs	r3, #1
2410268e:	e000      	b.n	24102692 <LL_RCC_PLL4P_IsEnabled+0x1a>
24102690:	2300      	movs	r3, #0
}
24102692:	4618      	mov	r0, r3
24102694:	46bd      	mov	sp, r7
24102696:	f85d 7b04 	ldr.w	r7, [sp], #4
2410269a:	4770      	bx	lr
2410269c:	46028000 	.word	0x46028000

241026a0 <LL_RCC_PLL4_GetFRACN>:
{
241026a0:	b480      	push	{r7}
241026a2:	af00      	add	r7, sp, #0
  return (uint32_t)(READ_BIT(RCC->PLL4CFGR2, RCC_PLL4CFGR2_PLL4DIVNFRAC) >> RCC_PLL4CFGR2_PLL4DIVNFRAC_Pos);
241026a4:	4b04      	ldr	r3, [pc, #16]	@ (241026b8 <LL_RCC_PLL4_GetFRACN+0x18>)
241026a6:	f8d3 30b4 	ldr.w	r3, [r3, #180]	@ 0xb4
241026aa:	f023 437f 	bic.w	r3, r3, #4278190080	@ 0xff000000
}
241026ae:	4618      	mov	r0, r3
241026b0:	46bd      	mov	sp, r7
241026b2:	f85d 7b04 	ldr.w	r7, [sp], #4
241026b6:	4770      	bx	lr
241026b8:	46028000 	.word	0x46028000

241026bc <LL_RCC_IC3_Enable>:
  * @brief  Enable IC3
  * @rmtoll DIVENSR       IC3ENS        LL_RCC_IC3_Enable
  * @retval None
  */
__STATIC_INLINE void LL_RCC_IC3_Enable(void)
{
241026bc:	b480      	push	{r7}
241026be:	af00      	add	r7, sp, #0
  WRITE_REG(RCC->DIVENSR, RCC_DIVENSR_IC3ENS);
241026c0:	4b04      	ldr	r3, [pc, #16]	@ (241026d4 <LL_RCC_IC3_Enable+0x18>)
241026c2:	2204      	movs	r2, #4
241026c4:	f8c3 2a40 	str.w	r2, [r3, #2624]	@ 0xa40
}
241026c8:	bf00      	nop
241026ca:	46bd      	mov	sp, r7
241026cc:	f85d 7b04 	ldr.w	r7, [sp], #4
241026d0:	4770      	bx	lr
241026d2:	bf00      	nop
241026d4:	46028000 	.word	0x46028000

241026d8 <LL_RCC_IC3_IsEnabled>:
  * @brief  Check if IC3 is enabled
  * @rmtoll DIVENR       IC3EN         LL_RCC_IC3_IsEnabled
  * @retval State of bit (1 or 0).
  */
__STATIC_INLINE uint32_t LL_RCC_IC3_IsEnabled(void)
{
241026d8:	b480      	push	{r7}
241026da:	af00      	add	r7, sp, #0
  return ((READ_BIT(RCC->DIVENR, RCC_DIVENR_IC3EN) == RCC_DIVENR_IC3EN) ? 1UL : 0UL);
241026dc:	4b07      	ldr	r3, [pc, #28]	@ (241026fc <LL_RCC_IC3_IsEnabled+0x24>)
241026de:	f8d3 3240 	ldr.w	r3, [r3, #576]	@ 0x240
241026e2:	f003 0304 	and.w	r3, r3, #4
241026e6:	2b04      	cmp	r3, #4
241026e8:	d101      	bne.n	241026ee <LL_RCC_IC3_IsEnabled+0x16>
241026ea:	2301      	movs	r3, #1
241026ec:	e000      	b.n	241026f0 <LL_RCC_IC3_IsEnabled+0x18>
241026ee:	2300      	movs	r3, #0
}
241026f0:	4618      	mov	r0, r3
241026f2:	46bd      	mov	sp, r7
241026f4:	f85d 7b04 	ldr.w	r7, [sp], #4
241026f8:	4770      	bx	lr
241026fa:	bf00      	nop
241026fc:	46028000 	.word	0x46028000

24102700 <LL_RCC_IC3_GetSource>:
  *         @arg @ref LL_RCC_ICCLKSOURCE_PLL2
  *         @arg @ref LL_RCC_ICCLKSOURCE_PLL3
  *         @arg @ref LL_RCC_ICCLKSOURCE_PLL4
  */
__STATIC_INLINE uint32_t LL_RCC_IC3_GetSource(void)
{
24102700:	b480      	push	{r7}
24102702:	af00      	add	r7, sp, #0
  return (uint32_t)(READ_BIT(RCC->IC3CFGR, RCC_IC3CFGR_IC3SEL));
24102704:	4b04      	ldr	r3, [pc, #16]	@ (24102718 <LL_RCC_IC3_GetSource+0x18>)
24102706:	f8d3 30cc 	ldr.w	r3, [r3, #204]	@ 0xcc
2410270a:	f003 5340 	and.w	r3, r3, #805306368	@ 0x30000000
}
2410270e:	4618      	mov	r0, r3
24102710:	46bd      	mov	sp, r7
24102712:	f85d 7b04 	ldr.w	r7, [sp], #4
24102716:	4770      	bx	lr
24102718:	46028000 	.word	0x46028000

2410271c <LL_RCC_IC3_GetDivider>:
  * @brief  Get IC3 divider
  * @rmtoll IC3CFGR      IC3INT        LL_RCC_IC3_GetDivider
  * @retval can be a value between 1 and 256.
  */
__STATIC_INLINE uint32_t LL_RCC_IC3_GetDivider(void)
{
2410271c:	b480      	push	{r7}
2410271e:	af00      	add	r7, sp, #0
  return ((READ_BIT(RCC->IC3CFGR, RCC_IC3CFGR_IC3INT) >> RCC_IC3CFGR_IC3INT_Pos) + 1UL);
24102720:	4b05      	ldr	r3, [pc, #20]	@ (24102738 <LL_RCC_IC3_GetDivider+0x1c>)
24102722:	f8d3 30cc 	ldr.w	r3, [r3, #204]	@ 0xcc
24102726:	0c1b      	lsrs	r3, r3, #16
24102728:	b2db      	uxtb	r3, r3
2410272a:	3301      	adds	r3, #1
}
2410272c:	4618      	mov	r0, r3
2410272e:	46bd      	mov	sp, r7
24102730:	f85d 7b04 	ldr.w	r7, [sp], #4
24102734:	4770      	bx	lr
24102736:	bf00      	nop
24102738:	46028000 	.word	0x46028000

2410273c <LL_RCC_IC4_Enable>:
  * @brief  Enable IC4
  * @rmtoll DIVENSR       IC4ENS        LL_RCC_IC4_Enable
  * @retval None
  */
__STATIC_INLINE void LL_RCC_IC4_Enable(void)
{
2410273c:	b480      	push	{r7}
2410273e:	af00      	add	r7, sp, #0
  WRITE_REG(RCC->DIVENSR, RCC_DIVENSR_IC4ENS);
24102740:	4b04      	ldr	r3, [pc, #16]	@ (24102754 <LL_RCC_IC4_Enable+0x18>)
24102742:	2208      	movs	r2, #8
24102744:	f8c3 2a40 	str.w	r2, [r3, #2624]	@ 0xa40
}
24102748:	bf00      	nop
2410274a:	46bd      	mov	sp, r7
2410274c:	f85d 7b04 	ldr.w	r7, [sp], #4
24102750:	4770      	bx	lr
24102752:	bf00      	nop
24102754:	46028000 	.word	0x46028000

24102758 <LL_RCC_IC4_IsEnabled>:
  * @brief  Check if IC4 is enabled
  * @rmtoll DIVENR       IC4EN         LL_RCC_IC4_IsEnabled
  * @retval State of bit (1 or 0).
  */
__STATIC_INLINE uint32_t LL_RCC_IC4_IsEnabled(void)
{
24102758:	b480      	push	{r7}
2410275a:	af00      	add	r7, sp, #0
  return ((READ_BIT(RCC->DIVENR, RCC_DIVENR_IC4EN) == RCC_DIVENR_IC4EN) ? 1UL : 0UL);
2410275c:	4b07      	ldr	r3, [pc, #28]	@ (2410277c <LL_RCC_IC4_IsEnabled+0x24>)
2410275e:	f8d3 3240 	ldr.w	r3, [r3, #576]	@ 0x240
24102762:	f003 0308 	and.w	r3, r3, #8
24102766:	2b08      	cmp	r3, #8
24102768:	d101      	bne.n	2410276e <LL_RCC_IC4_IsEnabled+0x16>
2410276a:	2301      	movs	r3, #1
2410276c:	e000      	b.n	24102770 <LL_RCC_IC4_IsEnabled+0x18>
2410276e:	2300      	movs	r3, #0
}
24102770:	4618      	mov	r0, r3
24102772:	46bd      	mov	sp, r7
24102774:	f85d 7b04 	ldr.w	r7, [sp], #4
24102778:	4770      	bx	lr
2410277a:	bf00      	nop
2410277c:	46028000 	.word	0x46028000

24102780 <LL_RCC_IC4_GetSource>:
  *         @arg @ref LL_RCC_ICCLKSOURCE_PLL2
  *         @arg @ref LL_RCC_ICCLKSOURCE_PLL3
  *         @arg @ref LL_RCC_ICCLKSOURCE_PLL4
  */
__STATIC_INLINE uint32_t LL_RCC_IC4_GetSource(void)
{
24102780:	b480      	push	{r7}
24102782:	af00      	add	r7, sp, #0
  return (uint32_t)(READ_BIT(RCC->IC4CFGR, RCC_IC4CFGR_IC4SEL));
24102784:	4b04      	ldr	r3, [pc, #16]	@ (24102798 <LL_RCC_IC4_GetSource+0x18>)
24102786:	f8d3 30d0 	ldr.w	r3, [r3, #208]	@ 0xd0
2410278a:	f003 5340 	and.w	r3, r3, #805306368	@ 0x30000000
}
2410278e:	4618      	mov	r0, r3
24102790:	46bd      	mov	sp, r7
24102792:	f85d 7b04 	ldr.w	r7, [sp], #4
24102796:	4770      	bx	lr
24102798:	46028000 	.word	0x46028000

2410279c <LL_RCC_IC4_GetDivider>:
  * @brief  Get IC4 divider
  * @rmtoll IC4CFGR      IC4INT        LL_RCC_IC4_GetDivider
  * @retval can be a value between 1 and 256.
  */
__STATIC_INLINE uint32_t LL_RCC_IC4_GetDivider(void)
{
2410279c:	b480      	push	{r7}
2410279e:	af00      	add	r7, sp, #0
  return ((READ_BIT(RCC->IC4CFGR, RCC_IC4CFGR_IC4INT) >> RCC_IC4CFGR_IC4INT_Pos) + 1UL);
241027a0:	4b05      	ldr	r3, [pc, #20]	@ (241027b8 <LL_RCC_IC4_GetDivider+0x1c>)
241027a2:	f8d3 30d0 	ldr.w	r3, [r3, #208]	@ 0xd0
241027a6:	0c1b      	lsrs	r3, r3, #16
241027a8:	b2db      	uxtb	r3, r3
241027aa:	3301      	adds	r3, #1
}
241027ac:	4618      	mov	r0, r3
241027ae:	46bd      	mov	sp, r7
241027b0:	f85d 7b04 	ldr.w	r7, [sp], #4
241027b4:	4770      	bx	lr
241027b6:	bf00      	nop
241027b8:	46028000 	.word	0x46028000

241027bc <LL_RCC_IC5_Enable>:
  * @brief  Enable IC5
  * @rmtoll DIVENSR       IC5ENS        LL_RCC_IC5_Enable
  * @retval None
  */
__STATIC_INLINE void LL_RCC_IC5_Enable(void)
{
241027bc:	b480      	push	{r7}
241027be:	af00      	add	r7, sp, #0
  WRITE_REG(RCC->DIVENSR, RCC_DIVENSR_IC5ENS);
241027c0:	4b04      	ldr	r3, [pc, #16]	@ (241027d4 <LL_RCC_IC5_Enable+0x18>)
241027c2:	2210      	movs	r2, #16
241027c4:	f8c3 2a40 	str.w	r2, [r3, #2624]	@ 0xa40
}
241027c8:	bf00      	nop
241027ca:	46bd      	mov	sp, r7
241027cc:	f85d 7b04 	ldr.w	r7, [sp], #4
241027d0:	4770      	bx	lr
241027d2:	bf00      	nop
241027d4:	46028000 	.word	0x46028000

241027d8 <LL_RCC_IC5_IsEnabled>:
  * @brief  Check if IC5 is enabled
  * @rmtoll DIVENR       IC5EN         LL_RCC_IC5_IsEnabled
  * @retval State of bit (1 or 0).
  */
__STATIC_INLINE uint32_t LL_RCC_IC5_IsEnabled(void)
{
241027d8:	b480      	push	{r7}
241027da:	af00      	add	r7, sp, #0
  return ((READ_BIT(RCC->DIVENR, RCC_DIVENR_IC5EN) == RCC_DIVENR_IC5EN) ? 1UL : 0UL);
241027dc:	4b07      	ldr	r3, [pc, #28]	@ (241027fc <LL_RCC_IC5_IsEnabled+0x24>)
241027de:	f8d3 3240 	ldr.w	r3, [r3, #576]	@ 0x240
241027e2:	f003 0310 	and.w	r3, r3, #16
241027e6:	2b10      	cmp	r3, #16
241027e8:	d101      	bne.n	241027ee <LL_RCC_IC5_IsEnabled+0x16>
241027ea:	2301      	movs	r3, #1
241027ec:	e000      	b.n	241027f0 <LL_RCC_IC5_IsEnabled+0x18>
241027ee:	2300      	movs	r3, #0
}
241027f0:	4618      	mov	r0, r3
241027f2:	46bd      	mov	sp, r7
241027f4:	f85d 7b04 	ldr.w	r7, [sp], #4
241027f8:	4770      	bx	lr
241027fa:	bf00      	nop
241027fc:	46028000 	.word	0x46028000

24102800 <LL_RCC_IC5_GetSource>:
  *         @arg @ref LL_RCC_ICCLKSOURCE_PLL2
  *         @arg @ref LL_RCC_ICCLKSOURCE_PLL3
  *         @arg @ref LL_RCC_ICCLKSOURCE_PLL4
  */
__STATIC_INLINE uint32_t LL_RCC_IC5_GetSource(void)
{
24102800:	b480      	push	{r7}
24102802:	af00      	add	r7, sp, #0
  return (uint32_t)(READ_BIT(RCC->IC5CFGR, RCC_IC5CFGR_IC5SEL));
24102804:	4b04      	ldr	r3, [pc, #16]	@ (24102818 <LL_RCC_IC5_GetSource+0x18>)
24102806:	f8d3 30d4 	ldr.w	r3, [r3, #212]	@ 0xd4
2410280a:	f003 5340 	and.w	r3, r3, #805306368	@ 0x30000000
}
2410280e:	4618      	mov	r0, r3
24102810:	46bd      	mov	sp, r7
24102812:	f85d 7b04 	ldr.w	r7, [sp], #4
24102816:	4770      	bx	lr
24102818:	46028000 	.word	0x46028000

2410281c <LL_RCC_IC5_GetDivider>:
  * @brief  Get IC5 divider
  * @rmtoll IC5CFGR      IC5INT        LL_RCC_IC5_GetDivider
  * @retval can be a value between 1 and 256.
  */
__STATIC_INLINE uint32_t LL_RCC_IC5_GetDivider(void)
{
2410281c:	b480      	push	{r7}
2410281e:	af00      	add	r7, sp, #0
  return ((READ_BIT(RCC->IC5CFGR, RCC_IC5CFGR_IC5INT) >> RCC_IC5CFGR_IC5INT_Pos) + 1UL);
24102820:	4b05      	ldr	r3, [pc, #20]	@ (24102838 <LL_RCC_IC5_GetDivider+0x1c>)
24102822:	f8d3 30d4 	ldr.w	r3, [r3, #212]	@ 0xd4
24102826:	0c1b      	lsrs	r3, r3, #16
24102828:	b2db      	uxtb	r3, r3
2410282a:	3301      	adds	r3, #1
}
2410282c:	4618      	mov	r0, r3
2410282e:	46bd      	mov	sp, r7
24102830:	f85d 7b04 	ldr.w	r7, [sp], #4
24102834:	4770      	bx	lr
24102836:	bf00      	nop
24102838:	46028000 	.word	0x46028000

2410283c <LL_RCC_IC7_Enable>:
  * @brief  Enable IC7
  * @rmtoll DIVENSR       IC7ENS        LL_RCC_IC7_Enable
  * @retval None
  */
__STATIC_INLINE void LL_RCC_IC7_Enable(void)
{
2410283c:	b480      	push	{r7}
2410283e:	af00      	add	r7, sp, #0
  WRITE_REG(RCC->DIVENSR, RCC_DIVENSR_IC7ENS);
24102840:	4b04      	ldr	r3, [pc, #16]	@ (24102854 <LL_RCC_IC7_Enable+0x18>)
24102842:	2240      	movs	r2, #64	@ 0x40
24102844:	f8c3 2a40 	str.w	r2, [r3, #2624]	@ 0xa40
}
24102848:	bf00      	nop
2410284a:	46bd      	mov	sp, r7
2410284c:	f85d 7b04 	ldr.w	r7, [sp], #4
24102850:	4770      	bx	lr
24102852:	bf00      	nop
24102854:	46028000 	.word	0x46028000

24102858 <LL_RCC_IC7_IsEnabled>:
  * @brief  Check if IC7 is enabled
  * @rmtoll DIVENR       IC7EN         LL_RCC_IC7_IsEnabled
  * @retval State of bit (1 or 0).
  */
__STATIC_INLINE uint32_t LL_RCC_IC7_IsEnabled(void)
{
24102858:	b480      	push	{r7}
2410285a:	af00      	add	r7, sp, #0
  return ((READ_BIT(RCC->DIVENR, RCC_DIVENR_IC7EN) == RCC_DIVENR_IC7EN) ? 1UL : 0UL);
2410285c:	4b07      	ldr	r3, [pc, #28]	@ (2410287c <LL_RCC_IC7_IsEnabled+0x24>)
2410285e:	f8d3 3240 	ldr.w	r3, [r3, #576]	@ 0x240
24102862:	f003 0340 	and.w	r3, r3, #64	@ 0x40
24102866:	2b40      	cmp	r3, #64	@ 0x40
24102868:	d101      	bne.n	2410286e <LL_RCC_IC7_IsEnabled+0x16>
2410286a:	2301      	movs	r3, #1
2410286c:	e000      	b.n	24102870 <LL_RCC_IC7_IsEnabled+0x18>
2410286e:	2300      	movs	r3, #0
}
24102870:	4618      	mov	r0, r3
24102872:	46bd      	mov	sp, r7
24102874:	f85d 7b04 	ldr.w	r7, [sp], #4
24102878:	4770      	bx	lr
2410287a:	bf00      	nop
2410287c:	46028000 	.word	0x46028000

24102880 <LL_RCC_IC7_GetSource>:
  *         @arg @ref LL_RCC_ICCLKSOURCE_PLL2
  *         @arg @ref LL_RCC_ICCLKSOURCE_PLL3
  *         @arg @ref LL_RCC_ICCLKSOURCE_PLL4
  */
__STATIC_INLINE uint32_t LL_RCC_IC7_GetSource(void)
{
24102880:	b480      	push	{r7}
24102882:	af00      	add	r7, sp, #0
  return (uint32_t)(READ_BIT(RCC->IC7CFGR, RCC_IC7CFGR_IC7SEL));
24102884:	4b04      	ldr	r3, [pc, #16]	@ (24102898 <LL_RCC_IC7_GetSource+0x18>)
24102886:	f8d3 30dc 	ldr.w	r3, [r3, #220]	@ 0xdc
2410288a:	f003 5340 	and.w	r3, r3, #805306368	@ 0x30000000
}
2410288e:	4618      	mov	r0, r3
24102890:	46bd      	mov	sp, r7
24102892:	f85d 7b04 	ldr.w	r7, [sp], #4
24102896:	4770      	bx	lr
24102898:	46028000 	.word	0x46028000

2410289c <LL_RCC_IC7_GetDivider>:
  * @brief  Get IC7 divider
  * @rmtoll IC7CFGR      IC7INT        LL_RCC_IC7_GetDivider
  * @retval can be a value between 1 and 256.
  */
__STATIC_INLINE uint32_t LL_RCC_IC7_GetDivider(void)
{
2410289c:	b480      	push	{r7}
2410289e:	af00      	add	r7, sp, #0
  return ((READ_BIT(RCC->IC7CFGR, RCC_IC7CFGR_IC7INT) >> RCC_IC7CFGR_IC7INT_Pos) + 1UL);
241028a0:	4b05      	ldr	r3, [pc, #20]	@ (241028b8 <LL_RCC_IC7_GetDivider+0x1c>)
241028a2:	f8d3 30dc 	ldr.w	r3, [r3, #220]	@ 0xdc
241028a6:	0c1b      	lsrs	r3, r3, #16
241028a8:	b2db      	uxtb	r3, r3
241028aa:	3301      	adds	r3, #1
}
241028ac:	4618      	mov	r0, r3
241028ae:	46bd      	mov	sp, r7
241028b0:	f85d 7b04 	ldr.w	r7, [sp], #4
241028b4:	4770      	bx	lr
241028b6:	bf00      	nop
241028b8:	46028000 	.word	0x46028000

241028bc <LL_RCC_IC8_Enable>:
  * @brief  Enable IC8
  * @rmtoll DIVENSR       IC8ENS        LL_RCC_IC8_Enable
  * @retval None
  */
__STATIC_INLINE void LL_RCC_IC8_Enable(void)
{
241028bc:	b480      	push	{r7}
241028be:	af00      	add	r7, sp, #0
  WRITE_REG(RCC->DIVENSR, RCC_DIVENSR_IC8ENS);
241028c0:	4b04      	ldr	r3, [pc, #16]	@ (241028d4 <LL_RCC_IC8_Enable+0x18>)
241028c2:	2280      	movs	r2, #128	@ 0x80
241028c4:	f8c3 2a40 	str.w	r2, [r3, #2624]	@ 0xa40
}
241028c8:	bf00      	nop
241028ca:	46bd      	mov	sp, r7
241028cc:	f85d 7b04 	ldr.w	r7, [sp], #4
241028d0:	4770      	bx	lr
241028d2:	bf00      	nop
241028d4:	46028000 	.word	0x46028000

241028d8 <LL_RCC_IC8_IsEnabled>:
  * @brief  Check if IC8 is enabled
  * @rmtoll DIVENR       IC8EN         LL_RCC_IC8_IsEnabled
  * @retval State of bit (1 or 0).
  */
__STATIC_INLINE uint32_t LL_RCC_IC8_IsEnabled(void)
{
241028d8:	b480      	push	{r7}
241028da:	af00      	add	r7, sp, #0
  return ((READ_BIT(RCC->DIVENR, RCC_DIVENR_IC8EN) == RCC_DIVENR_IC8EN) ? 1UL : 0UL);
241028dc:	4b07      	ldr	r3, [pc, #28]	@ (241028fc <LL_RCC_IC8_IsEnabled+0x24>)
241028de:	f8d3 3240 	ldr.w	r3, [r3, #576]	@ 0x240
241028e2:	f003 0380 	and.w	r3, r3, #128	@ 0x80
241028e6:	2b80      	cmp	r3, #128	@ 0x80
241028e8:	d101      	bne.n	241028ee <LL_RCC_IC8_IsEnabled+0x16>
241028ea:	2301      	movs	r3, #1
241028ec:	e000      	b.n	241028f0 <LL_RCC_IC8_IsEnabled+0x18>
241028ee:	2300      	movs	r3, #0
}
241028f0:	4618      	mov	r0, r3
241028f2:	46bd      	mov	sp, r7
241028f4:	f85d 7b04 	ldr.w	r7, [sp], #4
241028f8:	4770      	bx	lr
241028fa:	bf00      	nop
241028fc:	46028000 	.word	0x46028000

24102900 <LL_RCC_IC8_GetSource>:
  *         @arg @ref LL_RCC_ICCLKSOURCE_PLL2
  *         @arg @ref LL_RCC_ICCLKSOURCE_PLL3
  *         @arg @ref LL_RCC_ICCLKSOURCE_PLL4
  */
__STATIC_INLINE uint32_t LL_RCC_IC8_GetSource(void)
{
24102900:	b480      	push	{r7}
24102902:	af00      	add	r7, sp, #0
  return (uint32_t)(READ_BIT(RCC->IC8CFGR, RCC_IC8CFGR_IC8SEL));
24102904:	4b04      	ldr	r3, [pc, #16]	@ (24102918 <LL_RCC_IC8_GetSource+0x18>)
24102906:	f8d3 30e0 	ldr.w	r3, [r3, #224]	@ 0xe0
2410290a:	f003 5340 	and.w	r3, r3, #805306368	@ 0x30000000
}
2410290e:	4618      	mov	r0, r3
24102910:	46bd      	mov	sp, r7
24102912:	f85d 7b04 	ldr.w	r7, [sp], #4
24102916:	4770      	bx	lr
24102918:	46028000 	.word	0x46028000

2410291c <LL_RCC_IC8_GetDivider>:
  * @brief  Get IC8 divider
  * @rmtoll IC8CFGR      IC8INT        LL_RCC_IC8_GetDivider
  * @retval can be a value between 1 and 256.
  */
__STATIC_INLINE uint32_t LL_RCC_IC8_GetDivider(void)
{
2410291c:	b480      	push	{r7}
2410291e:	af00      	add	r7, sp, #0
  return ((READ_BIT(RCC->IC8CFGR, RCC_IC8CFGR_IC8INT) >> RCC_IC8CFGR_IC8INT_Pos) + 1UL);
24102920:	4b05      	ldr	r3, [pc, #20]	@ (24102938 <LL_RCC_IC8_GetDivider+0x1c>)
24102922:	f8d3 30e0 	ldr.w	r3, [r3, #224]	@ 0xe0
24102926:	0c1b      	lsrs	r3, r3, #16
24102928:	b2db      	uxtb	r3, r3
2410292a:	3301      	adds	r3, #1
}
2410292c:	4618      	mov	r0, r3
2410292e:	46bd      	mov	sp, r7
24102930:	f85d 7b04 	ldr.w	r7, [sp], #4
24102934:	4770      	bx	lr
24102936:	bf00      	nop
24102938:	46028000 	.word	0x46028000

2410293c <LL_RCC_IC9_Enable>:
  * @brief  Enable IC9
  * @rmtoll DIVENSR       IC9ENS        LL_RCC_IC9_Enable
  * @retval None
  */
__STATIC_INLINE void LL_RCC_IC9_Enable(void)
{
2410293c:	b480      	push	{r7}
2410293e:	af00      	add	r7, sp, #0
  WRITE_REG(RCC->DIVENSR, RCC_DIVENSR_IC9ENS);
24102940:	4b04      	ldr	r3, [pc, #16]	@ (24102954 <LL_RCC_IC9_Enable+0x18>)
24102942:	f44f 7280 	mov.w	r2, #256	@ 0x100
24102946:	f8c3 2a40 	str.w	r2, [r3, #2624]	@ 0xa40
}
2410294a:	bf00      	nop
2410294c:	46bd      	mov	sp, r7
2410294e:	f85d 7b04 	ldr.w	r7, [sp], #4
24102952:	4770      	bx	lr
24102954:	46028000 	.word	0x46028000

24102958 <LL_RCC_IC9_IsEnabled>:
  * @brief  Check if IC9 is enabled
  * @rmtoll DIVENR       IC9EN         LL_RCC_IC9_IsEnabled
  * @retval State of bit (1 or 0).
  */
__STATIC_INLINE uint32_t LL_RCC_IC9_IsEnabled(void)
{
24102958:	b480      	push	{r7}
2410295a:	af00      	add	r7, sp, #0
  return ((READ_BIT(RCC->DIVENR, RCC_DIVENR_IC9EN) == RCC_DIVENR_IC9EN) ? 1UL : 0UL);
2410295c:	4b07      	ldr	r3, [pc, #28]	@ (2410297c <LL_RCC_IC9_IsEnabled+0x24>)
2410295e:	f8d3 3240 	ldr.w	r3, [r3, #576]	@ 0x240
24102962:	f403 7380 	and.w	r3, r3, #256	@ 0x100
24102966:	f5b3 7f80 	cmp.w	r3, #256	@ 0x100
2410296a:	d101      	bne.n	24102970 <LL_RCC_IC9_IsEnabled+0x18>
2410296c:	2301      	movs	r3, #1
2410296e:	e000      	b.n	24102972 <LL_RCC_IC9_IsEnabled+0x1a>
24102970:	2300      	movs	r3, #0
}
24102972:	4618      	mov	r0, r3
24102974:	46bd      	mov	sp, r7
24102976:	f85d 7b04 	ldr.w	r7, [sp], #4
2410297a:	4770      	bx	lr
2410297c:	46028000 	.word	0x46028000

24102980 <LL_RCC_IC9_GetSource>:
  *         @arg @ref LL_RCC_ICCLKSOURCE_PLL2
  *         @arg @ref LL_RCC_ICCLKSOURCE_PLL3
  *         @arg @ref LL_RCC_ICCLKSOURCE_PLL4
  */
__STATIC_INLINE uint32_t LL_RCC_IC9_GetSource(void)
{
24102980:	b480      	push	{r7}
24102982:	af00      	add	r7, sp, #0
  return (uint32_t)(READ_BIT(RCC->IC9CFGR, RCC_IC9CFGR_IC9SEL));
24102984:	4b04      	ldr	r3, [pc, #16]	@ (24102998 <LL_RCC_IC9_GetSource+0x18>)
24102986:	f8d3 30e4 	ldr.w	r3, [r3, #228]	@ 0xe4
2410298a:	f003 5340 	and.w	r3, r3, #805306368	@ 0x30000000
}
2410298e:	4618      	mov	r0, r3
24102990:	46bd      	mov	sp, r7
24102992:	f85d 7b04 	ldr.w	r7, [sp], #4
24102996:	4770      	bx	lr
24102998:	46028000 	.word	0x46028000

2410299c <LL_RCC_IC9_GetDivider>:
  * @brief  Get IC9 divider
  * @rmtoll IC9CFGR      IC9INT        LL_RCC_IC9_GetDivider
  * @retval can be a value between 1 and 256.
  */
__STATIC_INLINE uint32_t LL_RCC_IC9_GetDivider(void)
{
2410299c:	b480      	push	{r7}
2410299e:	af00      	add	r7, sp, #0
  return ((READ_BIT(RCC->IC9CFGR, RCC_IC9CFGR_IC9INT) >> RCC_IC9CFGR_IC9INT_Pos) + 1UL);
241029a0:	4b05      	ldr	r3, [pc, #20]	@ (241029b8 <LL_RCC_IC9_GetDivider+0x1c>)
241029a2:	f8d3 30e4 	ldr.w	r3, [r3, #228]	@ 0xe4
241029a6:	0c1b      	lsrs	r3, r3, #16
241029a8:	b2db      	uxtb	r3, r3
241029aa:	3301      	adds	r3, #1
}
241029ac:	4618      	mov	r0, r3
241029ae:	46bd      	mov	sp, r7
241029b0:	f85d 7b04 	ldr.w	r7, [sp], #4
241029b4:	4770      	bx	lr
241029b6:	bf00      	nop
241029b8:	46028000 	.word	0x46028000

241029bc <LL_RCC_IC10_Enable>:
  * @brief  Enable IC10
  * @rmtoll DIVENSR       IC10ENS        LL_RCC_IC10_Enable
  * @retval None
  */
__STATIC_INLINE void LL_RCC_IC10_Enable(void)
{
241029bc:	b480      	push	{r7}
241029be:	af00      	add	r7, sp, #0
  WRITE_REG(RCC->DIVENSR, RCC_DIVENSR_IC10ENS);
241029c0:	4b04      	ldr	r3, [pc, #16]	@ (241029d4 <LL_RCC_IC10_Enable+0x18>)
241029c2:	f44f 7200 	mov.w	r2, #512	@ 0x200
241029c6:	f8c3 2a40 	str.w	r2, [r3, #2624]	@ 0xa40
}
241029ca:	bf00      	nop
241029cc:	46bd      	mov	sp, r7
241029ce:	f85d 7b04 	ldr.w	r7, [sp], #4
241029d2:	4770      	bx	lr
241029d4:	46028000 	.word	0x46028000

241029d8 <LL_RCC_IC10_IsEnabled>:
  * @brief  Check if IC10 is enabled
  * @rmtoll DIVENR       IC10EN         LL_RCC_IC10_IsEnabled
  * @retval State of bit (1 or 0).
  */
__STATIC_INLINE uint32_t LL_RCC_IC10_IsEnabled(void)
{
241029d8:	b480      	push	{r7}
241029da:	af00      	add	r7, sp, #0
  return ((READ_BIT(RCC->DIVENR, RCC_DIVENR_IC10EN) == RCC_DIVENR_IC10EN) ? 1UL : 0UL);
241029dc:	4b07      	ldr	r3, [pc, #28]	@ (241029fc <LL_RCC_IC10_IsEnabled+0x24>)
241029de:	f8d3 3240 	ldr.w	r3, [r3, #576]	@ 0x240
241029e2:	f403 7300 	and.w	r3, r3, #512	@ 0x200
241029e6:	f5b3 7f00 	cmp.w	r3, #512	@ 0x200
241029ea:	d101      	bne.n	241029f0 <LL_RCC_IC10_IsEnabled+0x18>
241029ec:	2301      	movs	r3, #1
241029ee:	e000      	b.n	241029f2 <LL_RCC_IC10_IsEnabled+0x1a>
241029f0:	2300      	movs	r3, #0
}
241029f2:	4618      	mov	r0, r3
241029f4:	46bd      	mov	sp, r7
241029f6:	f85d 7b04 	ldr.w	r7, [sp], #4
241029fa:	4770      	bx	lr
241029fc:	46028000 	.word	0x46028000

24102a00 <LL_RCC_IC10_GetSource>:
  *         @arg @ref LL_RCC_ICCLKSOURCE_PLL2
  *         @arg @ref LL_RCC_ICCLKSOURCE_PLL3
  *         @arg @ref LL_RCC_ICCLKSOURCE_PLL4
  */
__STATIC_INLINE uint32_t LL_RCC_IC10_GetSource(void)
{
24102a00:	b480      	push	{r7}
24102a02:	af00      	add	r7, sp, #0
  return (uint32_t)(READ_BIT(RCC->IC10CFGR, RCC_IC10CFGR_IC10SEL));
24102a04:	4b04      	ldr	r3, [pc, #16]	@ (24102a18 <LL_RCC_IC10_GetSource+0x18>)
24102a06:	f8d3 30e8 	ldr.w	r3, [r3, #232]	@ 0xe8
24102a0a:	f003 5340 	and.w	r3, r3, #805306368	@ 0x30000000
}
24102a0e:	4618      	mov	r0, r3
24102a10:	46bd      	mov	sp, r7
24102a12:	f85d 7b04 	ldr.w	r7, [sp], #4
24102a16:	4770      	bx	lr
24102a18:	46028000 	.word	0x46028000

24102a1c <LL_RCC_IC10_GetDivider>:
  * @brief  Get IC10 divider
  * @rmtoll IC10CFGR      IC10INT        LL_RCC_IC10_GetDivider
  * @retval can be a value between 1 and 256.
  */
__STATIC_INLINE uint32_t LL_RCC_IC10_GetDivider(void)
{
24102a1c:	b480      	push	{r7}
24102a1e:	af00      	add	r7, sp, #0
  return ((READ_BIT(RCC->IC10CFGR, RCC_IC10CFGR_IC10INT) >> RCC_IC10CFGR_IC10INT_Pos) + 1UL);
24102a20:	4b05      	ldr	r3, [pc, #20]	@ (24102a38 <LL_RCC_IC10_GetDivider+0x1c>)
24102a22:	f8d3 30e8 	ldr.w	r3, [r3, #232]	@ 0xe8
24102a26:	0c1b      	lsrs	r3, r3, #16
24102a28:	b2db      	uxtb	r3, r3
24102a2a:	3301      	adds	r3, #1
}
24102a2c:	4618      	mov	r0, r3
24102a2e:	46bd      	mov	sp, r7
24102a30:	f85d 7b04 	ldr.w	r7, [sp], #4
24102a34:	4770      	bx	lr
24102a36:	bf00      	nop
24102a38:	46028000 	.word	0x46028000

24102a3c <LL_RCC_IC12_Enable>:
  * @brief  Enable IC12
  * @rmtoll DIVENSR       IC12ENS        LL_RCC_IC12_Enable
  * @retval None
  */
__STATIC_INLINE void LL_RCC_IC12_Enable(void)
{
24102a3c:	b480      	push	{r7}
24102a3e:	af00      	add	r7, sp, #0
  WRITE_REG(RCC->DIVENSR, RCC_DIVENSR_IC12ENS);
24102a40:	4b04      	ldr	r3, [pc, #16]	@ (24102a54 <LL_RCC_IC12_Enable+0x18>)
24102a42:	f44f 6200 	mov.w	r2, #2048	@ 0x800
24102a46:	f8c3 2a40 	str.w	r2, [r3, #2624]	@ 0xa40
}
24102a4a:	bf00      	nop
24102a4c:	46bd      	mov	sp, r7
24102a4e:	f85d 7b04 	ldr.w	r7, [sp], #4
24102a52:	4770      	bx	lr
24102a54:	46028000 	.word	0x46028000

24102a58 <LL_RCC_IC12_IsEnabled>:
  * @brief  Check if IC12 is enabled
  * @rmtoll DIVENR       IC12EN         LL_RCC_IC12_IsEnabled
  * @retval State of bit (1 or 0).
  */
__STATIC_INLINE uint32_t LL_RCC_IC12_IsEnabled(void)
{
24102a58:	b480      	push	{r7}
24102a5a:	af00      	add	r7, sp, #0
  return ((READ_BIT(RCC->DIVENR, RCC_DIVENR_IC12EN) == RCC_DIVENR_IC12EN) ? 1UL : 0UL);
24102a5c:	4b07      	ldr	r3, [pc, #28]	@ (24102a7c <LL_RCC_IC12_IsEnabled+0x24>)
24102a5e:	f8d3 3240 	ldr.w	r3, [r3, #576]	@ 0x240
24102a62:	f403 6300 	and.w	r3, r3, #2048	@ 0x800
24102a66:	f5b3 6f00 	cmp.w	r3, #2048	@ 0x800
24102a6a:	d101      	bne.n	24102a70 <LL_RCC_IC12_IsEnabled+0x18>
24102a6c:	2301      	movs	r3, #1
24102a6e:	e000      	b.n	24102a72 <LL_RCC_IC12_IsEnabled+0x1a>
24102a70:	2300      	movs	r3, #0
}
24102a72:	4618      	mov	r0, r3
24102a74:	46bd      	mov	sp, r7
24102a76:	f85d 7b04 	ldr.w	r7, [sp], #4
24102a7a:	4770      	bx	lr
24102a7c:	46028000 	.word	0x46028000

24102a80 <LL_RCC_IC12_GetSource>:
  *         @arg @ref LL_RCC_ICCLKSOURCE_PLL2
  *         @arg @ref LL_RCC_ICCLKSOURCE_PLL3
  *         @arg @ref LL_RCC_ICCLKSOURCE_PLL4
  */
__STATIC_INLINE uint32_t LL_RCC_IC12_GetSource(void)
{
24102a80:	b480      	push	{r7}
24102a82:	af00      	add	r7, sp, #0
  return (uint32_t)(READ_BIT(RCC->IC12CFGR, RCC_IC12CFGR_IC12SEL));
24102a84:	4b04      	ldr	r3, [pc, #16]	@ (24102a98 <LL_RCC_IC12_GetSource+0x18>)
24102a86:	f8d3 30f0 	ldr.w	r3, [r3, #240]	@ 0xf0
24102a8a:	f003 5340 	and.w	r3, r3, #805306368	@ 0x30000000
}
24102a8e:	4618      	mov	r0, r3
24102a90:	46bd      	mov	sp, r7
24102a92:	f85d 7b04 	ldr.w	r7, [sp], #4
24102a96:	4770      	bx	lr
24102a98:	46028000 	.word	0x46028000

24102a9c <LL_RCC_IC12_GetDivider>:
  * @brief  Get IC12 divider
  * @rmtoll IC12CFGR      IC12INT        LL_RCC_IC12_GetDivider
  * @retval can be a value between 1 and 256.
  */
__STATIC_INLINE uint32_t LL_RCC_IC12_GetDivider(void)
{
24102a9c:	b480      	push	{r7}
24102a9e:	af00      	add	r7, sp, #0
  return ((READ_BIT(RCC->IC12CFGR, RCC_IC12CFGR_IC12INT) >> RCC_IC12CFGR_IC12INT_Pos) + 1UL);
24102aa0:	4b05      	ldr	r3, [pc, #20]	@ (24102ab8 <LL_RCC_IC12_GetDivider+0x1c>)
24102aa2:	f8d3 30f0 	ldr.w	r3, [r3, #240]	@ 0xf0
24102aa6:	0c1b      	lsrs	r3, r3, #16
24102aa8:	b2db      	uxtb	r3, r3
24102aaa:	3301      	adds	r3, #1
}
24102aac:	4618      	mov	r0, r3
24102aae:	46bd      	mov	sp, r7
24102ab0:	f85d 7b04 	ldr.w	r7, [sp], #4
24102ab4:	4770      	bx	lr
24102ab6:	bf00      	nop
24102ab8:	46028000 	.word	0x46028000

24102abc <LL_RCC_IC13_Enable>:
  * @brief  Enable IC13
  * @rmtoll DIVENSR       IC13ENS        LL_RCC_IC13_Enable
  * @retval None
  */
__STATIC_INLINE void LL_RCC_IC13_Enable(void)
{
24102abc:	b480      	push	{r7}
24102abe:	af00      	add	r7, sp, #0
  WRITE_REG(RCC->DIVENSR, RCC_DIVENSR_IC13ENS);
24102ac0:	4b04      	ldr	r3, [pc, #16]	@ (24102ad4 <LL_RCC_IC13_Enable+0x18>)
24102ac2:	f44f 5280 	mov.w	r2, #4096	@ 0x1000
24102ac6:	f8c3 2a40 	str.w	r2, [r3, #2624]	@ 0xa40
}
24102aca:	bf00      	nop
24102acc:	46bd      	mov	sp, r7
24102ace:	f85d 7b04 	ldr.w	r7, [sp], #4
24102ad2:	4770      	bx	lr
24102ad4:	46028000 	.word	0x46028000

24102ad8 <LL_RCC_IC13_IsEnabled>:
  * @brief  Check if IC13 is enabled
  * @rmtoll DIVENR       IC13EN         LL_RCC_IC13_IsEnabled
  * @retval State of bit (1 or 0).
  */
__STATIC_INLINE uint32_t LL_RCC_IC13_IsEnabled(void)
{
24102ad8:	b480      	push	{r7}
24102ada:	af00      	add	r7, sp, #0
  return ((READ_BIT(RCC->DIVENR, RCC_DIVENR_IC13EN) == RCC_DIVENR_IC13EN) ? 1UL : 0UL);
24102adc:	4b07      	ldr	r3, [pc, #28]	@ (24102afc <LL_RCC_IC13_IsEnabled+0x24>)
24102ade:	f8d3 3240 	ldr.w	r3, [r3, #576]	@ 0x240
24102ae2:	f403 5380 	and.w	r3, r3, #4096	@ 0x1000
24102ae6:	f5b3 5f80 	cmp.w	r3, #4096	@ 0x1000
24102aea:	d101      	bne.n	24102af0 <LL_RCC_IC13_IsEnabled+0x18>
24102aec:	2301      	movs	r3, #1
24102aee:	e000      	b.n	24102af2 <LL_RCC_IC13_IsEnabled+0x1a>
24102af0:	2300      	movs	r3, #0
}
24102af2:	4618      	mov	r0, r3
24102af4:	46bd      	mov	sp, r7
24102af6:	f85d 7b04 	ldr.w	r7, [sp], #4
24102afa:	4770      	bx	lr
24102afc:	46028000 	.word	0x46028000

24102b00 <LL_RCC_IC13_GetSource>:
  *         @arg @ref LL_RCC_ICCLKSOURCE_PLL2
  *         @arg @ref LL_RCC_ICCLKSOURCE_PLL3
  *         @arg @ref LL_RCC_ICCLKSOURCE_PLL4
  */
__STATIC_INLINE uint32_t LL_RCC_IC13_GetSource(void)
{
24102b00:	b480      	push	{r7}
24102b02:	af00      	add	r7, sp, #0
  return (uint32_t)(READ_BIT(RCC->IC13CFGR, RCC_IC13CFGR_IC13SEL));
24102b04:	4b04      	ldr	r3, [pc, #16]	@ (24102b18 <LL_RCC_IC13_GetSource+0x18>)
24102b06:	f8d3 30f4 	ldr.w	r3, [r3, #244]	@ 0xf4
24102b0a:	f003 5340 	and.w	r3, r3, #805306368	@ 0x30000000
}
24102b0e:	4618      	mov	r0, r3
24102b10:	46bd      	mov	sp, r7
24102b12:	f85d 7b04 	ldr.w	r7, [sp], #4
24102b16:	4770      	bx	lr
24102b18:	46028000 	.word	0x46028000

24102b1c <LL_RCC_IC13_GetDivider>:
  * @brief  Get IC13 divider
  * @rmtoll IC13CFGR      IC13INT        LL_RCC_IC13_GetDivider
  * @retval can be a value between 1 and 256.
  */
__STATIC_INLINE uint32_t LL_RCC_IC13_GetDivider(void)
{
24102b1c:	b480      	push	{r7}
24102b1e:	af00      	add	r7, sp, #0
  return ((READ_BIT(RCC->IC13CFGR, RCC_IC13CFGR_IC13INT) >> RCC_IC13CFGR_IC13INT_Pos) + 1UL);
24102b20:	4b05      	ldr	r3, [pc, #20]	@ (24102b38 <LL_RCC_IC13_GetDivider+0x1c>)
24102b22:	f8d3 30f4 	ldr.w	r3, [r3, #244]	@ 0xf4
24102b26:	0c1b      	lsrs	r3, r3, #16
24102b28:	b2db      	uxtb	r3, r3
24102b2a:	3301      	adds	r3, #1
}
24102b2c:	4618      	mov	r0, r3
24102b2e:	46bd      	mov	sp, r7
24102b30:	f85d 7b04 	ldr.w	r7, [sp], #4
24102b34:	4770      	bx	lr
24102b36:	bf00      	nop
24102b38:	46028000 	.word	0x46028000

24102b3c <LL_RCC_IC14_Enable>:
  * @brief  Enable IC14
  * @rmtoll DIVENSR       IC14ENS        LL_RCC_IC14_Enable
  * @retval None
  */
__STATIC_INLINE void LL_RCC_IC14_Enable(void)
{
24102b3c:	b480      	push	{r7}
24102b3e:	af00      	add	r7, sp, #0
  WRITE_REG(RCC->DIVENSR, RCC_DIVENSR_IC14ENS);
24102b40:	4b04      	ldr	r3, [pc, #16]	@ (24102b54 <LL_RCC_IC14_Enable+0x18>)
24102b42:	f44f 5200 	mov.w	r2, #8192	@ 0x2000
24102b46:	f8c3 2a40 	str.w	r2, [r3, #2624]	@ 0xa40
}
24102b4a:	bf00      	nop
24102b4c:	46bd      	mov	sp, r7
24102b4e:	f85d 7b04 	ldr.w	r7, [sp], #4
24102b52:	4770      	bx	lr
24102b54:	46028000 	.word	0x46028000

24102b58 <LL_RCC_IC14_IsEnabled>:
  * @brief  Check if IC14 is enabled
  * @rmtoll DIVENR       IC14EN         LL_RCC_IC14_IsEnabled
  * @retval State of bit (1 or 0).
  */
__STATIC_INLINE uint32_t LL_RCC_IC14_IsEnabled(void)
{
24102b58:	b480      	push	{r7}
24102b5a:	af00      	add	r7, sp, #0
  return ((READ_BIT(RCC->DIVENR, RCC_DIVENR_IC14EN) == RCC_DIVENR_IC14EN) ? 1UL : 0UL);
24102b5c:	4b07      	ldr	r3, [pc, #28]	@ (24102b7c <LL_RCC_IC14_IsEnabled+0x24>)
24102b5e:	f8d3 3240 	ldr.w	r3, [r3, #576]	@ 0x240
24102b62:	f403 5300 	and.w	r3, r3, #8192	@ 0x2000
24102b66:	f5b3 5f00 	cmp.w	r3, #8192	@ 0x2000
24102b6a:	d101      	bne.n	24102b70 <LL_RCC_IC14_IsEnabled+0x18>
24102b6c:	2301      	movs	r3, #1
24102b6e:	e000      	b.n	24102b72 <LL_RCC_IC14_IsEnabled+0x1a>
24102b70:	2300      	movs	r3, #0
}
24102b72:	4618      	mov	r0, r3
24102b74:	46bd      	mov	sp, r7
24102b76:	f85d 7b04 	ldr.w	r7, [sp], #4
24102b7a:	4770      	bx	lr
24102b7c:	46028000 	.word	0x46028000

24102b80 <LL_RCC_IC14_GetSource>:
  *         @arg @ref LL_RCC_ICCLKSOURCE_PLL2
  *         @arg @ref LL_RCC_ICCLKSOURCE_PLL3
  *         @arg @ref LL_RCC_ICCLKSOURCE_PLL4
  */
__STATIC_INLINE uint32_t LL_RCC_IC14_GetSource(void)
{
24102b80:	b480      	push	{r7}
24102b82:	af00      	add	r7, sp, #0
  return (uint32_t)(READ_BIT(RCC->IC14CFGR, RCC_IC14CFGR_IC14SEL));
24102b84:	4b04      	ldr	r3, [pc, #16]	@ (24102b98 <LL_RCC_IC14_GetSource+0x18>)
24102b86:	f8d3 30f8 	ldr.w	r3, [r3, #248]	@ 0xf8
24102b8a:	f003 5340 	and.w	r3, r3, #805306368	@ 0x30000000
}
24102b8e:	4618      	mov	r0, r3
24102b90:	46bd      	mov	sp, r7
24102b92:	f85d 7b04 	ldr.w	r7, [sp], #4
24102b96:	4770      	bx	lr
24102b98:	46028000 	.word	0x46028000

24102b9c <LL_RCC_IC14_GetDivider>:
  * @brief  Get IC14 divider
  * @rmtoll IC14CFGR      IC14INT        LL_RCC_IC14_GetDivider
  * @retval can be a value between 1 and 256.
  */
__STATIC_INLINE uint32_t LL_RCC_IC14_GetDivider(void)
{
24102b9c:	b480      	push	{r7}
24102b9e:	af00      	add	r7, sp, #0
  return ((READ_BIT(RCC->IC14CFGR, RCC_IC14CFGR_IC14INT) >> RCC_IC14CFGR_IC14INT_Pos) + 1UL);
24102ba0:	4b05      	ldr	r3, [pc, #20]	@ (24102bb8 <LL_RCC_IC14_GetDivider+0x1c>)
24102ba2:	f8d3 30f8 	ldr.w	r3, [r3, #248]	@ 0xf8
24102ba6:	0c1b      	lsrs	r3, r3, #16
24102ba8:	b2db      	uxtb	r3, r3
24102baa:	3301      	adds	r3, #1
}
24102bac:	4618      	mov	r0, r3
24102bae:	46bd      	mov	sp, r7
24102bb0:	f85d 7b04 	ldr.w	r7, [sp], #4
24102bb4:	4770      	bx	lr
24102bb6:	bf00      	nop
24102bb8:	46028000 	.word	0x46028000

24102bbc <LL_RCC_IC15_Enable>:
  * @brief  Enable IC15
  * @rmtoll DIVENSR       IC15ENS        LL_RCC_IC15_Enable
  * @retval None
  */
__STATIC_INLINE void LL_RCC_IC15_Enable(void)
{
24102bbc:	b480      	push	{r7}
24102bbe:	af00      	add	r7, sp, #0
  WRITE_REG(RCC->DIVENSR, RCC_DIVENSR_IC15ENS);
24102bc0:	4b04      	ldr	r3, [pc, #16]	@ (24102bd4 <LL_RCC_IC15_Enable+0x18>)
24102bc2:	f44f 4280 	mov.w	r2, #16384	@ 0x4000
24102bc6:	f8c3 2a40 	str.w	r2, [r3, #2624]	@ 0xa40
}
24102bca:	bf00      	nop
24102bcc:	46bd      	mov	sp, r7
24102bce:	f85d 7b04 	ldr.w	r7, [sp], #4
24102bd2:	4770      	bx	lr
24102bd4:	46028000 	.word	0x46028000

24102bd8 <LL_RCC_IC15_IsEnabled>:
  * @brief  Check if IC15 is enabled
  * @rmtoll DIVENR       IC15EN         LL_RCC_IC15_IsEnabled
  * @retval State of bit (1 or 0).
  */
__STATIC_INLINE uint32_t LL_RCC_IC15_IsEnabled(void)
{
24102bd8:	b480      	push	{r7}
24102bda:	af00      	add	r7, sp, #0
  return ((READ_BIT(RCC->DIVENR, RCC_DIVENR_IC15EN) == RCC_DIVENR_IC15EN) ? 1UL : 0UL);
24102bdc:	4b07      	ldr	r3, [pc, #28]	@ (24102bfc <LL_RCC_IC15_IsEnabled+0x24>)
24102bde:	f8d3 3240 	ldr.w	r3, [r3, #576]	@ 0x240
24102be2:	f403 4380 	and.w	r3, r3, #16384	@ 0x4000
24102be6:	f5b3 4f80 	cmp.w	r3, #16384	@ 0x4000
24102bea:	d101      	bne.n	24102bf0 <LL_RCC_IC15_IsEnabled+0x18>
24102bec:	2301      	movs	r3, #1
24102bee:	e000      	b.n	24102bf2 <LL_RCC_IC15_IsEnabled+0x1a>
24102bf0:	2300      	movs	r3, #0
}
24102bf2:	4618      	mov	r0, r3
24102bf4:	46bd      	mov	sp, r7
24102bf6:	f85d 7b04 	ldr.w	r7, [sp], #4
24102bfa:	4770      	bx	lr
24102bfc:	46028000 	.word	0x46028000

24102c00 <LL_RCC_IC15_GetSource>:
  *         @arg @ref LL_RCC_ICCLKSOURCE_PLL2
  *         @arg @ref LL_RCC_ICCLKSOURCE_PLL3
  *         @arg @ref LL_RCC_ICCLKSOURCE_PLL4
  */
__STATIC_INLINE uint32_t LL_RCC_IC15_GetSource(void)
{
24102c00:	b480      	push	{r7}
24102c02:	af00      	add	r7, sp, #0
  return (uint32_t)(READ_BIT(RCC->IC15CFGR, RCC_IC15CFGR_IC15SEL));
24102c04:	4b04      	ldr	r3, [pc, #16]	@ (24102c18 <LL_RCC_IC15_GetSource+0x18>)
24102c06:	f8d3 30fc 	ldr.w	r3, [r3, #252]	@ 0xfc
24102c0a:	f003 5340 	and.w	r3, r3, #805306368	@ 0x30000000
}
24102c0e:	4618      	mov	r0, r3
24102c10:	46bd      	mov	sp, r7
24102c12:	f85d 7b04 	ldr.w	r7, [sp], #4
24102c16:	4770      	bx	lr
24102c18:	46028000 	.word	0x46028000

24102c1c <LL_RCC_IC15_GetDivider>:
  * @brief  Get IC15 divider
  * @rmtoll IC15CFGR      IC15INT        LL_RCC_IC15_GetDivider
  * @retval can be a value between 1 and 256.
  */
__STATIC_INLINE uint32_t LL_RCC_IC15_GetDivider(void)
{
24102c1c:	b480      	push	{r7}
24102c1e:	af00      	add	r7, sp, #0
  return ((READ_BIT(RCC->IC15CFGR, RCC_IC15CFGR_IC15INT) >> RCC_IC15CFGR_IC15INT_Pos) + 1UL);
24102c20:	4b05      	ldr	r3, [pc, #20]	@ (24102c38 <LL_RCC_IC15_GetDivider+0x1c>)
24102c22:	f8d3 30fc 	ldr.w	r3, [r3, #252]	@ 0xfc
24102c26:	0c1b      	lsrs	r3, r3, #16
24102c28:	b2db      	uxtb	r3, r3
24102c2a:	3301      	adds	r3, #1
}
24102c2c:	4618      	mov	r0, r3
24102c2e:	46bd      	mov	sp, r7
24102c30:	f85d 7b04 	ldr.w	r7, [sp], #4
24102c34:	4770      	bx	lr
24102c36:	bf00      	nop
24102c38:	46028000 	.word	0x46028000

24102c3c <LL_RCC_IC16_Enable>:
  * @brief  Enable IC16
  * @rmtoll DIVENSR       IC16ENS        LL_RCC_IC16_Enable
  * @retval None
  */
__STATIC_INLINE void LL_RCC_IC16_Enable(void)
{
24102c3c:	b480      	push	{r7}
24102c3e:	af00      	add	r7, sp, #0
  WRITE_REG(RCC->DIVENSR, RCC_DIVENSR_IC16ENS);
24102c40:	4b04      	ldr	r3, [pc, #16]	@ (24102c54 <LL_RCC_IC16_Enable+0x18>)
24102c42:	f44f 4200 	mov.w	r2, #32768	@ 0x8000
24102c46:	f8c3 2a40 	str.w	r2, [r3, #2624]	@ 0xa40
}
24102c4a:	bf00      	nop
24102c4c:	46bd      	mov	sp, r7
24102c4e:	f85d 7b04 	ldr.w	r7, [sp], #4
24102c52:	4770      	bx	lr
24102c54:	46028000 	.word	0x46028000

24102c58 <LL_RCC_IC16_IsEnabled>:
  * @brief  Check if IC16 is enabled
  * @rmtoll DIVENR       IC16EN         LL_RCC_IC16_IsEnabled
  * @retval State of bit (1 or 0).
  */
__STATIC_INLINE uint32_t LL_RCC_IC16_IsEnabled(void)
{
24102c58:	b480      	push	{r7}
24102c5a:	af00      	add	r7, sp, #0
  return ((READ_BIT(RCC->DIVENR, RCC_DIVENR_IC16EN) == RCC_DIVENR_IC16EN) ? 1UL : 0UL);
24102c5c:	4b07      	ldr	r3, [pc, #28]	@ (24102c7c <LL_RCC_IC16_IsEnabled+0x24>)
24102c5e:	f8d3 3240 	ldr.w	r3, [r3, #576]	@ 0x240
24102c62:	f403 4300 	and.w	r3, r3, #32768	@ 0x8000
24102c66:	f5b3 4f00 	cmp.w	r3, #32768	@ 0x8000
24102c6a:	d101      	bne.n	24102c70 <LL_RCC_IC16_IsEnabled+0x18>
24102c6c:	2301      	movs	r3, #1
24102c6e:	e000      	b.n	24102c72 <LL_RCC_IC16_IsEnabled+0x1a>
24102c70:	2300      	movs	r3, #0
}
24102c72:	4618      	mov	r0, r3
24102c74:	46bd      	mov	sp, r7
24102c76:	f85d 7b04 	ldr.w	r7, [sp], #4
24102c7a:	4770      	bx	lr
24102c7c:	46028000 	.word	0x46028000

24102c80 <LL_RCC_IC16_GetSource>:
  *         @arg @ref LL_RCC_ICCLKSOURCE_PLL2
  *         @arg @ref LL_RCC_ICCLKSOURCE_PLL3
  *         @arg @ref LL_RCC_ICCLKSOURCE_PLL4
  */
__STATIC_INLINE uint32_t LL_RCC_IC16_GetSource(void)
{
24102c80:	b480      	push	{r7}
24102c82:	af00      	add	r7, sp, #0
  return (uint32_t)(READ_BIT(RCC->IC16CFGR, RCC_IC16CFGR_IC16SEL));
24102c84:	4b04      	ldr	r3, [pc, #16]	@ (24102c98 <LL_RCC_IC16_GetSource+0x18>)
24102c86:	f8d3 3100 	ldr.w	r3, [r3, #256]	@ 0x100
24102c8a:	f003 5340 	and.w	r3, r3, #805306368	@ 0x30000000
}
24102c8e:	4618      	mov	r0, r3
24102c90:	46bd      	mov	sp, r7
24102c92:	f85d 7b04 	ldr.w	r7, [sp], #4
24102c96:	4770      	bx	lr
24102c98:	46028000 	.word	0x46028000

24102c9c <LL_RCC_IC16_GetDivider>:
  * @brief  Get IC16 divider
  * @rmtoll IC16CFGR      IC16INT        LL_RCC_IC16_GetDivider
  * @retval can be a value between 1 and 256.
  */
__STATIC_INLINE uint32_t LL_RCC_IC16_GetDivider(void)
{
24102c9c:	b480      	push	{r7}
24102c9e:	af00      	add	r7, sp, #0
  return ((READ_BIT(RCC->IC16CFGR, RCC_IC16CFGR_IC16INT) >> RCC_IC16CFGR_IC16INT_Pos) + 1UL);
24102ca0:	4b05      	ldr	r3, [pc, #20]	@ (24102cb8 <LL_RCC_IC16_GetDivider+0x1c>)
24102ca2:	f8d3 3100 	ldr.w	r3, [r3, #256]	@ 0x100
24102ca6:	0c1b      	lsrs	r3, r3, #16
24102ca8:	b2db      	uxtb	r3, r3
24102caa:	3301      	adds	r3, #1
}
24102cac:	4618      	mov	r0, r3
24102cae:	46bd      	mov	sp, r7
24102cb0:	f85d 7b04 	ldr.w	r7, [sp], #4
24102cb4:	4770      	bx	lr
24102cb6:	bf00      	nop
24102cb8:	46028000 	.word	0x46028000

24102cbc <LL_RCC_IC17_Enable>:
  * @brief  Enable IC17
  * @rmtoll DIVENSR       IC17ENS        LL_RCC_IC17_Enable
  * @retval None
  */
__STATIC_INLINE void LL_RCC_IC17_Enable(void)
{
24102cbc:	b480      	push	{r7}
24102cbe:	af00      	add	r7, sp, #0
  WRITE_REG(RCC->DIVENSR, RCC_DIVENSR_IC17ENS);
24102cc0:	4b04      	ldr	r3, [pc, #16]	@ (24102cd4 <LL_RCC_IC17_Enable+0x18>)
24102cc2:	f44f 3280 	mov.w	r2, #65536	@ 0x10000
24102cc6:	f8c3 2a40 	str.w	r2, [r3, #2624]	@ 0xa40
}
24102cca:	bf00      	nop
24102ccc:	46bd      	mov	sp, r7
24102cce:	f85d 7b04 	ldr.w	r7, [sp], #4
24102cd2:	4770      	bx	lr
24102cd4:	46028000 	.word	0x46028000

24102cd8 <LL_RCC_IC17_IsEnabled>:
  * @brief  Check if IC17 is enabled
  * @rmtoll DIVENR       IC17EN         LL_RCC_IC17_IsEnabled
  * @retval State of bit (1 or 0).
  */
__STATIC_INLINE uint32_t LL_RCC_IC17_IsEnabled(void)
{
24102cd8:	b480      	push	{r7}
24102cda:	af00      	add	r7, sp, #0
  return ((READ_BIT(RCC->DIVENR, RCC_DIVENR_IC17EN) == RCC_DIVENR_IC17EN) ? 1UL : 0UL);
24102cdc:	4b07      	ldr	r3, [pc, #28]	@ (24102cfc <LL_RCC_IC17_IsEnabled+0x24>)
24102cde:	f8d3 3240 	ldr.w	r3, [r3, #576]	@ 0x240
24102ce2:	f403 3380 	and.w	r3, r3, #65536	@ 0x10000
24102ce6:	f5b3 3f80 	cmp.w	r3, #65536	@ 0x10000
24102cea:	d101      	bne.n	24102cf0 <LL_RCC_IC17_IsEnabled+0x18>
24102cec:	2301      	movs	r3, #1
24102cee:	e000      	b.n	24102cf2 <LL_RCC_IC17_IsEnabled+0x1a>
24102cf0:	2300      	movs	r3, #0
}
24102cf2:	4618      	mov	r0, r3
24102cf4:	46bd      	mov	sp, r7
24102cf6:	f85d 7b04 	ldr.w	r7, [sp], #4
24102cfa:	4770      	bx	lr
24102cfc:	46028000 	.word	0x46028000

24102d00 <LL_RCC_IC17_GetSource>:
  *         @arg @ref LL_RCC_ICCLKSOURCE_PLL2
  *         @arg @ref LL_RCC_ICCLKSOURCE_PLL3
  *         @arg @ref LL_RCC_ICCLKSOURCE_PLL4
  */
__STATIC_INLINE uint32_t LL_RCC_IC17_GetSource(void)
{
24102d00:	b480      	push	{r7}
24102d02:	af00      	add	r7, sp, #0
  return (uint32_t)(READ_BIT(RCC->IC17CFGR, RCC_IC17CFGR_IC17SEL));
24102d04:	4b04      	ldr	r3, [pc, #16]	@ (24102d18 <LL_RCC_IC17_GetSource+0x18>)
24102d06:	f8d3 3104 	ldr.w	r3, [r3, #260]	@ 0x104
24102d0a:	f003 5340 	and.w	r3, r3, #805306368	@ 0x30000000
}
24102d0e:	4618      	mov	r0, r3
24102d10:	46bd      	mov	sp, r7
24102d12:	f85d 7b04 	ldr.w	r7, [sp], #4
24102d16:	4770      	bx	lr
24102d18:	46028000 	.word	0x46028000

24102d1c <LL_RCC_IC17_GetDivider>:
  * @brief  Get IC17 divider
  * @rmtoll IC17CFGR      IC17INT        LL_RCC_IC17_GetDivider
  * @retval can be a value between 1 and 256.
  */
__STATIC_INLINE uint32_t LL_RCC_IC17_GetDivider(void)
{
24102d1c:	b480      	push	{r7}
24102d1e:	af00      	add	r7, sp, #0
  return ((READ_BIT(RCC->IC17CFGR, RCC_IC17CFGR_IC17INT) >> RCC_IC17CFGR_IC17INT_Pos) + 1UL);
24102d20:	4b05      	ldr	r3, [pc, #20]	@ (24102d38 <LL_RCC_IC17_GetDivider+0x1c>)
24102d22:	f8d3 3104 	ldr.w	r3, [r3, #260]	@ 0x104
24102d26:	0c1b      	lsrs	r3, r3, #16
24102d28:	b2db      	uxtb	r3, r3
24102d2a:	3301      	adds	r3, #1
}
24102d2c:	4618      	mov	r0, r3
24102d2e:	46bd      	mov	sp, r7
24102d30:	f85d 7b04 	ldr.w	r7, [sp], #4
24102d34:	4770      	bx	lr
24102d36:	bf00      	nop
24102d38:	46028000 	.word	0x46028000

24102d3c <LL_RCC_IC18_Enable>:
  * @brief  Enable IC18
  * @rmtoll DIVENSR       IC18ENS        LL_RCC_IC18_Enable
  * @retval None
  */
__STATIC_INLINE void LL_RCC_IC18_Enable(void)
{
24102d3c:	b480      	push	{r7}
24102d3e:	af00      	add	r7, sp, #0
  WRITE_REG(RCC->DIVENSR, RCC_DIVENSR_IC18ENS);
24102d40:	4b04      	ldr	r3, [pc, #16]	@ (24102d54 <LL_RCC_IC18_Enable+0x18>)
24102d42:	f44f 3200 	mov.w	r2, #131072	@ 0x20000
24102d46:	f8c3 2a40 	str.w	r2, [r3, #2624]	@ 0xa40
}
24102d4a:	bf00      	nop
24102d4c:	46bd      	mov	sp, r7
24102d4e:	f85d 7b04 	ldr.w	r7, [sp], #4
24102d52:	4770      	bx	lr
24102d54:	46028000 	.word	0x46028000

24102d58 <LL_RCC_IC18_IsEnabled>:
  * @brief  Check if IC18 is enabled
  * @rmtoll DIVENR       IC18EN         LL_RCC_IC18_IsEnabled
  * @retval State of bit (1 or 0).
  */
__STATIC_INLINE uint32_t LL_RCC_IC18_IsEnabled(void)
{
24102d58:	b480      	push	{r7}
24102d5a:	af00      	add	r7, sp, #0
  return ((READ_BIT(RCC->DIVENR, RCC_DIVENR_IC18EN) == RCC_DIVENR_IC18EN) ? 1UL : 0UL);
24102d5c:	4b07      	ldr	r3, [pc, #28]	@ (24102d7c <LL_RCC_IC18_IsEnabled+0x24>)
24102d5e:	f8d3 3240 	ldr.w	r3, [r3, #576]	@ 0x240
24102d62:	f403 3300 	and.w	r3, r3, #131072	@ 0x20000
24102d66:	f5b3 3f00 	cmp.w	r3, #131072	@ 0x20000
24102d6a:	d101      	bne.n	24102d70 <LL_RCC_IC18_IsEnabled+0x18>
24102d6c:	2301      	movs	r3, #1
24102d6e:	e000      	b.n	24102d72 <LL_RCC_IC18_IsEnabled+0x1a>
24102d70:	2300      	movs	r3, #0
}
24102d72:	4618      	mov	r0, r3
24102d74:	46bd      	mov	sp, r7
24102d76:	f85d 7b04 	ldr.w	r7, [sp], #4
24102d7a:	4770      	bx	lr
24102d7c:	46028000 	.word	0x46028000

24102d80 <LL_RCC_IC18_GetSource>:
  *         @arg @ref LL_RCC_ICCLKSOURCE_PLL2
  *         @arg @ref LL_RCC_ICCLKSOURCE_PLL3
  *         @arg @ref LL_RCC_ICCLKSOURCE_PLL4
  */
__STATIC_INLINE uint32_t LL_RCC_IC18_GetSource(void)
{
24102d80:	b480      	push	{r7}
24102d82:	af00      	add	r7, sp, #0
  return (uint32_t)(READ_BIT(RCC->IC18CFGR, RCC_IC18CFGR_IC18SEL));
24102d84:	4b04      	ldr	r3, [pc, #16]	@ (24102d98 <LL_RCC_IC18_GetSource+0x18>)
24102d86:	f8d3 3108 	ldr.w	r3, [r3, #264]	@ 0x108
24102d8a:	f003 5340 	and.w	r3, r3, #805306368	@ 0x30000000
}
24102d8e:	4618      	mov	r0, r3
24102d90:	46bd      	mov	sp, r7
24102d92:	f85d 7b04 	ldr.w	r7, [sp], #4
24102d96:	4770      	bx	lr
24102d98:	46028000 	.word	0x46028000

24102d9c <LL_RCC_IC18_GetDivider>:
  * @brief  Get IC18 divider
  * @rmtoll IC18CFGR      IC18INT        LL_RCC_IC18_GetDivider
  * @retval can be a value between 1 and 256.
  */
__STATIC_INLINE uint32_t LL_RCC_IC18_GetDivider(void)
{
24102d9c:	b480      	push	{r7}
24102d9e:	af00      	add	r7, sp, #0
  return ((READ_BIT(RCC->IC18CFGR, RCC_IC18CFGR_IC18INT) >> RCC_IC18CFGR_IC18INT_Pos) + 1UL);
24102da0:	4b05      	ldr	r3, [pc, #20]	@ (24102db8 <LL_RCC_IC18_GetDivider+0x1c>)
24102da2:	f8d3 3108 	ldr.w	r3, [r3, #264]	@ 0x108
24102da6:	0c1b      	lsrs	r3, r3, #16
24102da8:	b2db      	uxtb	r3, r3
24102daa:	3301      	adds	r3, #1
}
24102dac:	4618      	mov	r0, r3
24102dae:	46bd      	mov	sp, r7
24102db0:	f85d 7b04 	ldr.w	r7, [sp], #4
24102db4:	4770      	bx	lr
24102db6:	bf00      	nop
24102db8:	46028000 	.word	0x46028000

24102dbc <LL_RCC_IC19_Enable>:
  * @brief  Enable IC19
  * @rmtoll DIVENSR       IC19ENS        LL_RCC_IC19_Enable
  * @retval None
  */
__STATIC_INLINE void LL_RCC_IC19_Enable(void)
{
24102dbc:	b480      	push	{r7}
24102dbe:	af00      	add	r7, sp, #0
  WRITE_REG(RCC->DIVENSR, RCC_DIVENSR_IC19ENS);
24102dc0:	4b04      	ldr	r3, [pc, #16]	@ (24102dd4 <LL_RCC_IC19_Enable+0x18>)
24102dc2:	f44f 2280 	mov.w	r2, #262144	@ 0x40000
24102dc6:	f8c3 2a40 	str.w	r2, [r3, #2624]	@ 0xa40
}
24102dca:	bf00      	nop
24102dcc:	46bd      	mov	sp, r7
24102dce:	f85d 7b04 	ldr.w	r7, [sp], #4
24102dd2:	4770      	bx	lr
24102dd4:	46028000 	.word	0x46028000

24102dd8 <LL_RCC_IC19_IsEnabled>:
  * @brief  Check if IC19 is enabled
  * @rmtoll DIVENR       IC19EN         LL_RCC_IC19_IsEnabled
  * @retval State of bit (1 or 0).
  */
__STATIC_INLINE uint32_t LL_RCC_IC19_IsEnabled(void)
{
24102dd8:	b480      	push	{r7}
24102dda:	af00      	add	r7, sp, #0
  return ((READ_BIT(RCC->DIVENR, RCC_DIVENR_IC19EN) == RCC_DIVENR_IC19EN) ? 1UL : 0UL);
24102ddc:	4b07      	ldr	r3, [pc, #28]	@ (24102dfc <LL_RCC_IC19_IsEnabled+0x24>)
24102dde:	f8d3 3240 	ldr.w	r3, [r3, #576]	@ 0x240
24102de2:	f403 2380 	and.w	r3, r3, #262144	@ 0x40000
24102de6:	f5b3 2f80 	cmp.w	r3, #262144	@ 0x40000
24102dea:	d101      	bne.n	24102df0 <LL_RCC_IC19_IsEnabled+0x18>
24102dec:	2301      	movs	r3, #1
24102dee:	e000      	b.n	24102df2 <LL_RCC_IC19_IsEnabled+0x1a>
24102df0:	2300      	movs	r3, #0
}
24102df2:	4618      	mov	r0, r3
24102df4:	46bd      	mov	sp, r7
24102df6:	f85d 7b04 	ldr.w	r7, [sp], #4
24102dfa:	4770      	bx	lr
24102dfc:	46028000 	.word	0x46028000

24102e00 <LL_RCC_IC19_GetSource>:
  *         @arg @ref LL_RCC_ICCLKSOURCE_PLL2
  *         @arg @ref LL_RCC_ICCLKSOURCE_PLL3
  *         @arg @ref LL_RCC_ICCLKSOURCE_PLL4
  */
__STATIC_INLINE uint32_t LL_RCC_IC19_GetSource(void)
{
24102e00:	b480      	push	{r7}
24102e02:	af00      	add	r7, sp, #0
  return (uint32_t)(READ_BIT(RCC->IC19CFGR, RCC_IC19CFGR_IC19SEL));
24102e04:	4b04      	ldr	r3, [pc, #16]	@ (24102e18 <LL_RCC_IC19_GetSource+0x18>)
24102e06:	f8d3 310c 	ldr.w	r3, [r3, #268]	@ 0x10c
24102e0a:	f003 5340 	and.w	r3, r3, #805306368	@ 0x30000000
}
24102e0e:	4618      	mov	r0, r3
24102e10:	46bd      	mov	sp, r7
24102e12:	f85d 7b04 	ldr.w	r7, [sp], #4
24102e16:	4770      	bx	lr
24102e18:	46028000 	.word	0x46028000

24102e1c <LL_RCC_IC19_GetDivider>:
  * @brief  Get IC19 divider
  * @rmtoll IC19CFGR      IC19INT        LL_RCC_IC19_GetDivider
  * @retval can be a value between 1 and 256.
  */
__STATIC_INLINE uint32_t LL_RCC_IC19_GetDivider(void)
{
24102e1c:	b480      	push	{r7}
24102e1e:	af00      	add	r7, sp, #0
  return ((READ_BIT(RCC->IC19CFGR, RCC_IC19CFGR_IC19INT) >> RCC_IC19CFGR_IC19INT_Pos) + 1UL);
24102e20:	4b05      	ldr	r3, [pc, #20]	@ (24102e38 <LL_RCC_IC19_GetDivider+0x1c>)
24102e22:	f8d3 310c 	ldr.w	r3, [r3, #268]	@ 0x10c
24102e26:	0c1b      	lsrs	r3, r3, #16
24102e28:	b2db      	uxtb	r3, r3
24102e2a:	3301      	adds	r3, #1
}
24102e2c:	4618      	mov	r0, r3
24102e2e:	46bd      	mov	sp, r7
24102e30:	f85d 7b04 	ldr.w	r7, [sp], #4
24102e34:	4770      	bx	lr
24102e36:	bf00      	nop
24102e38:	46028000 	.word	0x46028000

24102e3c <LL_RCC_IC20_Enable>:
  * @brief  Enable IC20
  * @rmtoll DIVENSR       IC20ENS        LL_RCC_IC20_Enable
  * @retval None
  */
__STATIC_INLINE void LL_RCC_IC20_Enable(void)
{
24102e3c:	b480      	push	{r7}
24102e3e:	af00      	add	r7, sp, #0
  WRITE_REG(RCC->DIVENSR, RCC_DIVENSR_IC20ENS);
24102e40:	4b04      	ldr	r3, [pc, #16]	@ (24102e54 <LL_RCC_IC20_Enable+0x18>)
24102e42:	f44f 2200 	mov.w	r2, #524288	@ 0x80000
24102e46:	f8c3 2a40 	str.w	r2, [r3, #2624]	@ 0xa40
}
24102e4a:	bf00      	nop
24102e4c:	46bd      	mov	sp, r7
24102e4e:	f85d 7b04 	ldr.w	r7, [sp], #4
24102e52:	4770      	bx	lr
24102e54:	46028000 	.word	0x46028000

24102e58 <LL_RCC_IC20_IsEnabled>:
  * @brief  Check if IC20 is enabled
  * @rmtoll DIVENR       IC20EN         LL_RCC_IC20_IsEnabled
  * @retval State of bit (1 or 0).
  */
__STATIC_INLINE uint32_t LL_RCC_IC20_IsEnabled(void)
{
24102e58:	b480      	push	{r7}
24102e5a:	af00      	add	r7, sp, #0
  return ((READ_BIT(RCC->DIVENR, RCC_DIVENR_IC20EN) == RCC_DIVENR_IC20EN) ? 1UL : 0UL);
24102e5c:	4b07      	ldr	r3, [pc, #28]	@ (24102e7c <LL_RCC_IC20_IsEnabled+0x24>)
24102e5e:	f8d3 3240 	ldr.w	r3, [r3, #576]	@ 0x240
24102e62:	f403 2300 	and.w	r3, r3, #524288	@ 0x80000
24102e66:	f5b3 2f00 	cmp.w	r3, #524288	@ 0x80000
24102e6a:	d101      	bne.n	24102e70 <LL_RCC_IC20_IsEnabled+0x18>
24102e6c:	2301      	movs	r3, #1
24102e6e:	e000      	b.n	24102e72 <LL_RCC_IC20_IsEnabled+0x1a>
24102e70:	2300      	movs	r3, #0
}
24102e72:	4618      	mov	r0, r3
24102e74:	46bd      	mov	sp, r7
24102e76:	f85d 7b04 	ldr.w	r7, [sp], #4
24102e7a:	4770      	bx	lr
24102e7c:	46028000 	.word	0x46028000

24102e80 <LL_RCC_IC20_GetSource>:
  *         @arg @ref LL_RCC_ICCLKSOURCE_PLL2
  *         @arg @ref LL_RCC_ICCLKSOURCE_PLL3
  *         @arg @ref LL_RCC_ICCLKSOURCE_PLL4
  */
__STATIC_INLINE uint32_t LL_RCC_IC20_GetSource(void)
{
24102e80:	b480      	push	{r7}
24102e82:	af00      	add	r7, sp, #0
  return (uint32_t)(READ_BIT(RCC->IC20CFGR, RCC_IC20CFGR_IC20SEL));
24102e84:	4b04      	ldr	r3, [pc, #16]	@ (24102e98 <LL_RCC_IC20_GetSource+0x18>)
24102e86:	f8d3 3110 	ldr.w	r3, [r3, #272]	@ 0x110
24102e8a:	f003 5340 	and.w	r3, r3, #805306368	@ 0x30000000
}
24102e8e:	4618      	mov	r0, r3
24102e90:	46bd      	mov	sp, r7
24102e92:	f85d 7b04 	ldr.w	r7, [sp], #4
24102e96:	4770      	bx	lr
24102e98:	46028000 	.word	0x46028000

24102e9c <LL_RCC_IC20_GetDivider>:
  * @brief  Get IC20 divider
  * @rmtoll IC20CFGR      IC20INT        LL_RCC_IC20_GetDivider
  * @retval can be a value between 1 and 256.
  */
__STATIC_INLINE uint32_t LL_RCC_IC20_GetDivider(void)
{
24102e9c:	b480      	push	{r7}
24102e9e:	af00      	add	r7, sp, #0
  return ((READ_BIT(RCC->IC20CFGR, RCC_IC20CFGR_IC20INT) >> RCC_IC20CFGR_IC20INT_Pos) + 1UL);
24102ea0:	4b05      	ldr	r3, [pc, #20]	@ (24102eb8 <LL_RCC_IC20_GetDivider+0x1c>)
24102ea2:	f8d3 3110 	ldr.w	r3, [r3, #272]	@ 0x110
24102ea6:	0c1b      	lsrs	r3, r3, #16
24102ea8:	b2db      	uxtb	r3, r3
24102eaa:	3301      	adds	r3, #1
}
24102eac:	4618      	mov	r0, r3
24102eae:	46bd      	mov	sp, r7
24102eb0:	f85d 7b04 	ldr.w	r7, [sp], #4
24102eb4:	4770      	bx	lr
24102eb6:	bf00      	nop
24102eb8:	46028000 	.word	0x46028000

24102ebc <LL_RCC_CLKP_Enable>:
  * @brief  Enable CLKP
  * @rmtoll MISCENSR      PERENS        LL_RCC_CLKP_Enable
  * @retval None
  */
__STATIC_INLINE void LL_RCC_CLKP_Enable(void)
{
24102ebc:	b480      	push	{r7}
24102ebe:	af00      	add	r7, sp, #0
  WRITE_REG(RCC->MISCENSR, RCC_MISCENSR_PERENS);
24102ec0:	4b04      	ldr	r3, [pc, #16]	@ (24102ed4 <LL_RCC_CLKP_Enable+0x18>)
24102ec2:	2240      	movs	r2, #64	@ 0x40
24102ec4:	f8c3 2a48 	str.w	r2, [r3, #2632]	@ 0xa48
}
24102ec8:	bf00      	nop
24102eca:	46bd      	mov	sp, r7
24102ecc:	f85d 7b04 	ldr.w	r7, [sp], #4
24102ed0:	4770      	bx	lr
24102ed2:	bf00      	nop
24102ed4:	46028000 	.word	0x46028000

24102ed8 <LL_RCC_CLKP_IsEnabled>:
  * @brief  Check if CLKP is enabled
  * @rmtoll MISCENR       PEREN         LL_RCC_CLKP_IsEnabled
  * @retval State of bit (1 or 0).
  */
__STATIC_INLINE uint32_t LL_RCC_CLKP_IsEnabled(void)
{
24102ed8:	b480      	push	{r7}
24102eda:	af00      	add	r7, sp, #0
  return ((READ_BIT(RCC->MISCENR, RCC_MISCENR_PEREN) == RCC_MISCENR_PEREN) ? 1UL : 0UL);
24102edc:	4b07      	ldr	r3, [pc, #28]	@ (24102efc <LL_RCC_CLKP_IsEnabled+0x24>)
24102ede:	f8d3 3248 	ldr.w	r3, [r3, #584]	@ 0x248
24102ee2:	f003 0340 	and.w	r3, r3, #64	@ 0x40
24102ee6:	2b40      	cmp	r3, #64	@ 0x40
24102ee8:	d101      	bne.n	24102eee <LL_RCC_CLKP_IsEnabled+0x16>
24102eea:	2301      	movs	r3, #1
24102eec:	e000      	b.n	24102ef0 <LL_RCC_CLKP_IsEnabled+0x18>
24102eee:	2300      	movs	r3, #0
}
24102ef0:	4618      	mov	r0, r3
24102ef2:	46bd      	mov	sp, r7
24102ef4:	f85d 7b04 	ldr.w	r7, [sp], #4
24102ef8:	4770      	bx	lr
24102efa:	bf00      	nop
24102efc:	46028000 	.word	0x46028000

24102f00 <HAL_RCCEx_PeriphCLKConfig>:
  *         modification indeed impacts all peripherals using this ICx as clock source.
  *
  * @retval HAL status
  */
HAL_StatusTypeDef HAL_RCCEx_PeriphCLKConfig(const RCC_PeriphCLKInitTypeDef  *PeriphClkInit)
{
24102f00:	e92d 4fb0 	stmdb	sp!, {r4, r5, r7, r8, r9, sl, fp, lr}
24102f04:	b0f2      	sub	sp, #456	@ 0x1c8
24102f06:	af00      	add	r7, sp, #0
24102f08:	f8c7 01b4 	str.w	r0, [r7, #436]	@ 0x1b4
  uint32_t tmpreg;
  uint32_t tickstart;
  HAL_StatusTypeDef ret = HAL_OK;      /* Intermediate status */
24102f0c:	2300      	movs	r3, #0
24102f0e:	f887 31c7 	strb.w	r3, [r7, #455]	@ 0x1c7
  HAL_StatusTypeDef status = HAL_OK;   /* Final status */
24102f12:	2300      	movs	r3, #0
24102f14:	f887 31c6 	strb.w	r3, [r7, #454]	@ 0x1c6

  /* Check the parameters */
  assert_param(IS_RCC_PERIPHCLOCK(PeriphClkInit->PeriphClockSelection));

  /*---------------------------- RTC configuration -------------------------------*/
  if ((PeriphClkInit->PeriphClockSelection & RCC_PERIPHCLK_RTC) == RCC_PERIPHCLK_RTC)
24102f18:	f8d7 31b4 	ldr.w	r3, [r7, #436]	@ 0x1b4
24102f1c:	e9d3 2300 	ldrd	r2, r3, [r3]
24102f20:	f002 6400 	and.w	r4, r2, #134217728	@ 0x8000000
24102f24:	2500      	movs	r5, #0
24102f26:	ea54 0305 	orrs.w	r3, r4, r5
24102f2a:	d06c      	beq.n	24103006 <HAL_RCCEx_PeriphCLKConfig+0x106>
    /* check for RTC Parameters used to output RTCCLK */
    assert_param(IS_RCC_RTCCLKSOURCE(PeriphClkInit->RTCClockSelection));

    /* As the RTC clock source selection can be changed only if the Backup Domain is reset */
    /* reset the Backup domain only if the RTC Clock source selection is modified from default reset value */
    tmpreg = LL_RCC_GetRTCClockSource();
24102f2c:	f7ff f91e 	bl	2410216c <LL_RCC_GetRTCClockSource>
24102f30:	f8c7 01c0 	str.w	r0, [r7, #448]	@ 0x1c0

    if ((tmpreg != RCC_RTCCLKSOURCE_DISABLE) && (tmpreg != (PeriphClkInit->RTCClockSelection & RCC_CCIPR7_RTCSEL)))
24102f34:	f8d7 31c0 	ldr.w	r3, [r7, #448]	@ 0x1c0
24102f38:	2b00      	cmp	r3, #0
24102f3a:	d018      	beq.n	24102f6e <HAL_RCCEx_PeriphCLKConfig+0x6e>
24102f3c:	f8d7 31b4 	ldr.w	r3, [r7, #436]	@ 0x1b4
24102f40:	f8d3 3188 	ldr.w	r3, [r3, #392]	@ 0x188
24102f44:	f403 7240 	and.w	r2, r3, #768	@ 0x300
24102f48:	f8d7 31c0 	ldr.w	r3, [r7, #448]	@ 0x1c0
24102f4c:	4293      	cmp	r3, r2
24102f4e:	d00e      	beq.n	24102f6e <HAL_RCCEx_PeriphCLKConfig+0x6e>
    {
      /* Enable write access to Backup domain */
      SET_BIT(PWR->DBPCR, PWR_DBPCR_DBP);
24102f50:	4bc3      	ldr	r3, [pc, #780]	@ (24103260 <HAL_RCCEx_PeriphCLKConfig+0x360>)
24102f52:	6adb      	ldr	r3, [r3, #44]	@ 0x2c
24102f54:	4ac2      	ldr	r2, [pc, #776]	@ (24103260 <HAL_RCCEx_PeriphCLKConfig+0x360>)
24102f56:	f043 0301 	orr.w	r3, r3, #1
24102f5a:	62d3      	str	r3, [r2, #44]	@ 0x2c

      /* Read back to check Backup domain enabled */
      if (READ_BIT(PWR->DBPCR, PWR_DBPCR_DBP) == 0U)
24102f5c:	4bc0      	ldr	r3, [pc, #768]	@ (24103260 <HAL_RCCEx_PeriphCLKConfig+0x360>)
24102f5e:	6adb      	ldr	r3, [r3, #44]	@ 0x2c
24102f60:	f003 0301 	and.w	r3, r3, #1
24102f64:	2b00      	cmp	r3, #0
24102f66:	d102      	bne.n	24102f6e <HAL_RCCEx_PeriphCLKConfig+0x6e>
      {
        ret = HAL_ERROR;
24102f68:	2301      	movs	r3, #1
24102f6a:	f887 31c7 	strb.w	r3, [r7, #455]	@ 0x1c7
        WRITE_REG(RCC->BDCR, tmpreg);
#endif /* #if 0  TO DO */
      }
    }

    if (ret == HAL_OK)
24102f6e:	f897 31c7 	ldrb.w	r3, [r7, #455]	@ 0x1c7
24102f72:	2b00      	cmp	r3, #0
24102f74:	d143      	bne.n	24102ffe <HAL_RCCEx_PeriphCLKConfig+0xfe>
    {
      /* If LSE is selected as RTC clock source (and enabled prior to Backup Domain reset), wait for LSE reactivation */
      if (PeriphClkInit->RTCClockSelection == RCC_RTCCLKSOURCE_LSE)
24102f76:	f8d7 31b4 	ldr.w	r3, [r7, #436]	@ 0x1b4
24102f7a:	f8d3 3188 	ldr.w	r3, [r3, #392]	@ 0x188
24102f7e:	f5b3 7f80 	cmp.w	r3, #256	@ 0x100
24102f82:	d117      	bne.n	24102fb4 <HAL_RCCEx_PeriphCLKConfig+0xb4>
      {
        /* Get Start Tick*/
        tickstart = HAL_GetTick();
24102f84:	f7fe f894 	bl	241010b0 <HAL_GetTick>
24102f88:	f8c7 01bc 	str.w	r0, [r7, #444]	@ 0x1bc

        /* Wait till LSE is ready */
        while (LL_RCC_LSE_IsReady() == 0U)
24102f8c:	e00d      	b.n	24102faa <HAL_RCCEx_PeriphCLKConfig+0xaa>
        {
          if ((HAL_GetTick() - tickstart) > RCC_LSE_TIMEOUT_VALUE)
24102f8e:	f7fe f88f 	bl	241010b0 <HAL_GetTick>
24102f92:	4602      	mov	r2, r0
24102f94:	f8d7 31bc 	ldr.w	r3, [r7, #444]	@ 0x1bc
24102f98:	1ad2      	subs	r2, r2, r3
24102f9a:	f241 3388 	movw	r3, #5000	@ 0x1388
24102f9e:	429a      	cmp	r2, r3
24102fa0:	d903      	bls.n	24102faa <HAL_RCCEx_PeriphCLKConfig+0xaa>
          {
            ret = HAL_TIMEOUT;
24102fa2:	2303      	movs	r3, #3
24102fa4:	f887 31c7 	strb.w	r3, [r7, #455]	@ 0x1c7
            break;
24102fa8:	e004      	b.n	24102fb4 <HAL_RCCEx_PeriphCLKConfig+0xb4>
        while (LL_RCC_LSE_IsReady() == 0U)
24102faa:	f7fe fcf1 	bl	24101990 <LL_RCC_LSE_IsReady>
24102fae:	4603      	mov	r3, r0
24102fb0:	2b00      	cmp	r3, #0
24102fb2:	d0ec      	beq.n	24102f8e <HAL_RCCEx_PeriphCLKConfig+0x8e>
          }
        }
      }

      if (ret == HAL_OK)
24102fb4:	f897 31c7 	ldrb.w	r3, [r7, #455]	@ 0x1c7
24102fb8:	2b00      	cmp	r3, #0
24102fba:	d11b      	bne.n	24102ff4 <HAL_RCCEx_PeriphCLKConfig+0xf4>
      {
        __HAL_RCC_RTC_CONFIG(PeriphClkInit->RTCClockSelection);
24102fbc:	f8d7 31b4 	ldr.w	r3, [r7, #436]	@ 0x1b4
24102fc0:	f8d3 3188 	ldr.w	r3, [r3, #392]	@ 0x188
24102fc4:	f403 7340 	and.w	r3, r3, #768	@ 0x300
24102fc8:	f5b3 7f40 	cmp.w	r3, #768	@ 0x300
24102fcc:	d108      	bne.n	24102fe0 <HAL_RCCEx_PeriphCLKConfig+0xe0>
24102fce:	f8d7 31b4 	ldr.w	r3, [r7, #436]	@ 0x1b4
24102fd2:	f8d3 3188 	ldr.w	r3, [r3, #392]	@ 0x188
24102fd6:	f423 7340 	bic.w	r3, r3, #768	@ 0x300
24102fda:	4618      	mov	r0, r3
24102fdc:	f7ff f8d4 	bl	24102188 <LL_RCC_SetRTC_HSEPrescaler>
24102fe0:	f8d7 31b4 	ldr.w	r3, [r7, #436]	@ 0x1b4
24102fe4:	f8d3 3188 	ldr.w	r3, [r3, #392]	@ 0x188
24102fe8:	f403 7340 	and.w	r3, r3, #768	@ 0x300
24102fec:	4618      	mov	r0, r3
24102fee:	f7ff f8a7 	bl	24102140 <LL_RCC_SetRTCClockSource>
24102ff2:	e008      	b.n	24103006 <HAL_RCCEx_PeriphCLKConfig+0x106>
      }
      else
      {
        /* set overall return value */
        status = ret;
24102ff4:	f897 31c7 	ldrb.w	r3, [r7, #455]	@ 0x1c7
24102ff8:	f887 31c6 	strb.w	r3, [r7, #454]	@ 0x1c6
24102ffc:	e003      	b.n	24103006 <HAL_RCCEx_PeriphCLKConfig+0x106>
      }
    }
    else
    {
      /* set overall return value */
      status = ret;
24102ffe:	f897 31c7 	ldrb.w	r3, [r7, #455]	@ 0x1c7
24103002:	f887 31c6 	strb.w	r3, [r7, #454]	@ 0x1c6
    }
  }

  /*------------------------------------ CKPER configuration --------------------------------------*/
  if ((PeriphClkInit->PeriphClockSelection & RCC_PERIPHCLK_CKPER) == RCC_PERIPHCLK_CKPER)
24103006:	f8d7 31b4 	ldr.w	r3, [r7, #436]	@ 0x1b4
2410300a:	e9d3 2300 	ldrd	r2, r3, [r3]
2410300e:	f002 0804 	and.w	r8, r2, #4
24103012:	f04f 0900 	mov.w	r9, #0
24103016:	ea58 0309 	orrs.w	r3, r8, r9
2410301a:	f000 809b 	beq.w	24103154 <HAL_RCCEx_PeriphCLKConfig+0x254>
  {
    /* Check the parameters */
    assert_param(IS_RCC_CKPERCLKSOURCE(PeriphClkInit->CkperClockSelection));

    if (PeriphClkInit->CkperClockSelection == RCC_CLKPCLKSOURCE_IC5)
2410301e:	f8d7 31b4 	ldr.w	r3, [r7, #436]	@ 0x1b4
24103022:	f8d3 30b8 	ldr.w	r3, [r3, #184]	@ 0xb8
24103026:	2b04      	cmp	r3, #4
24103028:	d116      	bne.n	24103058 <HAL_RCCEx_PeriphCLKConfig+0x158>
      /* Check the parameters */
      assert_param(IS_RCC_ICCLKSOURCE(PeriphClkInit->ICSelection[RCC_IC5].ClockSelection));
      assert_param(IS_RCC_ICCLKDIVIDER(PeriphClkInit->ICSelection[RCC_IC5].ClockDivider));

      /* Set IC5 configuration */
      MODIFY_REG(RCC->IC5CFGR, RCC_IC5CFGR_IC5SEL | RCC_IC5CFGR_IC5INT,
2410302a:	4b8e      	ldr	r3, [pc, #568]	@ (24103264 <HAL_RCCEx_PeriphCLKConfig+0x364>)
2410302c:	f8d3 30d4 	ldr.w	r3, [r3, #212]	@ 0xd4
24103030:	f023 5143 	bic.w	r1, r3, #817889280	@ 0x30c00000
24103034:	f421 117c 	bic.w	r1, r1, #4128768	@ 0x3f0000
24103038:	f8d7 31b4 	ldr.w	r3, [r7, #436]	@ 0x1b4
2410303c:	6a9a      	ldr	r2, [r3, #40]	@ 0x28
2410303e:	f8d7 31b4 	ldr.w	r3, [r7, #436]	@ 0x1b4
24103042:	6adb      	ldr	r3, [r3, #44]	@ 0x2c
24103044:	3b01      	subs	r3, #1
24103046:	041b      	lsls	r3, r3, #16
24103048:	4313      	orrs	r3, r2
2410304a:	4a86      	ldr	r2, [pc, #536]	@ (24103264 <HAL_RCCEx_PeriphCLKConfig+0x364>)
2410304c:	430b      	orrs	r3, r1
2410304e:	f8c2 30d4 	str.w	r3, [r2, #212]	@ 0xd4
                 PeriphClkInit->ICSelection[RCC_IC5].ClockSelection | \
                 ((PeriphClkInit->ICSelection[RCC_IC5].ClockDivider - 1U) << RCC_IC5CFGR_IC5INT_Pos));

      LL_RCC_IC5_Enable();
24103052:	f7ff fbb3 	bl	241027bc <LL_RCC_IC5_Enable>
24103056:	e076      	b.n	24103146 <HAL_RCCEx_PeriphCLKConfig+0x246>
    }
    else if (PeriphClkInit->CkperClockSelection == RCC_CLKPCLKSOURCE_IC10)
24103058:	f8d7 31b4 	ldr.w	r3, [r7, #436]	@ 0x1b4
2410305c:	f8d3 30b8 	ldr.w	r3, [r3, #184]	@ 0xb8
24103060:	2b05      	cmp	r3, #5
24103062:	d116      	bne.n	24103092 <HAL_RCCEx_PeriphCLKConfig+0x192>
      /* Check the parameters */
      assert_param(IS_RCC_ICCLKSOURCE(PeriphClkInit->ICSelection[RCC_IC10].ClockSelection));
      assert_param(IS_RCC_ICCLKDIVIDER(PeriphClkInit->ICSelection[RCC_IC10].ClockDivider));

      /* Set IC10 configuration */
      MODIFY_REG(RCC->IC10CFGR, RCC_IC10CFGR_IC10SEL | RCC_IC10CFGR_IC10INT,
24103064:	4b7f      	ldr	r3, [pc, #508]	@ (24103264 <HAL_RCCEx_PeriphCLKConfig+0x364>)
24103066:	f8d3 30e8 	ldr.w	r3, [r3, #232]	@ 0xe8
2410306a:	f023 5143 	bic.w	r1, r3, #817889280	@ 0x30c00000
2410306e:	f421 117c 	bic.w	r1, r1, #4128768	@ 0x3f0000
24103072:	f8d7 31b4 	ldr.w	r3, [r7, #436]	@ 0x1b4
24103076:	6d1a      	ldr	r2, [r3, #80]	@ 0x50
24103078:	f8d7 31b4 	ldr.w	r3, [r7, #436]	@ 0x1b4
2410307c:	6d5b      	ldr	r3, [r3, #84]	@ 0x54
2410307e:	3b01      	subs	r3, #1
24103080:	041b      	lsls	r3, r3, #16
24103082:	4313      	orrs	r3, r2
24103084:	4a77      	ldr	r2, [pc, #476]	@ (24103264 <HAL_RCCEx_PeriphCLKConfig+0x364>)
24103086:	430b      	orrs	r3, r1
24103088:	f8c2 30e8 	str.w	r3, [r2, #232]	@ 0xe8
                 PeriphClkInit->ICSelection[RCC_IC10].ClockSelection | \
                 ((PeriphClkInit->ICSelection[RCC_IC10].ClockDivider - 1U) << RCC_IC10CFGR_IC10INT_Pos));

      LL_RCC_IC10_Enable();
2410308c:	f7ff fc96 	bl	241029bc <LL_RCC_IC10_Enable>
24103090:	e059      	b.n	24103146 <HAL_RCCEx_PeriphCLKConfig+0x246>
    }
    else if (PeriphClkInit->CkperClockSelection == RCC_CLKPCLKSOURCE_IC15)
24103092:	f8d7 31b4 	ldr.w	r3, [r7, #436]	@ 0x1b4
24103096:	f8d3 30b8 	ldr.w	r3, [r3, #184]	@ 0xb8
2410309a:	2b06      	cmp	r3, #6
2410309c:	d116      	bne.n	241030cc <HAL_RCCEx_PeriphCLKConfig+0x1cc>
      /* Check the parameters */
      assert_param(IS_RCC_ICCLKSOURCE(PeriphClkInit->ICSelection[RCC_IC15].ClockSelection));
      assert_param(IS_RCC_ICCLKDIVIDER(PeriphClkInit->ICSelection[RCC_IC15].ClockDivider));

      /* Set IC15 configuration */
      MODIFY_REG(RCC->IC15CFGR, RCC_IC15CFGR_IC15SEL | RCC_IC15CFGR_IC15INT,
2410309e:	4b71      	ldr	r3, [pc, #452]	@ (24103264 <HAL_RCCEx_PeriphCLKConfig+0x364>)
241030a0:	f8d3 30fc 	ldr.w	r3, [r3, #252]	@ 0xfc
241030a4:	f023 5143 	bic.w	r1, r3, #817889280	@ 0x30c00000
241030a8:	f421 117c 	bic.w	r1, r1, #4128768	@ 0x3f0000
241030ac:	f8d7 31b4 	ldr.w	r3, [r7, #436]	@ 0x1b4
241030b0:	6f9a      	ldr	r2, [r3, #120]	@ 0x78
241030b2:	f8d7 31b4 	ldr.w	r3, [r7, #436]	@ 0x1b4
241030b6:	6fdb      	ldr	r3, [r3, #124]	@ 0x7c
241030b8:	3b01      	subs	r3, #1
241030ba:	041b      	lsls	r3, r3, #16
241030bc:	4313      	orrs	r3, r2
241030be:	4a69      	ldr	r2, [pc, #420]	@ (24103264 <HAL_RCCEx_PeriphCLKConfig+0x364>)
241030c0:	430b      	orrs	r3, r1
241030c2:	f8c2 30fc 	str.w	r3, [r2, #252]	@ 0xfc
                 PeriphClkInit->ICSelection[RCC_IC15].ClockSelection | \
                 ((PeriphClkInit->ICSelection[RCC_IC15].ClockDivider - 1U) << RCC_IC15CFGR_IC15INT_Pos));

      LL_RCC_IC15_Enable();
241030c6:	f7ff fd79 	bl	24102bbc <LL_RCC_IC15_Enable>
241030ca:	e03c      	b.n	24103146 <HAL_RCCEx_PeriphCLKConfig+0x246>
    }
    else if (PeriphClkInit->CkperClockSelection == RCC_CLKPCLKSOURCE_IC19)
241030cc:	f8d7 31b4 	ldr.w	r3, [r7, #436]	@ 0x1b4
241030d0:	f8d3 30b8 	ldr.w	r3, [r3, #184]	@ 0xb8
241030d4:	2b03      	cmp	r3, #3
241030d6:	d118      	bne.n	2410310a <HAL_RCCEx_PeriphCLKConfig+0x20a>
      /* Check the parameters */
      assert_param(IS_RCC_ICCLKSOURCE(PeriphClkInit->ICSelection[RCC_IC19].ClockSelection));
      assert_param(IS_RCC_ICCLKDIVIDER(PeriphClkInit->ICSelection[RCC_IC19].ClockDivider));

      /* Set IC19 configuration */
      MODIFY_REG(RCC->IC19CFGR, RCC_IC19CFGR_IC19SEL | RCC_IC19CFGR_IC19INT,
241030d8:	4b62      	ldr	r3, [pc, #392]	@ (24103264 <HAL_RCCEx_PeriphCLKConfig+0x364>)
241030da:	f8d3 310c 	ldr.w	r3, [r3, #268]	@ 0x10c
241030de:	f023 5143 	bic.w	r1, r3, #817889280	@ 0x30c00000
241030e2:	f421 117c 	bic.w	r1, r1, #4128768	@ 0x3f0000
241030e6:	f8d7 31b4 	ldr.w	r3, [r7, #436]	@ 0x1b4
241030ea:	f8d3 2098 	ldr.w	r2, [r3, #152]	@ 0x98
241030ee:	f8d7 31b4 	ldr.w	r3, [r7, #436]	@ 0x1b4
241030f2:	f8d3 309c 	ldr.w	r3, [r3, #156]	@ 0x9c
241030f6:	3b01      	subs	r3, #1
241030f8:	041b      	lsls	r3, r3, #16
241030fa:	4313      	orrs	r3, r2
241030fc:	4a59      	ldr	r2, [pc, #356]	@ (24103264 <HAL_RCCEx_PeriphCLKConfig+0x364>)
241030fe:	430b      	orrs	r3, r1
24103100:	f8c2 310c 	str.w	r3, [r2, #268]	@ 0x10c
                 PeriphClkInit->ICSelection[RCC_IC19].ClockSelection | \
                 ((PeriphClkInit->ICSelection[RCC_IC19].ClockDivider - 1U) << RCC_IC19CFGR_IC19INT_Pos));

      LL_RCC_IC19_Enable();
24103104:	f7ff fe5a 	bl	24102dbc <LL_RCC_IC19_Enable>
24103108:	e01d      	b.n	24103146 <HAL_RCCEx_PeriphCLKConfig+0x246>
    }
    else if (PeriphClkInit->CkperClockSelection == RCC_CLKPCLKSOURCE_IC20)
2410310a:	f8d7 31b4 	ldr.w	r3, [r7, #436]	@ 0x1b4
2410310e:	f8d3 30b8 	ldr.w	r3, [r3, #184]	@ 0xb8
24103112:	2b07      	cmp	r3, #7
24103114:	d117      	bne.n	24103146 <HAL_RCCEx_PeriphCLKConfig+0x246>
      /* Check the parameters */
      assert_param(IS_RCC_ICCLKSOURCE(PeriphClkInit->ICSelection[RCC_IC20].ClockSelection));
      assert_param(IS_RCC_ICCLKDIVIDER(PeriphClkInit->ICSelection[RCC_IC20].ClockDivider));

      /* Set IC20 configuration */
      MODIFY_REG(RCC->IC20CFGR, RCC_IC20CFGR_IC20SEL | RCC_IC20CFGR_IC20INT,
24103116:	4b53      	ldr	r3, [pc, #332]	@ (24103264 <HAL_RCCEx_PeriphCLKConfig+0x364>)
24103118:	f8d3 3110 	ldr.w	r3, [r3, #272]	@ 0x110
2410311c:	f023 5143 	bic.w	r1, r3, #817889280	@ 0x30c00000
24103120:	f421 117c 	bic.w	r1, r1, #4128768	@ 0x3f0000
24103124:	f8d7 31b4 	ldr.w	r3, [r7, #436]	@ 0x1b4
24103128:	f8d3 20a0 	ldr.w	r2, [r3, #160]	@ 0xa0
2410312c:	f8d7 31b4 	ldr.w	r3, [r7, #436]	@ 0x1b4
24103130:	f8d3 30a4 	ldr.w	r3, [r3, #164]	@ 0xa4
24103134:	3b01      	subs	r3, #1
24103136:	041b      	lsls	r3, r3, #16
24103138:	4313      	orrs	r3, r2
2410313a:	4a4a      	ldr	r2, [pc, #296]	@ (24103264 <HAL_RCCEx_PeriphCLKConfig+0x364>)
2410313c:	430b      	orrs	r3, r1
2410313e:	f8c2 3110 	str.w	r3, [r2, #272]	@ 0x110
                 PeriphClkInit->ICSelection[RCC_IC20].ClockSelection | \
                 ((PeriphClkInit->ICSelection[RCC_IC20].ClockDivider - 1U) << RCC_IC20CFGR_IC20INT_Pos));

      LL_RCC_IC20_Enable();
24103142:	f7ff fe7b 	bl	24102e3c <LL_RCC_IC20_Enable>
    {
      /* No ICx selected as source */
    }

    /* Configure the CKPER clock source */
    __HAL_RCC_CLKP_CONFIG(PeriphClkInit->CkperClockSelection);
24103146:	f8d7 31b4 	ldr.w	r3, [r7, #436]	@ 0x1b4
2410314a:	f8d3 30b8 	ldr.w	r3, [r3, #184]	@ 0xb8
2410314e:	4618      	mov	r0, r3
24103150:	f7fe fcd2 	bl	24101af8 <LL_RCC_SetCLKPClockSource>
  }

  /*-------------------------- XSPI1 clock source configuration ----------------*/
  if ((PeriphClkInit->PeriphClockSelection & RCC_PERIPHCLK_XSPI1) == RCC_PERIPHCLK_XSPI1)
24103154:	f8d7 31b4 	ldr.w	r3, [r7, #436]	@ 0x1b4
24103158:	e9d3 2300 	ldrd	r2, r3, [r3]
2410315c:	f04f 0a00 	mov.w	sl, #0
24103160:	f403 0b80 	and.w	fp, r3, #4194304	@ 0x400000
24103164:	ea5a 030b 	orrs.w	r3, sl, fp
24103168:	d04b      	beq.n	24103202 <HAL_RCCEx_PeriphCLKConfig+0x302>
  {
    /* Check the parameters */
    assert_param(IS_RCC_XSPI1CLKSOURCE(PeriphClkInit->Xspi1ClockSelection));

    if (PeriphClkInit->Xspi1ClockSelection == RCC_XSPI1CLKSOURCE_IC3)
2410316a:	f8d7 31b4 	ldr.w	r3, [r7, #436]	@ 0x1b4
2410316e:	f8d3 20ac 	ldr.w	r2, [r3, #172]	@ 0xac
24103172:	4b3d      	ldr	r3, [pc, #244]	@ (24103268 <HAL_RCCEx_PeriphCLKConfig+0x368>)
24103174:	429a      	cmp	r2, r3
24103176:	d116      	bne.n	241031a6 <HAL_RCCEx_PeriphCLKConfig+0x2a6>
      /* Check the parameters */
      assert_param(IS_RCC_ICCLKSOURCE(PeriphClkInit->ICSelection[RCC_IC3].ClockSelection));
      assert_param(IS_RCC_ICCLKDIVIDER(PeriphClkInit->ICSelection[RCC_IC3].ClockDivider));

      /* Set IC3 configuration */
      MODIFY_REG(RCC->IC3CFGR, RCC_IC3CFGR_IC3SEL | RCC_IC3CFGR_IC3INT,
24103178:	4b3a      	ldr	r3, [pc, #232]	@ (24103264 <HAL_RCCEx_PeriphCLKConfig+0x364>)
2410317a:	f8d3 30cc 	ldr.w	r3, [r3, #204]	@ 0xcc
2410317e:	f023 5143 	bic.w	r1, r3, #817889280	@ 0x30c00000
24103182:	f421 117c 	bic.w	r1, r1, #4128768	@ 0x3f0000
24103186:	f8d7 31b4 	ldr.w	r3, [r7, #436]	@ 0x1b4
2410318a:	699a      	ldr	r2, [r3, #24]
2410318c:	f8d7 31b4 	ldr.w	r3, [r7, #436]	@ 0x1b4
24103190:	69db      	ldr	r3, [r3, #28]
24103192:	3b01      	subs	r3, #1
24103194:	041b      	lsls	r3, r3, #16
24103196:	4313      	orrs	r3, r2
24103198:	4a32      	ldr	r2, [pc, #200]	@ (24103264 <HAL_RCCEx_PeriphCLKConfig+0x364>)
2410319a:	430b      	orrs	r3, r1
2410319c:	f8c2 30cc 	str.w	r3, [r2, #204]	@ 0xcc
                 PeriphClkInit->ICSelection[RCC_IC3].ClockSelection | \
                 ((PeriphClkInit->ICSelection[RCC_IC3].ClockDivider - 1U) << RCC_IC3CFGR_IC3INT_Pos));

      LL_RCC_IC3_Enable();
241031a0:	f7ff fa8c 	bl	241026bc <LL_RCC_IC3_Enable>
241031a4:	e026      	b.n	241031f4 <HAL_RCCEx_PeriphCLKConfig+0x2f4>
    }
    else if (PeriphClkInit->Xspi1ClockSelection == RCC_XSPI1CLKSOURCE_IC4)
241031a6:	f8d7 31b4 	ldr.w	r3, [r7, #436]	@ 0x1b4
241031aa:	f8d3 20ac 	ldr.w	r2, [r3, #172]	@ 0xac
241031ae:	4b2f      	ldr	r3, [pc, #188]	@ (2410326c <HAL_RCCEx_PeriphCLKConfig+0x36c>)
241031b0:	429a      	cmp	r2, r3
241031b2:	d116      	bne.n	241031e2 <HAL_RCCEx_PeriphCLKConfig+0x2e2>
      /* Check the parameters */
      assert_param(IS_RCC_ICCLKSOURCE(PeriphClkInit->ICSelection[RCC_IC4].ClockSelection));
      assert_param(IS_RCC_ICCLKDIVIDER(PeriphClkInit->ICSelection[RCC_IC4].ClockDivider));

      /* Set IC4 configuration */
      MODIFY_REG(RCC->IC4CFGR, RCC_IC4CFGR_IC4SEL | RCC_IC4CFGR_IC4INT,
241031b4:	4b2b      	ldr	r3, [pc, #172]	@ (24103264 <HAL_RCCEx_PeriphCLKConfig+0x364>)
241031b6:	f8d3 30d0 	ldr.w	r3, [r3, #208]	@ 0xd0
241031ba:	f023 5143 	bic.w	r1, r3, #817889280	@ 0x30c00000
241031be:	f421 117c 	bic.w	r1, r1, #4128768	@ 0x3f0000
241031c2:	f8d7 31b4 	ldr.w	r3, [r7, #436]	@ 0x1b4
241031c6:	6a1a      	ldr	r2, [r3, #32]
241031c8:	f8d7 31b4 	ldr.w	r3, [r7, #436]	@ 0x1b4
241031cc:	6a5b      	ldr	r3, [r3, #36]	@ 0x24
241031ce:	3b01      	subs	r3, #1
241031d0:	041b      	lsls	r3, r3, #16
241031d2:	4313      	orrs	r3, r2
241031d4:	4a23      	ldr	r2, [pc, #140]	@ (24103264 <HAL_RCCEx_PeriphCLKConfig+0x364>)
241031d6:	430b      	orrs	r3, r1
241031d8:	f8c2 30d0 	str.w	r3, [r2, #208]	@ 0xd0
                 PeriphClkInit->ICSelection[RCC_IC4].ClockSelection | \
                 ((PeriphClkInit->ICSelection[RCC_IC4].ClockDivider - 1U) << RCC_IC4CFGR_IC4INT_Pos));

      LL_RCC_IC4_Enable();
241031dc:	f7ff faae 	bl	2410273c <LL_RCC_IC4_Enable>
241031e0:	e008      	b.n	241031f4 <HAL_RCCEx_PeriphCLKConfig+0x2f4>
    }
    else if (PeriphClkInit->Xspi1ClockSelection == RCC_XSPI1CLKSOURCE_CLKP)
241031e2:	f8d7 31b4 	ldr.w	r3, [r7, #436]	@ 0x1b4
241031e6:	f8d3 20ac 	ldr.w	r2, [r3, #172]	@ 0xac
241031ea:	4b21      	ldr	r3, [pc, #132]	@ (24103270 <HAL_RCCEx_PeriphCLKConfig+0x370>)
241031ec:	429a      	cmp	r2, r3
241031ee:	d101      	bne.n	241031f4 <HAL_RCCEx_PeriphCLKConfig+0x2f4>
    {
      LL_RCC_CLKP_Enable();
241031f0:	f7ff fe64 	bl	24102ebc <LL_RCC_CLKP_Enable>
    {
      /* No specific enable to do on other sources */
    }

    /* Configure the XSPI1 clock source */
    __HAL_RCC_XSPI1_CONFIG(PeriphClkInit->Xspi1ClockSelection);
241031f4:	f8d7 31b4 	ldr.w	r3, [r7, #436]	@ 0x1b4
241031f8:	f8d3 30ac 	ldr.w	r3, [r3, #172]	@ 0xac
241031fc:	4618      	mov	r0, r3
241031fe:	f7fe fe0b 	bl	24101e18 <LL_RCC_SetXSPIClockSource>
  }

  /*-------------------------- XSPI2 clock source configuration ----------------*/
  if ((PeriphClkInit->PeriphClockSelection & RCC_PERIPHCLK_XSPI2) == RCC_PERIPHCLK_XSPI2)
24103202:	f8d7 31b4 	ldr.w	r3, [r7, #436]	@ 0x1b4
24103206:	e9d3 2300 	ldrd	r2, r3, [r3]
2410320a:	2100      	movs	r1, #0
2410320c:	f8c7 11a8 	str.w	r1, [r7, #424]	@ 0x1a8
24103210:	f403 0300 	and.w	r3, r3, #8388608	@ 0x800000
24103214:	f8c7 31ac 	str.w	r3, [r7, #428]	@ 0x1ac
24103218:	e9d7 016a 	ldrd	r0, r1, [r7, #424]	@ 0x1a8
2410321c:	4603      	mov	r3, r0
2410321e:	460a      	mov	r2, r1
24103220:	4313      	orrs	r3, r2
24103222:	d057      	beq.n	241032d4 <HAL_RCCEx_PeriphCLKConfig+0x3d4>
  {
    /* Check the parameters */
    assert_param(IS_RCC_XSPI2CLKSOURCE(PeriphClkInit->Xspi2ClockSelection));

    if (PeriphClkInit->Xspi2ClockSelection == RCC_XSPI2CLKSOURCE_IC3)
24103224:	f8d7 31b4 	ldr.w	r3, [r7, #436]	@ 0x1b4
24103228:	f8d3 20b0 	ldr.w	r2, [r3, #176]	@ 0xb0
2410322c:	4b11      	ldr	r3, [pc, #68]	@ (24103274 <HAL_RCCEx_PeriphCLKConfig+0x374>)
2410322e:	429a      	cmp	r2, r3
24103230:	d122      	bne.n	24103278 <HAL_RCCEx_PeriphCLKConfig+0x378>
      /* Check the parameters */
      assert_param(IS_RCC_ICCLKSOURCE(PeriphClkInit->ICSelection[RCC_IC3].ClockSelection));
      assert_param(IS_RCC_ICCLKDIVIDER(PeriphClkInit->ICSelection[RCC_IC3].ClockDivider));

      /* Set IC3 configuration */
      MODIFY_REG(RCC->IC3CFGR, RCC_IC3CFGR_IC3SEL | RCC_IC3CFGR_IC3INT,
24103232:	4b0c      	ldr	r3, [pc, #48]	@ (24103264 <HAL_RCCEx_PeriphCLKConfig+0x364>)
24103234:	f8d3 30cc 	ldr.w	r3, [r3, #204]	@ 0xcc
24103238:	f023 5143 	bic.w	r1, r3, #817889280	@ 0x30c00000
2410323c:	f421 117c 	bic.w	r1, r1, #4128768	@ 0x3f0000
24103240:	f8d7 31b4 	ldr.w	r3, [r7, #436]	@ 0x1b4
24103244:	699a      	ldr	r2, [r3, #24]
24103246:	f8d7 31b4 	ldr.w	r3, [r7, #436]	@ 0x1b4
2410324a:	69db      	ldr	r3, [r3, #28]
2410324c:	3b01      	subs	r3, #1
2410324e:	041b      	lsls	r3, r3, #16
24103250:	4313      	orrs	r3, r2
24103252:	4a04      	ldr	r2, [pc, #16]	@ (24103264 <HAL_RCCEx_PeriphCLKConfig+0x364>)
24103254:	430b      	orrs	r3, r1
24103256:	f8c2 30cc 	str.w	r3, [r2, #204]	@ 0xcc
                 PeriphClkInit->ICSelection[RCC_IC3].ClockSelection | \
                 ((PeriphClkInit->ICSelection[RCC_IC3].ClockDivider - 1U) << RCC_IC3CFGR_IC3INT_Pos));

      LL_RCC_IC3_Enable();
2410325a:	f7ff fa2f 	bl	241026bc <LL_RCC_IC3_Enable>
2410325e:	e032      	b.n	241032c6 <HAL_RCCEx_PeriphCLKConfig+0x3c6>
24103260:	46024800 	.word	0x46024800
24103264:	46028000 	.word	0x46028000
24103268:	03020014 	.word	0x03020014
2410326c:	03030014 	.word	0x03030014
24103270:	03010014 	.word	0x03010014
24103274:	03020414 	.word	0x03020414
    }
    else if (PeriphClkInit->Xspi2ClockSelection == RCC_XSPI2CLKSOURCE_IC4)
24103278:	f8d7 31b4 	ldr.w	r3, [r7, #436]	@ 0x1b4
2410327c:	f8d3 20b0 	ldr.w	r2, [r3, #176]	@ 0xb0
24103280:	4bc5      	ldr	r3, [pc, #788]	@ (24103598 <HAL_RCCEx_PeriphCLKConfig+0x698>)
24103282:	429a      	cmp	r2, r3
24103284:	d116      	bne.n	241032b4 <HAL_RCCEx_PeriphCLKConfig+0x3b4>
      /* Check the parameters */
      assert_param(IS_RCC_ICCLKSOURCE(PeriphClkInit->ICSelection[RCC_IC4].ClockSelection));
      assert_param(IS_RCC_ICCLKDIVIDER(PeriphClkInit->ICSelection[RCC_IC4].ClockDivider));

      /* Set IC4 configuration */
      MODIFY_REG(RCC->IC4CFGR, RCC_IC4CFGR_IC4SEL | RCC_IC4CFGR_IC4INT,
24103286:	4bc5      	ldr	r3, [pc, #788]	@ (2410359c <HAL_RCCEx_PeriphCLKConfig+0x69c>)
24103288:	f8d3 30d0 	ldr.w	r3, [r3, #208]	@ 0xd0
2410328c:	f023 5143 	bic.w	r1, r3, #817889280	@ 0x30c00000
24103290:	f421 117c 	bic.w	r1, r1, #4128768	@ 0x3f0000
24103294:	f8d7 31b4 	ldr.w	r3, [r7, #436]	@ 0x1b4
24103298:	6a1a      	ldr	r2, [r3, #32]
2410329a:	f8d7 31b4 	ldr.w	r3, [r7, #436]	@ 0x1b4
2410329e:	6a5b      	ldr	r3, [r3, #36]	@ 0x24
241032a0:	3b01      	subs	r3, #1
241032a2:	041b      	lsls	r3, r3, #16
241032a4:	4313      	orrs	r3, r2
241032a6:	4abd      	ldr	r2, [pc, #756]	@ (2410359c <HAL_RCCEx_PeriphCLKConfig+0x69c>)
241032a8:	430b      	orrs	r3, r1
241032aa:	f8c2 30d0 	str.w	r3, [r2, #208]	@ 0xd0
                 PeriphClkInit->ICSelection[RCC_IC4].ClockSelection | \
                 ((PeriphClkInit->ICSelection[RCC_IC4].ClockDivider - 1U) << RCC_IC4CFGR_IC4INT_Pos));

      LL_RCC_IC4_Enable();
241032ae:	f7ff fa45 	bl	2410273c <LL_RCC_IC4_Enable>
241032b2:	e008      	b.n	241032c6 <HAL_RCCEx_PeriphCLKConfig+0x3c6>
    }
    else if (PeriphClkInit->Xspi2ClockSelection == RCC_XSPI2CLKSOURCE_CLKP)
241032b4:	f8d7 31b4 	ldr.w	r3, [r7, #436]	@ 0x1b4
241032b8:	f8d3 20b0 	ldr.w	r2, [r3, #176]	@ 0xb0
241032bc:	4bb8      	ldr	r3, [pc, #736]	@ (241035a0 <HAL_RCCEx_PeriphCLKConfig+0x6a0>)
241032be:	429a      	cmp	r2, r3
241032c0:	d101      	bne.n	241032c6 <HAL_RCCEx_PeriphCLKConfig+0x3c6>
    {
      LL_RCC_CLKP_Enable();
241032c2:	f7ff fdfb 	bl	24102ebc <LL_RCC_CLKP_Enable>
    {
      /* No specific enable to do on other sources */
    }

    /* Configure the XSPI2 clock source */
    __HAL_RCC_XSPI2_CONFIG(PeriphClkInit->Xspi2ClockSelection);
241032c6:	f8d7 31b4 	ldr.w	r3, [r7, #436]	@ 0x1b4
241032ca:	f8d3 30b0 	ldr.w	r3, [r3, #176]	@ 0xb0
241032ce:	4618      	mov	r0, r3
241032d0:	f7fe fda2 	bl	24101e18 <LL_RCC_SetXSPIClockSource>
  }

  /*-------------------------- XSPI3 clock source configuration ----------------*/
  if ((PeriphClkInit->PeriphClockSelection & RCC_PERIPHCLK_XSPI3) == RCC_PERIPHCLK_XSPI3)
241032d4:	f8d7 31b4 	ldr.w	r3, [r7, #436]	@ 0x1b4
241032d8:	e9d3 2300 	ldrd	r2, r3, [r3]
241032dc:	2100      	movs	r1, #0
241032de:	f8c7 11a0 	str.w	r1, [r7, #416]	@ 0x1a0
241032e2:	f003 7380 	and.w	r3, r3, #16777216	@ 0x1000000
241032e6:	f8c7 31a4 	str.w	r3, [r7, #420]	@ 0x1a4
241032ea:	e9d7 0168 	ldrd	r0, r1, [r7, #416]	@ 0x1a0
241032ee:	4603      	mov	r3, r0
241032f0:	460a      	mov	r2, r1
241032f2:	4313      	orrs	r3, r2
241032f4:	d04b      	beq.n	2410338e <HAL_RCCEx_PeriphCLKConfig+0x48e>
  {
    /* Check the parameters */
    assert_param(IS_RCC_XSPI3CLKSOURCE(PeriphClkInit->Xspi3ClockSelection));

    if (PeriphClkInit->Xspi3ClockSelection == RCC_XSPI3CLKSOURCE_IC3)
241032f6:	f8d7 31b4 	ldr.w	r3, [r7, #436]	@ 0x1b4
241032fa:	f8d3 20b4 	ldr.w	r2, [r3, #180]	@ 0xb4
241032fe:	4ba9      	ldr	r3, [pc, #676]	@ (241035a4 <HAL_RCCEx_PeriphCLKConfig+0x6a4>)
24103300:	429a      	cmp	r2, r3
24103302:	d116      	bne.n	24103332 <HAL_RCCEx_PeriphCLKConfig+0x432>
      /* Check the parameters */
      assert_param(IS_RCC_ICCLKSOURCE(PeriphClkInit->ICSelection[RCC_IC3].ClockSelection));
      assert_param(IS_RCC_ICCLKDIVIDER(PeriphClkInit->ICSelection[RCC_IC3].ClockDivider));

      /* Set IC3 configuration */
      MODIFY_REG(RCC->IC3CFGR, RCC_IC3CFGR_IC3SEL | RCC_IC3CFGR_IC3INT,
24103304:	4ba5      	ldr	r3, [pc, #660]	@ (2410359c <HAL_RCCEx_PeriphCLKConfig+0x69c>)
24103306:	f8d3 30cc 	ldr.w	r3, [r3, #204]	@ 0xcc
2410330a:	f023 5143 	bic.w	r1, r3, #817889280	@ 0x30c00000
2410330e:	f421 117c 	bic.w	r1, r1, #4128768	@ 0x3f0000
24103312:	f8d7 31b4 	ldr.w	r3, [r7, #436]	@ 0x1b4
24103316:	699a      	ldr	r2, [r3, #24]
24103318:	f8d7 31b4 	ldr.w	r3, [r7, #436]	@ 0x1b4
2410331c:	69db      	ldr	r3, [r3, #28]
2410331e:	3b01      	subs	r3, #1
24103320:	041b      	lsls	r3, r3, #16
24103322:	4313      	orrs	r3, r2
24103324:	4a9d      	ldr	r2, [pc, #628]	@ (2410359c <HAL_RCCEx_PeriphCLKConfig+0x69c>)
24103326:	430b      	orrs	r3, r1
24103328:	f8c2 30cc 	str.w	r3, [r2, #204]	@ 0xcc
                 PeriphClkInit->ICSelection[RCC_IC3].ClockSelection | \
                 ((PeriphClkInit->ICSelection[RCC_IC3].ClockDivider - 1U) << RCC_IC3CFGR_IC3INT_Pos));

      LL_RCC_IC3_Enable();
2410332c:	f7ff f9c6 	bl	241026bc <LL_RCC_IC3_Enable>
24103330:	e026      	b.n	24103380 <HAL_RCCEx_PeriphCLKConfig+0x480>
    }
    else if (PeriphClkInit->Xspi3ClockSelection == RCC_XSPI3CLKSOURCE_IC4)
24103332:	f8d7 31b4 	ldr.w	r3, [r7, #436]	@ 0x1b4
24103336:	f8d3 20b4 	ldr.w	r2, [r3, #180]	@ 0xb4
2410333a:	4b9b      	ldr	r3, [pc, #620]	@ (241035a8 <HAL_RCCEx_PeriphCLKConfig+0x6a8>)
2410333c:	429a      	cmp	r2, r3
2410333e:	d116      	bne.n	2410336e <HAL_RCCEx_PeriphCLKConfig+0x46e>
      /* Check the parameters */
      assert_param(IS_RCC_ICCLKSOURCE(PeriphClkInit->ICSelection[RCC_IC4].ClockSelection));
      assert_param(IS_RCC_ICCLKDIVIDER(PeriphClkInit->ICSelection[RCC_IC4].ClockDivider));

      /* Set IC4 configuration */
      MODIFY_REG(RCC->IC4CFGR, RCC_IC4CFGR_IC4SEL | RCC_IC4CFGR_IC4INT,
24103340:	4b96      	ldr	r3, [pc, #600]	@ (2410359c <HAL_RCCEx_PeriphCLKConfig+0x69c>)
24103342:	f8d3 30d0 	ldr.w	r3, [r3, #208]	@ 0xd0
24103346:	f023 5143 	bic.w	r1, r3, #817889280	@ 0x30c00000
2410334a:	f421 117c 	bic.w	r1, r1, #4128768	@ 0x3f0000
2410334e:	f8d7 31b4 	ldr.w	r3, [r7, #436]	@ 0x1b4
24103352:	6a1a      	ldr	r2, [r3, #32]
24103354:	f8d7 31b4 	ldr.w	r3, [r7, #436]	@ 0x1b4
24103358:	6a5b      	ldr	r3, [r3, #36]	@ 0x24
2410335a:	3b01      	subs	r3, #1
2410335c:	041b      	lsls	r3, r3, #16
2410335e:	4313      	orrs	r3, r2
24103360:	4a8e      	ldr	r2, [pc, #568]	@ (2410359c <HAL_RCCEx_PeriphCLKConfig+0x69c>)
24103362:	430b      	orrs	r3, r1
24103364:	f8c2 30d0 	str.w	r3, [r2, #208]	@ 0xd0
                 PeriphClkInit->ICSelection[RCC_IC4].ClockSelection | \
                 ((PeriphClkInit->ICSelection[RCC_IC4].ClockDivider - 1U) << RCC_IC4CFGR_IC4INT_Pos));

      LL_RCC_IC4_Enable();
24103368:	f7ff f9e8 	bl	2410273c <LL_RCC_IC4_Enable>
2410336c:	e008      	b.n	24103380 <HAL_RCCEx_PeriphCLKConfig+0x480>
    }
    else if (PeriphClkInit->Xspi3ClockSelection == RCC_XSPI3CLKSOURCE_CLKP)
2410336e:	f8d7 31b4 	ldr.w	r3, [r7, #436]	@ 0x1b4
24103372:	f8d3 20b4 	ldr.w	r2, [r3, #180]	@ 0xb4
24103376:	4b8d      	ldr	r3, [pc, #564]	@ (241035ac <HAL_RCCEx_PeriphCLKConfig+0x6ac>)
24103378:	429a      	cmp	r2, r3
2410337a:	d101      	bne.n	24103380 <HAL_RCCEx_PeriphCLKConfig+0x480>
    {
      LL_RCC_CLKP_Enable();
2410337c:	f7ff fd9e 	bl	24102ebc <LL_RCC_CLKP_Enable>
    {
      /* No specific enable to do on other sources */
    }

    /* Configure the XSPI3 clock source */
    __HAL_RCC_XSPI3_CONFIG(PeriphClkInit->Xspi3ClockSelection);
24103380:	f8d7 31b4 	ldr.w	r3, [r7, #436]	@ 0x1b4
24103384:	f8d3 30b4 	ldr.w	r3, [r3, #180]	@ 0xb4
24103388:	4618      	mov	r0, r3
2410338a:	f7fe fd45 	bl	24101e18 <LL_RCC_SetXSPIClockSource>
  }

  /*---------------------------- FMC configuration -------------------------------*/
  if ((PeriphClkInit->PeriphClockSelection & RCC_PERIPHCLK_FMC) == RCC_PERIPHCLK_FMC)
2410338e:	f8d7 31b4 	ldr.w	r3, [r7, #436]	@ 0x1b4
24103392:	e9d3 2300 	ldrd	r2, r3, [r3]
24103396:	f402 6300 	and.w	r3, r2, #2048	@ 0x800
2410339a:	f8c7 3198 	str.w	r3, [r7, #408]	@ 0x198
2410339e:	2300      	movs	r3, #0
241033a0:	f8c7 319c 	str.w	r3, [r7, #412]	@ 0x19c
241033a4:	e9d7 0166 	ldrd	r0, r1, [r7, #408]	@ 0x198
241033a8:	4603      	mov	r3, r0
241033aa:	460a      	mov	r2, r1
241033ac:	4313      	orrs	r3, r2
241033ae:	d048      	beq.n	24103442 <HAL_RCCEx_PeriphCLKConfig+0x542>
  {
    /* Check the parameters */
    assert_param(IS_RCC_FMCCLKSOURCE(PeriphClkInit->FmcClockSelection));

    if (PeriphClkInit->FmcClockSelection == RCC_FMCCLKSOURCE_IC3)
241033b0:	f8d7 31b4 	ldr.w	r3, [r7, #436]	@ 0x1b4
241033b4:	f8d3 30a8 	ldr.w	r3, [r3, #168]	@ 0xa8
241033b8:	2b20      	cmp	r3, #32
241033ba:	d116      	bne.n	241033ea <HAL_RCCEx_PeriphCLKConfig+0x4ea>
      /* Check the parameters */
      assert_param(IS_RCC_ICCLKSOURCE(PeriphClkInit->ICSelection[RCC_IC3].ClockSelection));
      assert_param(IS_RCC_ICCLKDIVIDER(PeriphClkInit->ICSelection[RCC_IC3].ClockDivider));

      /* Set IC3 configuration */
      MODIFY_REG(RCC->IC3CFGR, RCC_IC3CFGR_IC3SEL | RCC_IC3CFGR_IC3INT,
241033bc:	4b77      	ldr	r3, [pc, #476]	@ (2410359c <HAL_RCCEx_PeriphCLKConfig+0x69c>)
241033be:	f8d3 30cc 	ldr.w	r3, [r3, #204]	@ 0xcc
241033c2:	f023 5143 	bic.w	r1, r3, #817889280	@ 0x30c00000
241033c6:	f421 117c 	bic.w	r1, r1, #4128768	@ 0x3f0000
241033ca:	f8d7 31b4 	ldr.w	r3, [r7, #436]	@ 0x1b4
241033ce:	699a      	ldr	r2, [r3, #24]
241033d0:	f8d7 31b4 	ldr.w	r3, [r7, #436]	@ 0x1b4
241033d4:	69db      	ldr	r3, [r3, #28]
241033d6:	3b01      	subs	r3, #1
241033d8:	041b      	lsls	r3, r3, #16
241033da:	4313      	orrs	r3, r2
241033dc:	4a6f      	ldr	r2, [pc, #444]	@ (2410359c <HAL_RCCEx_PeriphCLKConfig+0x69c>)
241033de:	430b      	orrs	r3, r1
241033e0:	f8c2 30cc 	str.w	r3, [r2, #204]	@ 0xcc
                 PeriphClkInit->ICSelection[RCC_IC3].ClockSelection | \
                 ((PeriphClkInit->ICSelection[RCC_IC3].ClockDivider - 1U) << RCC_IC3CFGR_IC3INT_Pos));

      LL_RCC_IC3_Enable();
241033e4:	f7ff f96a 	bl	241026bc <LL_RCC_IC3_Enable>
241033e8:	e024      	b.n	24103434 <HAL_RCCEx_PeriphCLKConfig+0x534>
    }
    else if (PeriphClkInit->FmcClockSelection == RCC_FMCCLKSOURCE_IC4)
241033ea:	f8d7 31b4 	ldr.w	r3, [r7, #436]	@ 0x1b4
241033ee:	f8d3 30a8 	ldr.w	r3, [r3, #168]	@ 0xa8
241033f2:	2b30      	cmp	r3, #48	@ 0x30
241033f4:	d116      	bne.n	24103424 <HAL_RCCEx_PeriphCLKConfig+0x524>
      /* Check the parameters */
      assert_param(IS_RCC_ICCLKSOURCE(PeriphClkInit->ICSelection[RCC_IC4].ClockSelection));
      assert_param(IS_RCC_ICCLKDIVIDER(PeriphClkInit->ICSelection[RCC_IC4].ClockDivider));

      /* Set IC4 configuration */
      MODIFY_REG(RCC->IC4CFGR, RCC_IC4CFGR_IC4SEL | RCC_IC4CFGR_IC4INT,
241033f6:	4b69      	ldr	r3, [pc, #420]	@ (2410359c <HAL_RCCEx_PeriphCLKConfig+0x69c>)
241033f8:	f8d3 30d0 	ldr.w	r3, [r3, #208]	@ 0xd0
241033fc:	f023 5143 	bic.w	r1, r3, #817889280	@ 0x30c00000
24103400:	f421 117c 	bic.w	r1, r1, #4128768	@ 0x3f0000
24103404:	f8d7 31b4 	ldr.w	r3, [r7, #436]	@ 0x1b4
24103408:	6a1a      	ldr	r2, [r3, #32]
2410340a:	f8d7 31b4 	ldr.w	r3, [r7, #436]	@ 0x1b4
2410340e:	6a5b      	ldr	r3, [r3, #36]	@ 0x24
24103410:	3b01      	subs	r3, #1
24103412:	041b      	lsls	r3, r3, #16
24103414:	4313      	orrs	r3, r2
24103416:	4a61      	ldr	r2, [pc, #388]	@ (2410359c <HAL_RCCEx_PeriphCLKConfig+0x69c>)
24103418:	430b      	orrs	r3, r1
2410341a:	f8c2 30d0 	str.w	r3, [r2, #208]	@ 0xd0
                 PeriphClkInit->ICSelection[RCC_IC4].ClockSelection | \
                 ((PeriphClkInit->ICSelection[RCC_IC4].ClockDivider - 1U) << RCC_IC4CFGR_IC4INT_Pos));

      LL_RCC_IC4_Enable();
2410341e:	f7ff f98d 	bl	2410273c <LL_RCC_IC4_Enable>
24103422:	e007      	b.n	24103434 <HAL_RCCEx_PeriphCLKConfig+0x534>
    }
    else if (PeriphClkInit->FmcClockSelection == RCC_FMCCLKSOURCE_CLKP)
24103424:	f8d7 31b4 	ldr.w	r3, [r7, #436]	@ 0x1b4
24103428:	f8d3 30a8 	ldr.w	r3, [r3, #168]	@ 0xa8
2410342c:	2b10      	cmp	r3, #16
2410342e:	d101      	bne.n	24103434 <HAL_RCCEx_PeriphCLKConfig+0x534>
    {
      LL_RCC_CLKP_Enable();
24103430:	f7ff fd44 	bl	24102ebc <LL_RCC_CLKP_Enable>
    {
      /* No specific enable to do on other sources */
    }

    /* Set the source of FMC kernel clock*/
    __HAL_RCC_FMC_CONFIG(PeriphClkInit->FmcClockSelection);
24103434:	f8d7 31b4 	ldr.w	r3, [r7, #436]	@ 0x1b4
24103438:	f8d3 30a8 	ldr.w	r3, [r3, #168]	@ 0xa8
2410343c:	4618      	mov	r0, r3
2410343e:	f7fe fc03 	bl	24101c48 <LL_RCC_SetFMCClockSource>
  }

  /*------------------------------------- SDMMC1 Configuration ------------------------------------*/
  if ((PeriphClkInit->PeriphClockSelection & RCC_PERIPHCLK_SDMMC1) == RCC_PERIPHCLK_SDMMC1)
24103442:	f8d7 31b4 	ldr.w	r3, [r7, #436]	@ 0x1b4
24103446:	e9d3 2300 	ldrd	r2, r3, [r3]
2410344a:	f002 4380 	and.w	r3, r2, #1073741824	@ 0x40000000
2410344e:	f8c7 3190 	str.w	r3, [r7, #400]	@ 0x190
24103452:	2300      	movs	r3, #0
24103454:	f8c7 3194 	str.w	r3, [r7, #404]	@ 0x194
24103458:	e9d7 0164 	ldrd	r0, r1, [r7, #400]	@ 0x190
2410345c:	4603      	mov	r3, r0
2410345e:	460a      	mov	r2, r1
24103460:	4313      	orrs	r3, r2
24103462:	d04b      	beq.n	241034fc <HAL_RCCEx_PeriphCLKConfig+0x5fc>
  {
    /* Check the parameters */
    assert_param(IS_RCC_SDMMC1CLKSOURCE(PeriphClkInit->Sdmmc1ClockSelection));

    if (PeriphClkInit->Sdmmc1ClockSelection == RCC_SDMMC1CLKSOURCE_IC4)
24103464:	f8d7 31b4 	ldr.w	r3, [r7, #436]	@ 0x1b4
24103468:	f8d3 212c 	ldr.w	r2, [r3, #300]	@ 0x12c
2410346c:	4b50      	ldr	r3, [pc, #320]	@ (241035b0 <HAL_RCCEx_PeriphCLKConfig+0x6b0>)
2410346e:	429a      	cmp	r2, r3
24103470:	d116      	bne.n	241034a0 <HAL_RCCEx_PeriphCLKConfig+0x5a0>
      /* Check the parameters */
      assert_param(IS_RCC_ICCLKSOURCE(PeriphClkInit->ICSelection[RCC_IC4].ClockSelection));
      assert_param(IS_RCC_ICCLKDIVIDER(PeriphClkInit->ICSelection[RCC_IC4].ClockDivider));

      /* Set IC4 configuration */
      MODIFY_REG(RCC->IC4CFGR, RCC_IC4CFGR_IC4SEL | RCC_IC4CFGR_IC4INT,
24103472:	4b4a      	ldr	r3, [pc, #296]	@ (2410359c <HAL_RCCEx_PeriphCLKConfig+0x69c>)
24103474:	f8d3 30d0 	ldr.w	r3, [r3, #208]	@ 0xd0
24103478:	f023 5143 	bic.w	r1, r3, #817889280	@ 0x30c00000
2410347c:	f421 117c 	bic.w	r1, r1, #4128768	@ 0x3f0000
24103480:	f8d7 31b4 	ldr.w	r3, [r7, #436]	@ 0x1b4
24103484:	6a1a      	ldr	r2, [r3, #32]
24103486:	f8d7 31b4 	ldr.w	r3, [r7, #436]	@ 0x1b4
2410348a:	6a5b      	ldr	r3, [r3, #36]	@ 0x24
2410348c:	3b01      	subs	r3, #1
2410348e:	041b      	lsls	r3, r3, #16
24103490:	4313      	orrs	r3, r2
24103492:	4a42      	ldr	r2, [pc, #264]	@ (2410359c <HAL_RCCEx_PeriphCLKConfig+0x69c>)
24103494:	430b      	orrs	r3, r1
24103496:	f8c2 30d0 	str.w	r3, [r2, #208]	@ 0xd0
                 PeriphClkInit->ICSelection[RCC_IC4].ClockSelection | \
                 ((PeriphClkInit->ICSelection[RCC_IC4].ClockDivider - 1U) << RCC_IC4CFGR_IC4INT_Pos));

      LL_RCC_IC4_Enable();
2410349a:	f7ff f94f 	bl	2410273c <LL_RCC_IC4_Enable>
2410349e:	e026      	b.n	241034ee <HAL_RCCEx_PeriphCLKConfig+0x5ee>
    }
    else if (PeriphClkInit->Sdmmc1ClockSelection == RCC_SDMMC1CLKSOURCE_IC5)
241034a0:	f8d7 31b4 	ldr.w	r3, [r7, #436]	@ 0x1b4
241034a4:	f8d3 212c 	ldr.w	r2, [r3, #300]	@ 0x12c
241034a8:	4b42      	ldr	r3, [pc, #264]	@ (241035b4 <HAL_RCCEx_PeriphCLKConfig+0x6b4>)
241034aa:	429a      	cmp	r2, r3
241034ac:	d116      	bne.n	241034dc <HAL_RCCEx_PeriphCLKConfig+0x5dc>
      /* Check the parameters */
      assert_param(IS_RCC_ICCLKSOURCE(PeriphClkInit->ICSelection[RCC_IC5].ClockSelection));
      assert_param(IS_RCC_ICCLKDIVIDER(PeriphClkInit->ICSelection[RCC_IC5].ClockDivider));

      /* Set IC5 configuration */
      MODIFY_REG(RCC->IC5CFGR, RCC_IC5CFGR_IC5SEL | RCC_IC5CFGR_IC5INT,
241034ae:	4b3b      	ldr	r3, [pc, #236]	@ (2410359c <HAL_RCCEx_PeriphCLKConfig+0x69c>)
241034b0:	f8d3 30d4 	ldr.w	r3, [r3, #212]	@ 0xd4
241034b4:	f023 5143 	bic.w	r1, r3, #817889280	@ 0x30c00000
241034b8:	f421 117c 	bic.w	r1, r1, #4128768	@ 0x3f0000
241034bc:	f8d7 31b4 	ldr.w	r3, [r7, #436]	@ 0x1b4
241034c0:	6a9a      	ldr	r2, [r3, #40]	@ 0x28
241034c2:	f8d7 31b4 	ldr.w	r3, [r7, #436]	@ 0x1b4
241034c6:	6adb      	ldr	r3, [r3, #44]	@ 0x2c
241034c8:	3b01      	subs	r3, #1
241034ca:	041b      	lsls	r3, r3, #16
241034cc:	4313      	orrs	r3, r2
241034ce:	4a33      	ldr	r2, [pc, #204]	@ (2410359c <HAL_RCCEx_PeriphCLKConfig+0x69c>)
241034d0:	430b      	orrs	r3, r1
241034d2:	f8c2 30d4 	str.w	r3, [r2, #212]	@ 0xd4
                 PeriphClkInit->ICSelection[RCC_IC5].ClockSelection | \
                 ((PeriphClkInit->ICSelection[RCC_IC5].ClockDivider - 1U) << RCC_IC5CFGR_IC5INT_Pos));

      LL_RCC_IC5_Enable();
241034d6:	f7ff f971 	bl	241027bc <LL_RCC_IC5_Enable>
241034da:	e008      	b.n	241034ee <HAL_RCCEx_PeriphCLKConfig+0x5ee>
    }
    else if (PeriphClkInit->Sdmmc1ClockSelection == RCC_SDMMC1CLKSOURCE_CLKP)
241034dc:	f8d7 31b4 	ldr.w	r3, [r7, #436]	@ 0x1b4
241034e0:	f8d3 212c 	ldr.w	r2, [r3, #300]	@ 0x12c
241034e4:	4b34      	ldr	r3, [pc, #208]	@ (241035b8 <HAL_RCCEx_PeriphCLKConfig+0x6b8>)
241034e6:	429a      	cmp	r2, r3
241034e8:	d101      	bne.n	241034ee <HAL_RCCEx_PeriphCLKConfig+0x5ee>
    {
      LL_RCC_CLKP_Enable();
241034ea:	f7ff fce7 	bl	24102ebc <LL_RCC_CLKP_Enable>
    {
      /* No specific enable to do on other sources */
    }

    /* Set the source of SDMMC1 clock*/
    __HAL_RCC_SDMMC1_CONFIG(PeriphClkInit->Sdmmc1ClockSelection);
241034ee:	f8d7 31b4 	ldr.w	r3, [r7, #436]	@ 0x1b4
241034f2:	f8d3 312c 	ldr.w	r3, [r3, #300]	@ 0x12c
241034f6:	4618      	mov	r0, r3
241034f8:	f7fe fc57 	bl	24101daa <LL_RCC_SetSDMMCClockSource>
  }

  /*------------------------------------- SDMMC2 Configuration ------------------------------------*/
  if ((PeriphClkInit->PeriphClockSelection & RCC_PERIPHCLK_SDMMC2) == RCC_PERIPHCLK_SDMMC2)
241034fc:	f8d7 31b4 	ldr.w	r3, [r7, #436]	@ 0x1b4
24103500:	e9d3 2300 	ldrd	r2, r3, [r3]
24103504:	f002 4300 	and.w	r3, r2, #2147483648	@ 0x80000000
24103508:	f8c7 3188 	str.w	r3, [r7, #392]	@ 0x188
2410350c:	2300      	movs	r3, #0
2410350e:	f8c7 318c 	str.w	r3, [r7, #396]	@ 0x18c
24103512:	e9d7 0162 	ldrd	r0, r1, [r7, #392]	@ 0x188
24103516:	4603      	mov	r3, r0
24103518:	460a      	mov	r2, r1
2410351a:	4313      	orrs	r3, r2
2410351c:	d062      	beq.n	241035e4 <HAL_RCCEx_PeriphCLKConfig+0x6e4>
  {
    /* Check the parameters */
    assert_param(IS_RCC_SDMMC2CLKSOURCE(PeriphClkInit->Sdmmc2ClockSelection));

    if (PeriphClkInit->Sdmmc2ClockSelection == RCC_SDMMC2CLKSOURCE_IC4)
2410351e:	f8d7 31b4 	ldr.w	r3, [r7, #436]	@ 0x1b4
24103522:	f8d3 2130 	ldr.w	r2, [r3, #304]	@ 0x130
24103526:	4b25      	ldr	r3, [pc, #148]	@ (241035bc <HAL_RCCEx_PeriphCLKConfig+0x6bc>)
24103528:	429a      	cmp	r2, r3
2410352a:	d116      	bne.n	2410355a <HAL_RCCEx_PeriphCLKConfig+0x65a>
      /* Check the parameters */
      assert_param(IS_RCC_ICCLKSOURCE(PeriphClkInit->ICSelection[RCC_IC4].ClockSelection));
      assert_param(IS_RCC_ICCLKDIVIDER(PeriphClkInit->ICSelection[RCC_IC4].ClockDivider));

      /* Set IC4 configuration */
      MODIFY_REG(RCC->IC4CFGR, RCC_IC4CFGR_IC4SEL | RCC_IC4CFGR_IC4INT,
2410352c:	4b1b      	ldr	r3, [pc, #108]	@ (2410359c <HAL_RCCEx_PeriphCLKConfig+0x69c>)
2410352e:	f8d3 30d0 	ldr.w	r3, [r3, #208]	@ 0xd0
24103532:	f023 5143 	bic.w	r1, r3, #817889280	@ 0x30c00000
24103536:	f421 117c 	bic.w	r1, r1, #4128768	@ 0x3f0000
2410353a:	f8d7 31b4 	ldr.w	r3, [r7, #436]	@ 0x1b4
2410353e:	6a1a      	ldr	r2, [r3, #32]
24103540:	f8d7 31b4 	ldr.w	r3, [r7, #436]	@ 0x1b4
24103544:	6a5b      	ldr	r3, [r3, #36]	@ 0x24
24103546:	3b01      	subs	r3, #1
24103548:	041b      	lsls	r3, r3, #16
2410354a:	4313      	orrs	r3, r2
2410354c:	4a13      	ldr	r2, [pc, #76]	@ (2410359c <HAL_RCCEx_PeriphCLKConfig+0x69c>)
2410354e:	430b      	orrs	r3, r1
24103550:	f8c2 30d0 	str.w	r3, [r2, #208]	@ 0xd0
                 PeriphClkInit->ICSelection[RCC_IC4].ClockSelection | \
                 ((PeriphClkInit->ICSelection[RCC_IC4].ClockDivider - 1U) << RCC_IC4CFGR_IC4INT_Pos));

      LL_RCC_IC4_Enable();
24103554:	f7ff f8f2 	bl	2410273c <LL_RCC_IC4_Enable>
24103558:	e03d      	b.n	241035d6 <HAL_RCCEx_PeriphCLKConfig+0x6d6>
    }
    else if (PeriphClkInit->Sdmmc2ClockSelection == RCC_SDMMC2CLKSOURCE_IC5)
2410355a:	f8d7 31b4 	ldr.w	r3, [r7, #436]	@ 0x1b4
2410355e:	f8d3 2130 	ldr.w	r2, [r3, #304]	@ 0x130
24103562:	4b17      	ldr	r3, [pc, #92]	@ (241035c0 <HAL_RCCEx_PeriphCLKConfig+0x6c0>)
24103564:	429a      	cmp	r2, r3
24103566:	d12d      	bne.n	241035c4 <HAL_RCCEx_PeriphCLKConfig+0x6c4>
      /* Check the parameters */
      assert_param(IS_RCC_ICCLKSOURCE(PeriphClkInit->ICSelection[RCC_IC5].ClockSelection));
      assert_param(IS_RCC_ICCLKDIVIDER(PeriphClkInit->ICSelection[RCC_IC5].ClockDivider));

      /* Set IC5 configuration */
      MODIFY_REG(RCC->IC5CFGR, RCC_IC5CFGR_IC5SEL | RCC_IC5CFGR_IC5INT,
24103568:	4b0c      	ldr	r3, [pc, #48]	@ (2410359c <HAL_RCCEx_PeriphCLKConfig+0x69c>)
2410356a:	f8d3 30d4 	ldr.w	r3, [r3, #212]	@ 0xd4
2410356e:	f023 5143 	bic.w	r1, r3, #817889280	@ 0x30c00000
24103572:	f421 117c 	bic.w	r1, r1, #4128768	@ 0x3f0000
24103576:	f8d7 31b4 	ldr.w	r3, [r7, #436]	@ 0x1b4
2410357a:	6a9a      	ldr	r2, [r3, #40]	@ 0x28
2410357c:	f8d7 31b4 	ldr.w	r3, [r7, #436]	@ 0x1b4
24103580:	6adb      	ldr	r3, [r3, #44]	@ 0x2c
24103582:	3b01      	subs	r3, #1
24103584:	041b      	lsls	r3, r3, #16
24103586:	4313      	orrs	r3, r2
24103588:	4a04      	ldr	r2, [pc, #16]	@ (2410359c <HAL_RCCEx_PeriphCLKConfig+0x69c>)
2410358a:	430b      	orrs	r3, r1
2410358c:	f8c2 30d4 	str.w	r3, [r2, #212]	@ 0xd4
                 PeriphClkInit->ICSelection[RCC_IC5].ClockSelection | \
                 ((PeriphClkInit->ICSelection[RCC_IC5].ClockDivider - 1U) << RCC_IC5CFGR_IC5INT_Pos));

      LL_RCC_IC5_Enable();
24103590:	f7ff f914 	bl	241027bc <LL_RCC_IC5_Enable>
24103594:	e01f      	b.n	241035d6 <HAL_RCCEx_PeriphCLKConfig+0x6d6>
24103596:	bf00      	nop
24103598:	03030414 	.word	0x03030414
2410359c:	46028000 	.word	0x46028000
241035a0:	03010414 	.word	0x03010414
241035a4:	03020814 	.word	0x03020814
241035a8:	03030814 	.word	0x03030814
241035ac:	03010814 	.word	0x03010814
241035b0:	0302001c 	.word	0x0302001c
241035b4:	0303001c 	.word	0x0303001c
241035b8:	0301001c 	.word	0x0301001c
241035bc:	0302041c 	.word	0x0302041c
241035c0:	0303041c 	.word	0x0303041c
    }
    else if (PeriphClkInit->Sdmmc2ClockSelection == RCC_SDMMC2CLKSOURCE_CLKP)
241035c4:	f8d7 31b4 	ldr.w	r3, [r7, #436]	@ 0x1b4
241035c8:	f8d3 2130 	ldr.w	r2, [r3, #304]	@ 0x130
241035cc:	4bb3      	ldr	r3, [pc, #716]	@ (2410389c <HAL_RCCEx_PeriphCLKConfig+0x99c>)
241035ce:	429a      	cmp	r2, r3
241035d0:	d101      	bne.n	241035d6 <HAL_RCCEx_PeriphCLKConfig+0x6d6>
    {
      LL_RCC_CLKP_Enable();
241035d2:	f7ff fc73 	bl	24102ebc <LL_RCC_CLKP_Enable>
    {
      /* No specific enable to do on other sources */
    }

    /* Set the source of SDMMC2 clock*/
    __HAL_RCC_SDMMC2_CONFIG(PeriphClkInit->Sdmmc2ClockSelection);
241035d6:	f8d7 31b4 	ldr.w	r3, [r7, #436]	@ 0x1b4
241035da:	f8d3 3130 	ldr.w	r3, [r3, #304]	@ 0x130
241035de:	4618      	mov	r0, r3
241035e0:	f7fe fbe3 	bl	24101daa <LL_RCC_SetSDMMCClockSource>
  }

  /*---------------------------- ADC configuration -------------------------------*/
  if ((PeriphClkInit->PeriphClockSelection & RCC_PERIPHCLK_ADC) == RCC_PERIPHCLK_ADC)
241035e4:	f8d7 31b4 	ldr.w	r3, [r7, #436]	@ 0x1b4
241035e8:	e9d3 2300 	ldrd	r2, r3, [r3]
241035ec:	f002 0301 	and.w	r3, r2, #1
241035f0:	f8c7 3180 	str.w	r3, [r7, #384]	@ 0x180
241035f4:	2300      	movs	r3, #0
241035f6:	f8c7 3184 	str.w	r3, [r7, #388]	@ 0x184
241035fa:	e9d7 0160 	ldrd	r0, r1, [r7, #384]	@ 0x180
241035fe:	4603      	mov	r3, r0
24103600:	460a      	mov	r2, r1
24103602:	4313      	orrs	r3, r2
24103604:	d057      	beq.n	241036b6 <HAL_RCCEx_PeriphCLKConfig+0x7b6>
  {
    /* Check the parameters */
    assert_param(IS_RCC_ADCCLKSOURCE(PeriphClkInit->AdcClockSelection));
    assert_param(IS_RCC_ADCDIVIDER(PeriphClkInit->AdcDivider));

    if (PeriphClkInit->AdcClockSelection == RCC_ADCCLKSOURCE_IC7)
24103606:	f8d7 31b4 	ldr.w	r3, [r7, #436]	@ 0x1b4
2410360a:	f8d3 30bc 	ldr.w	r3, [r3, #188]	@ 0xbc
2410360e:	2b20      	cmp	r3, #32
24103610:	d116      	bne.n	24103640 <HAL_RCCEx_PeriphCLKConfig+0x740>
      /* Check the parameters */
      assert_param(IS_RCC_ICCLKSOURCE(PeriphClkInit->ICSelection[RCC_IC7].ClockSelection));
      assert_param(IS_RCC_ICCLKDIVIDER(PeriphClkInit->ICSelection[RCC_IC7].ClockDivider));

      /* Set IC7 configuration */
      MODIFY_REG(RCC->IC7CFGR, RCC_IC7CFGR_IC7SEL | RCC_IC7CFGR_IC7INT,
24103612:	4ba3      	ldr	r3, [pc, #652]	@ (241038a0 <HAL_RCCEx_PeriphCLKConfig+0x9a0>)
24103614:	f8d3 30dc 	ldr.w	r3, [r3, #220]	@ 0xdc
24103618:	f023 5143 	bic.w	r1, r3, #817889280	@ 0x30c00000
2410361c:	f421 117c 	bic.w	r1, r1, #4128768	@ 0x3f0000
24103620:	f8d7 31b4 	ldr.w	r3, [r7, #436]	@ 0x1b4
24103624:	6b9a      	ldr	r2, [r3, #56]	@ 0x38
24103626:	f8d7 31b4 	ldr.w	r3, [r7, #436]	@ 0x1b4
2410362a:	6bdb      	ldr	r3, [r3, #60]	@ 0x3c
2410362c:	3b01      	subs	r3, #1
2410362e:	041b      	lsls	r3, r3, #16
24103630:	4313      	orrs	r3, r2
24103632:	4a9b      	ldr	r2, [pc, #620]	@ (241038a0 <HAL_RCCEx_PeriphCLKConfig+0x9a0>)
24103634:	430b      	orrs	r3, r1
24103636:	f8c2 30dc 	str.w	r3, [r2, #220]	@ 0xdc
                 PeriphClkInit->ICSelection[RCC_IC7].ClockSelection | \
                 ((PeriphClkInit->ICSelection[RCC_IC7].ClockDivider - 1U) << RCC_IC7CFGR_IC7INT_Pos));

      LL_RCC_IC7_Enable();
2410363a:	f7ff f8ff 	bl	2410283c <LL_RCC_IC7_Enable>
2410363e:	e024      	b.n	2410368a <HAL_RCCEx_PeriphCLKConfig+0x78a>
    }
    else if (PeriphClkInit->AdcClockSelection == RCC_ADCCLKSOURCE_IC8)
24103640:	f8d7 31b4 	ldr.w	r3, [r7, #436]	@ 0x1b4
24103644:	f8d3 30bc 	ldr.w	r3, [r3, #188]	@ 0xbc
24103648:	2b30      	cmp	r3, #48	@ 0x30
2410364a:	d116      	bne.n	2410367a <HAL_RCCEx_PeriphCLKConfig+0x77a>
      /* Check the parameters */
      assert_param(IS_RCC_ICCLKSOURCE(PeriphClkInit->ICSelection[RCC_IC8].ClockSelection));
      assert_param(IS_RCC_ICCLKDIVIDER(PeriphClkInit->ICSelection[RCC_IC8].ClockDivider));

      /* Set IC8 configuration */
      MODIFY_REG(RCC->IC8CFGR, RCC_IC8CFGR_IC8SEL | RCC_IC8CFGR_IC8INT,
2410364c:	4b94      	ldr	r3, [pc, #592]	@ (241038a0 <HAL_RCCEx_PeriphCLKConfig+0x9a0>)
2410364e:	f8d3 30e0 	ldr.w	r3, [r3, #224]	@ 0xe0
24103652:	f023 5143 	bic.w	r1, r3, #817889280	@ 0x30c00000
24103656:	f421 117c 	bic.w	r1, r1, #4128768	@ 0x3f0000
2410365a:	f8d7 31b4 	ldr.w	r3, [r7, #436]	@ 0x1b4
2410365e:	6c1a      	ldr	r2, [r3, #64]	@ 0x40
24103660:	f8d7 31b4 	ldr.w	r3, [r7, #436]	@ 0x1b4
24103664:	6c5b      	ldr	r3, [r3, #68]	@ 0x44
24103666:	3b01      	subs	r3, #1
24103668:	041b      	lsls	r3, r3, #16
2410366a:	4313      	orrs	r3, r2
2410366c:	4a8c      	ldr	r2, [pc, #560]	@ (241038a0 <HAL_RCCEx_PeriphCLKConfig+0x9a0>)
2410366e:	430b      	orrs	r3, r1
24103670:	f8c2 30e0 	str.w	r3, [r2, #224]	@ 0xe0
                 PeriphClkInit->ICSelection[RCC_IC8].ClockSelection | \
                 ((PeriphClkInit->ICSelection[RCC_IC8].ClockDivider - 1U) << RCC_IC8CFGR_IC8INT_Pos));

      LL_RCC_IC8_Enable();
24103674:	f7ff f922 	bl	241028bc <LL_RCC_IC8_Enable>
24103678:	e007      	b.n	2410368a <HAL_RCCEx_PeriphCLKConfig+0x78a>
    }
    else if (PeriphClkInit->AdcClockSelection == RCC_ADCCLKSOURCE_CLKP)
2410367a:	f8d7 31b4 	ldr.w	r3, [r7, #436]	@ 0x1b4
2410367e:	f8d3 30bc 	ldr.w	r3, [r3, #188]	@ 0xbc
24103682:	2b10      	cmp	r3, #16
24103684:	d101      	bne.n	2410368a <HAL_RCCEx_PeriphCLKConfig+0x78a>
    {
      LL_RCC_CLKP_Enable();
24103686:	f7ff fc19 	bl	24102ebc <LL_RCC_CLKP_Enable>
    {
      /* No specific enable to do on other sources */
    }

    /* Configure the ADC clock source and divider */
    MODIFY_REG(RCC->CCIPR1, (RCC_CCIPR1_ADCPRE | RCC_CCIPR1_ADC12SEL), \
2410368a:	4b85      	ldr	r3, [pc, #532]	@ (241038a0 <HAL_RCCEx_PeriphCLKConfig+0x9a0>)
2410368c:	f8d3 3144 	ldr.w	r3, [r3, #324]	@ 0x144
24103690:	f423 417f 	bic.w	r1, r3, #65280	@ 0xff00
24103694:	f021 0170 	bic.w	r1, r1, #112	@ 0x70
24103698:	f8d7 31b4 	ldr.w	r3, [r7, #436]	@ 0x1b4
2410369c:	f8d3 30c0 	ldr.w	r3, [r3, #192]	@ 0xc0
241036a0:	3b01      	subs	r3, #1
241036a2:	021a      	lsls	r2, r3, #8
241036a4:	f8d7 31b4 	ldr.w	r3, [r7, #436]	@ 0x1b4
241036a8:	f8d3 30bc 	ldr.w	r3, [r3, #188]	@ 0xbc
241036ac:	4313      	orrs	r3, r2
241036ae:	4a7c      	ldr	r2, [pc, #496]	@ (241038a0 <HAL_RCCEx_PeriphCLKConfig+0x9a0>)
241036b0:	430b      	orrs	r3, r1
241036b2:	f8c2 3144 	str.w	r3, [r2, #324]	@ 0x144
               (((PeriphClkInit->AdcDivider - 1U) << RCC_CCIPR1_ADCPRE_Pos) | (PeriphClkInit->AdcClockSelection)));
  }

  /*---------------------------- ADF1 configuration --------------------------*/
  if ((PeriphClkInit->PeriphClockSelection & RCC_PERIPHCLK_ADF1) == RCC_PERIPHCLK_ADF1)
241036b6:	f8d7 31b4 	ldr.w	r3, [r7, #436]	@ 0x1b4
241036ba:	e9d3 2300 	ldrd	r2, r3, [r3]
241036be:	f002 0302 	and.w	r3, r2, #2
241036c2:	f8c7 3178 	str.w	r3, [r7, #376]	@ 0x178
241036c6:	2300      	movs	r3, #0
241036c8:	f8c7 317c 	str.w	r3, [r7, #380]	@ 0x17c
241036cc:	e9d7 015e 	ldrd	r0, r1, [r7, #376]	@ 0x178
241036d0:	4603      	mov	r3, r0
241036d2:	460a      	mov	r2, r1
241036d4:	4313      	orrs	r3, r2
241036d6:	d048      	beq.n	2410376a <HAL_RCCEx_PeriphCLKConfig+0x86a>
  {
    /* Check the parameters */
    assert_param(IS_RCC_ADF1CLKSOURCE(PeriphClkInit->Adf1ClockSelection));

    if (PeriphClkInit->Adf1ClockSelection == RCC_ADF1CLKSOURCE_IC7)
241036d8:	f8d7 31b4 	ldr.w	r3, [r7, #436]	@ 0x1b4
241036dc:	f8d3 30c4 	ldr.w	r3, [r3, #196]	@ 0xc4
241036e0:	2b02      	cmp	r3, #2
241036e2:	d116      	bne.n	24103712 <HAL_RCCEx_PeriphCLKConfig+0x812>
      /* Check the parameters */
      assert_param(IS_RCC_ICCLKSOURCE(PeriphClkInit->ICSelection[RCC_IC7].ClockSelection));
      assert_param(IS_RCC_ICCLKDIVIDER(PeriphClkInit->ICSelection[RCC_IC7].ClockDivider));

      /* Set IC7 configuration */
      MODIFY_REG(RCC->IC7CFGR, RCC_IC7CFGR_IC7SEL | RCC_IC7CFGR_IC7INT,
241036e4:	4b6e      	ldr	r3, [pc, #440]	@ (241038a0 <HAL_RCCEx_PeriphCLKConfig+0x9a0>)
241036e6:	f8d3 30dc 	ldr.w	r3, [r3, #220]	@ 0xdc
241036ea:	f023 5143 	bic.w	r1, r3, #817889280	@ 0x30c00000
241036ee:	f421 117c 	bic.w	r1, r1, #4128768	@ 0x3f0000
241036f2:	f8d7 31b4 	ldr.w	r3, [r7, #436]	@ 0x1b4
241036f6:	6b9a      	ldr	r2, [r3, #56]	@ 0x38
241036f8:	f8d7 31b4 	ldr.w	r3, [r7, #436]	@ 0x1b4
241036fc:	6bdb      	ldr	r3, [r3, #60]	@ 0x3c
241036fe:	3b01      	subs	r3, #1
24103700:	041b      	lsls	r3, r3, #16
24103702:	4313      	orrs	r3, r2
24103704:	4a66      	ldr	r2, [pc, #408]	@ (241038a0 <HAL_RCCEx_PeriphCLKConfig+0x9a0>)
24103706:	430b      	orrs	r3, r1
24103708:	f8c2 30dc 	str.w	r3, [r2, #220]	@ 0xdc
                 PeriphClkInit->ICSelection[RCC_IC7].ClockSelection | \
                 ((PeriphClkInit->ICSelection[RCC_IC7].ClockDivider - 1U) << RCC_IC7CFGR_IC7INT_Pos));

      LL_RCC_IC7_Enable();
2410370c:	f7ff f896 	bl	2410283c <LL_RCC_IC7_Enable>
24103710:	e024      	b.n	2410375c <HAL_RCCEx_PeriphCLKConfig+0x85c>
    }
    else if (PeriphClkInit->Adf1ClockSelection == RCC_ADF1CLKSOURCE_IC8)
24103712:	f8d7 31b4 	ldr.w	r3, [r7, #436]	@ 0x1b4
24103716:	f8d3 30c4 	ldr.w	r3, [r3, #196]	@ 0xc4
2410371a:	2b03      	cmp	r3, #3
2410371c:	d116      	bne.n	2410374c <HAL_RCCEx_PeriphCLKConfig+0x84c>
      /* Check the parameters */
      assert_param(IS_RCC_ICCLKSOURCE(PeriphClkInit->ICSelection[RCC_IC8].ClockSelection));
      assert_param(IS_RCC_ICCLKDIVIDER(PeriphClkInit->ICSelection[RCC_IC8].ClockDivider));

      /* Set IC8 configuration */
      MODIFY_REG(RCC->IC8CFGR, RCC_IC8CFGR_IC8SEL | RCC_IC8CFGR_IC8INT,
2410371e:	4b60      	ldr	r3, [pc, #384]	@ (241038a0 <HAL_RCCEx_PeriphCLKConfig+0x9a0>)
24103720:	f8d3 30e0 	ldr.w	r3, [r3, #224]	@ 0xe0
24103724:	f023 5143 	bic.w	r1, r3, #817889280	@ 0x30c00000
24103728:	f421 117c 	bic.w	r1, r1, #4128768	@ 0x3f0000
2410372c:	f8d7 31b4 	ldr.w	r3, [r7, #436]	@ 0x1b4
24103730:	6c1a      	ldr	r2, [r3, #64]	@ 0x40
24103732:	f8d7 31b4 	ldr.w	r3, [r7, #436]	@ 0x1b4
24103736:	6c5b      	ldr	r3, [r3, #68]	@ 0x44
24103738:	3b01      	subs	r3, #1
2410373a:	041b      	lsls	r3, r3, #16
2410373c:	4313      	orrs	r3, r2
2410373e:	4a58      	ldr	r2, [pc, #352]	@ (241038a0 <HAL_RCCEx_PeriphCLKConfig+0x9a0>)
24103740:	430b      	orrs	r3, r1
24103742:	f8c2 30e0 	str.w	r3, [r2, #224]	@ 0xe0
                 PeriphClkInit->ICSelection[RCC_IC8].ClockSelection | \
                 ((PeriphClkInit->ICSelection[RCC_IC8].ClockDivider - 1U) << RCC_IC8CFGR_IC8INT_Pos));

      LL_RCC_IC8_Enable();
24103746:	f7ff f8b9 	bl	241028bc <LL_RCC_IC8_Enable>
2410374a:	e007      	b.n	2410375c <HAL_RCCEx_PeriphCLKConfig+0x85c>
    }
    else if (PeriphClkInit->Adf1ClockSelection == RCC_ADF1CLKSOURCE_CLKP)
2410374c:	f8d7 31b4 	ldr.w	r3, [r7, #436]	@ 0x1b4
24103750:	f8d3 30c4 	ldr.w	r3, [r3, #196]	@ 0xc4
24103754:	2b01      	cmp	r3, #1
24103756:	d101      	bne.n	2410375c <HAL_RCCEx_PeriphCLKConfig+0x85c>
    {
      LL_RCC_CLKP_Enable();
24103758:	f7ff fbb0 	bl	24102ebc <LL_RCC_CLKP_Enable>
    {
      /* No specific enable to do on other sources */
    }

    /* Set the source of ADF1 clock*/
    __HAL_RCC_ADF1_CONFIG(PeriphClkInit->Adf1ClockSelection);
2410375c:	f8d7 31b4 	ldr.w	r3, [r7, #436]	@ 0x1b4
24103760:	f8d3 30c4 	ldr.w	r3, [r3, #196]	@ 0xc4
24103764:	4618      	mov	r0, r3
24103766:	f7fe f9b1 	bl	24101acc <LL_RCC_SetADFClockSource>
  }

  /*------------------------------------ CSI configuration --------------------------------------*/
  if ((PeriphClkInit->PeriphClockSelection & RCC_PERIPHCLK_CSI) == RCC_PERIPHCLK_CSI)
2410376a:	f8d7 31b4 	ldr.w	r3, [r7, #436]	@ 0x1b4
2410376e:	e9d3 2300 	ldrd	r2, r3, [r3]
24103772:	f002 0308 	and.w	r3, r2, #8
24103776:	f8c7 3170 	str.w	r3, [r7, #368]	@ 0x170
2410377a:	2300      	movs	r3, #0
2410377c:	f8c7 3174 	str.w	r3, [r7, #372]	@ 0x174
24103780:	e9d7 015c 	ldrd	r0, r1, [r7, #368]	@ 0x170
24103784:	4603      	mov	r3, r0
24103786:	460a      	mov	r2, r1
24103788:	4313      	orrs	r3, r2
2410378a:	d017      	beq.n	241037bc <HAL_RCCEx_PeriphCLKConfig+0x8bc>
    /* Check the parameters */
    assert_param(IS_RCC_ICCLKSOURCE(PeriphClkInit->ICSelection[RCC_IC18].ClockSelection));
    assert_param(IS_RCC_ICCLKDIVIDER(PeriphClkInit->ICSelection[RCC_IC18].ClockDivider));

    /* Set IC18 configuration */
    MODIFY_REG(RCC->IC18CFGR, RCC_IC18CFGR_IC18SEL | RCC_IC18CFGR_IC18INT,
2410378c:	4b44      	ldr	r3, [pc, #272]	@ (241038a0 <HAL_RCCEx_PeriphCLKConfig+0x9a0>)
2410378e:	f8d3 3108 	ldr.w	r3, [r3, #264]	@ 0x108
24103792:	f023 5143 	bic.w	r1, r3, #817889280	@ 0x30c00000
24103796:	f421 117c 	bic.w	r1, r1, #4128768	@ 0x3f0000
2410379a:	f8d7 31b4 	ldr.w	r3, [r7, #436]	@ 0x1b4
2410379e:	f8d3 2090 	ldr.w	r2, [r3, #144]	@ 0x90
241037a2:	f8d7 31b4 	ldr.w	r3, [r7, #436]	@ 0x1b4
241037a6:	f8d3 3094 	ldr.w	r3, [r3, #148]	@ 0x94
241037aa:	3b01      	subs	r3, #1
241037ac:	041b      	lsls	r3, r3, #16
241037ae:	4313      	orrs	r3, r2
241037b0:	4a3b      	ldr	r2, [pc, #236]	@ (241038a0 <HAL_RCCEx_PeriphCLKConfig+0x9a0>)
241037b2:	430b      	orrs	r3, r1
241037b4:	f8c2 3108 	str.w	r3, [r2, #264]	@ 0x108
               PeriphClkInit->ICSelection[RCC_IC18].ClockSelection | \
               ((PeriphClkInit->ICSelection[RCC_IC18].ClockDivider - 1U) << RCC_IC18CFGR_IC18INT_Pos));

    LL_RCC_IC18_Enable();
241037b8:	f7ff fac0 	bl	24102d3c <LL_RCC_IC18_Enable>
  }

  /*---------------------- DCMIPP configuration ------------------------------*/
  if ((PeriphClkInit->PeriphClockSelection & RCC_PERIPHCLK_DCMIPP) == RCC_PERIPHCLK_DCMIPP)
241037bc:	f8d7 31b4 	ldr.w	r3, [r7, #436]	@ 0x1b4
241037c0:	e9d3 2300 	ldrd	r2, r3, [r3]
241037c4:	f002 0310 	and.w	r3, r2, #16
241037c8:	f8c7 3168 	str.w	r3, [r7, #360]	@ 0x168
241037cc:	2300      	movs	r3, #0
241037ce:	f8c7 316c 	str.w	r3, [r7, #364]	@ 0x16c
241037d2:	e9d7 015a 	ldrd	r0, r1, [r7, #360]	@ 0x168
241037d6:	4603      	mov	r3, r0
241037d8:	460a      	mov	r2, r1
241037da:	4313      	orrs	r3, r2
241037dc:	d02f      	beq.n	2410383e <HAL_RCCEx_PeriphCLKConfig+0x93e>
  {
    /* Check the parameters */
    assert_param(IS_RCC_DCMIPPCLKSOURCE(PeriphClkInit->DcmippClockSelection));

    if (PeriphClkInit->DcmippClockSelection == RCC_DCMIPPCLKSOURCE_IC17)
241037de:	f8d7 31b4 	ldr.w	r3, [r7, #436]	@ 0x1b4
241037e2:	f8d3 30c8 	ldr.w	r3, [r3, #200]	@ 0xc8
241037e6:	f5b3 1f00 	cmp.w	r3, #2097152	@ 0x200000
241037ea:	d118      	bne.n	2410381e <HAL_RCCEx_PeriphCLKConfig+0x91e>
      /* Check the parameters */
      assert_param(IS_RCC_ICCLKSOURCE(PeriphClkInit->ICSelection[RCC_IC17].ClockSelection));
      assert_param(IS_RCC_ICCLKDIVIDER(PeriphClkInit->ICSelection[RCC_IC17].ClockDivider));

      /* Set IC17 configuration */
      MODIFY_REG(RCC->IC17CFGR, RCC_IC17CFGR_IC17SEL | RCC_IC17CFGR_IC17INT,
241037ec:	4b2c      	ldr	r3, [pc, #176]	@ (241038a0 <HAL_RCCEx_PeriphCLKConfig+0x9a0>)
241037ee:	f8d3 3104 	ldr.w	r3, [r3, #260]	@ 0x104
241037f2:	f023 5143 	bic.w	r1, r3, #817889280	@ 0x30c00000
241037f6:	f421 117c 	bic.w	r1, r1, #4128768	@ 0x3f0000
241037fa:	f8d7 31b4 	ldr.w	r3, [r7, #436]	@ 0x1b4
241037fe:	f8d3 2088 	ldr.w	r2, [r3, #136]	@ 0x88
24103802:	f8d7 31b4 	ldr.w	r3, [r7, #436]	@ 0x1b4
24103806:	f8d3 308c 	ldr.w	r3, [r3, #140]	@ 0x8c
2410380a:	3b01      	subs	r3, #1
2410380c:	041b      	lsls	r3, r3, #16
2410380e:	4313      	orrs	r3, r2
24103810:	4a23      	ldr	r2, [pc, #140]	@ (241038a0 <HAL_RCCEx_PeriphCLKConfig+0x9a0>)
24103812:	430b      	orrs	r3, r1
24103814:	f8c2 3104 	str.w	r3, [r2, #260]	@ 0x104
                 PeriphClkInit->ICSelection[RCC_IC17].ClockSelection | \
                 ((PeriphClkInit->ICSelection[RCC_IC17].ClockDivider - 1U) << RCC_IC17CFGR_IC17INT_Pos));

      LL_RCC_IC17_Enable();
24103818:	f7ff fa50 	bl	24102cbc <LL_RCC_IC17_Enable>
2410381c:	e008      	b.n	24103830 <HAL_RCCEx_PeriphCLKConfig+0x930>
    }
    else if (PeriphClkInit->DcmippClockSelection == RCC_DCMIPPCLKSOURCE_CLKP)
2410381e:	f8d7 31b4 	ldr.w	r3, [r7, #436]	@ 0x1b4
24103822:	f8d3 30c8 	ldr.w	r3, [r3, #200]	@ 0xc8
24103826:	f5b3 1f80 	cmp.w	r3, #1048576	@ 0x100000
2410382a:	d101      	bne.n	24103830 <HAL_RCCEx_PeriphCLKConfig+0x930>
    {
      LL_RCC_CLKP_Enable();
2410382c:	f7ff fb46 	bl	24102ebc <LL_RCC_CLKP_Enable>
    {
      /* No specific enable to do on other sources */
    }

    /* Configure the CEC clock source */
    __HAL_RCC_DCMIPP_CONFIG(PeriphClkInit->DcmippClockSelection);
24103830:	f8d7 31b4 	ldr.w	r3, [r7, #436]	@ 0x1b4
24103834:	f8d3 30c8 	ldr.w	r3, [r3, #200]	@ 0xc8
24103838:	4618      	mov	r0, r3
2410383a:	f7fe f973 	bl	24101b24 <LL_RCC_SetDCMIPPClockSource>
  }

  /*---------------------- ETH1 configuration --------------------------------*/
  if ((PeriphClkInit->PeriphClockSelection & RCC_PERIPHCLK_ETH1) == RCC_PERIPHCLK_ETH1)
2410383e:	f8d7 31b4 	ldr.w	r3, [r7, #436]	@ 0x1b4
24103842:	e9d3 2300 	ldrd	r2, r3, [r3]
24103846:	f002 0320 	and.w	r3, r2, #32
2410384a:	f8c7 3160 	str.w	r3, [r7, #352]	@ 0x160
2410384e:	2300      	movs	r3, #0
24103850:	f8c7 3164 	str.w	r3, [r7, #356]	@ 0x164
24103854:	e9d7 0158 	ldrd	r0, r1, [r7, #352]	@ 0x160
24103858:	4603      	mov	r3, r0
2410385a:	460a      	mov	r2, r1
2410385c:	4313      	orrs	r3, r2
2410385e:	d031      	beq.n	241038c4 <HAL_RCCEx_PeriphCLKConfig+0x9c4>
  {
    /* Check the parameters */
    assert_param(IS_RCC_ETH1CLKSOURCE(PeriphClkInit->Eth1ClockSelection));

    if (PeriphClkInit->Eth1ClockSelection == RCC_ETH1CLKSOURCE_IC12)
24103860:	f8d7 31b4 	ldr.w	r3, [r7, #436]	@ 0x1b4
24103864:	f8d3 30cc 	ldr.w	r3, [r3, #204]	@ 0xcc
24103868:	f5b3 5f00 	cmp.w	r3, #8192	@ 0x2000
2410386c:	d11a      	bne.n	241038a4 <HAL_RCCEx_PeriphCLKConfig+0x9a4>
      /* Check the parameters */
      assert_param(IS_RCC_ICCLKSOURCE(PeriphClkInit->ICSelection[RCC_IC12].ClockSelection));
      assert_param(IS_RCC_ICCLKDIVIDER(PeriphClkInit->ICSelection[RCC_IC12].ClockDivider));

      /* Set IC12 configuration */
      MODIFY_REG(RCC->IC12CFGR, RCC_IC12CFGR_IC12SEL | RCC_IC12CFGR_IC12INT,
2410386e:	4b0c      	ldr	r3, [pc, #48]	@ (241038a0 <HAL_RCCEx_PeriphCLKConfig+0x9a0>)
24103870:	f8d3 30f0 	ldr.w	r3, [r3, #240]	@ 0xf0
24103874:	f023 5143 	bic.w	r1, r3, #817889280	@ 0x30c00000
24103878:	f421 117c 	bic.w	r1, r1, #4128768	@ 0x3f0000
2410387c:	f8d7 31b4 	ldr.w	r3, [r7, #436]	@ 0x1b4
24103880:	6e1a      	ldr	r2, [r3, #96]	@ 0x60
24103882:	f8d7 31b4 	ldr.w	r3, [r7, #436]	@ 0x1b4
24103886:	6e5b      	ldr	r3, [r3, #100]	@ 0x64
24103888:	3b01      	subs	r3, #1
2410388a:	041b      	lsls	r3, r3, #16
2410388c:	4313      	orrs	r3, r2
2410388e:	4a04      	ldr	r2, [pc, #16]	@ (241038a0 <HAL_RCCEx_PeriphCLKConfig+0x9a0>)
24103890:	430b      	orrs	r3, r1
24103892:	f8c2 30f0 	str.w	r3, [r2, #240]	@ 0xf0
                 PeriphClkInit->ICSelection[RCC_IC12].ClockSelection | \
                 ((PeriphClkInit->ICSelection[RCC_IC12].ClockDivider - 1U) << RCC_IC12CFGR_IC12INT_Pos));

      LL_RCC_IC12_Enable();
24103896:	f7ff f8d1 	bl	24102a3c <LL_RCC_IC12_Enable>
2410389a:	e00c      	b.n	241038b6 <HAL_RCCEx_PeriphCLKConfig+0x9b6>
2410389c:	0301041c 	.word	0x0301041c
241038a0:	46028000 	.word	0x46028000
    }
    else if (PeriphClkInit->Eth1ClockSelection == RCC_ETH1CLKSOURCE_CLKP)
241038a4:	f8d7 31b4 	ldr.w	r3, [r7, #436]	@ 0x1b4
241038a8:	f8d3 30cc 	ldr.w	r3, [r3, #204]	@ 0xcc
241038ac:	f5b3 5f80 	cmp.w	r3, #4096	@ 0x1000
241038b0:	d101      	bne.n	241038b6 <HAL_RCCEx_PeriphCLKConfig+0x9b6>
    {
      LL_RCC_CLKP_Enable();
241038b2:	f7ff fb03 	bl	24102ebc <LL_RCC_CLKP_Enable>
    {
      /* No specific enable to do on other sources */
    }

    /* Configure the ETH1 clock source */
    __HAL_RCC_ETH1_CONFIG(PeriphClkInit->Eth1ClockSelection);
241038b6:	f8d7 31b4 	ldr.w	r3, [r7, #436]	@ 0x1b4
241038ba:	f8d3 30cc 	ldr.w	r3, [r3, #204]	@ 0xcc
241038be:	4618      	mov	r0, r3
241038c0:	f7fe f946 	bl	24101b50 <LL_RCC_SetETHClockSource>
  }

  /*---------------------- ETH1PHY configuration -----------------------------*/
  if ((PeriphClkInit->PeriphClockSelection & RCC_PERIPHCLK_ETH1PHY) == RCC_PERIPHCLK_ETH1PHY)
241038c4:	f8d7 31b4 	ldr.w	r3, [r7, #436]	@ 0x1b4
241038c8:	e9d3 2300 	ldrd	r2, r3, [r3]
241038cc:	f002 0340 	and.w	r3, r2, #64	@ 0x40
241038d0:	f8c7 3158 	str.w	r3, [r7, #344]	@ 0x158
241038d4:	2300      	movs	r3, #0
241038d6:	f8c7 315c 	str.w	r3, [r7, #348]	@ 0x15c
241038da:	e9d7 0156 	ldrd	r0, r1, [r7, #344]	@ 0x158
241038de:	4603      	mov	r3, r0
241038e0:	460a      	mov	r2, r1
241038e2:	4313      	orrs	r3, r2
241038e4:	d006      	beq.n	241038f4 <HAL_RCCEx_PeriphCLKConfig+0x9f4>
  {
    /* Check the parameters */
    assert_param(IS_RCC_ETH1PHYIF(PeriphClkInit->Eth1PhyInterfaceSelection));

    /* Configure the source of ETH1 PHY interface */
    __HAL_RCC_ETH1PHY_CONFIG(PeriphClkInit->Eth1PhyInterfaceSelection);
241038e6:	f8d7 31b4 	ldr.w	r3, [r7, #436]	@ 0x1b4
241038ea:	f8d3 30d0 	ldr.w	r3, [r3, #208]	@ 0xd0
241038ee:	4618      	mov	r0, r3
241038f0:	f7fe f944 	bl	24101b7c <LL_RCC_SetETHPHYInterface>
  }

  /*---------------------- ETH1 RX configuration -----------------------------*/
  if ((PeriphClkInit->PeriphClockSelection & RCC_PERIPHCLK_ETH1RX) == RCC_PERIPHCLK_ETH1RX)
241038f4:	f8d7 31b4 	ldr.w	r3, [r7, #436]	@ 0x1b4
241038f8:	e9d3 2300 	ldrd	r2, r3, [r3]
241038fc:	f002 0380 	and.w	r3, r2, #128	@ 0x80
24103900:	f8c7 3150 	str.w	r3, [r7, #336]	@ 0x150
24103904:	2300      	movs	r3, #0
24103906:	f8c7 3154 	str.w	r3, [r7, #340]	@ 0x154
2410390a:	e9d7 0154 	ldrd	r0, r1, [r7, #336]	@ 0x150
2410390e:	4603      	mov	r3, r0
24103910:	460a      	mov	r2, r1
24103912:	4313      	orrs	r3, r2
24103914:	d006      	beq.n	24103924 <HAL_RCCEx_PeriphCLKConfig+0xa24>
  {
    /* Check the parameters */
    assert_param(IS_RCC_ETH1RXCLKSOURCE(PeriphClkInit->Eth1RxClockSelection));

    /* Configure the ETH1 RX clock source */
    __HAL_RCC_ETH1RX_CONFIG(PeriphClkInit->Eth1RxClockSelection);
24103916:	f8d7 31b4 	ldr.w	r3, [r7, #436]	@ 0x1b4
2410391a:	f8d3 30d4 	ldr.w	r3, [r3, #212]	@ 0xd4
2410391e:	4618      	mov	r0, r3
24103920:	f7fe f950 	bl	24101bc4 <LL_RCC_SetETHREFRXClockSource>
  }

  /*---------------------- ETH1 TX configuration -----------------------------*/
  if ((PeriphClkInit->PeriphClockSelection & RCC_PERIPHCLK_ETH1TX) == RCC_PERIPHCLK_ETH1TX)
24103924:	f8d7 31b4 	ldr.w	r3, [r7, #436]	@ 0x1b4
24103928:	e9d3 2300 	ldrd	r2, r3, [r3]
2410392c:	f402 7380 	and.w	r3, r2, #256	@ 0x100
24103930:	f8c7 3148 	str.w	r3, [r7, #328]	@ 0x148
24103934:	2300      	movs	r3, #0
24103936:	f8c7 314c 	str.w	r3, [r7, #332]	@ 0x14c
2410393a:	e9d7 0152 	ldrd	r0, r1, [r7, #328]	@ 0x148
2410393e:	4603      	mov	r3, r0
24103940:	460a      	mov	r2, r1
24103942:	4313      	orrs	r3, r2
24103944:	d006      	beq.n	24103954 <HAL_RCCEx_PeriphCLKConfig+0xa54>
  {
    /* Check the parameters */
    assert_param(IS_RCC_ETH1TXCLKSOURCE(PeriphClkInit->Eth1TxClockSelection));

    /* Configure the ETH1 TX clock source */
    __HAL_RCC_ETH1TX_CONFIG(PeriphClkInit->Eth1TxClockSelection);
24103946:	f8d7 31b4 	ldr.w	r3, [r7, #436]	@ 0x1b4
2410394a:	f8d3 30d8 	ldr.w	r3, [r3, #216]	@ 0xd8
2410394e:	4618      	mov	r0, r3
24103950:	f7fe f94e 	bl	24101bf0 <LL_RCC_SetETHREFTXClockSource>
  }

  /*---------------------- ETH1 PTP configuration ----------------------------*/
  if ((PeriphClkInit->PeriphClockSelection & RCC_PERIPHCLK_ETH1PTP) == RCC_PERIPHCLK_ETH1PTP)
24103954:	f8d7 31b4 	ldr.w	r3, [r7, #436]	@ 0x1b4
24103958:	e9d3 2300 	ldrd	r2, r3, [r3]
2410395c:	f402 7300 	and.w	r3, r2, #512	@ 0x200
24103960:	f8c7 3140 	str.w	r3, [r7, #320]	@ 0x140
24103964:	2300      	movs	r3, #0
24103966:	f8c7 3144 	str.w	r3, [r7, #324]	@ 0x144
2410396a:	e9d7 0150 	ldrd	r0, r1, [r7, #320]	@ 0x140
2410396e:	4603      	mov	r3, r0
24103970:	460a      	mov	r2, r1
24103972:	4313      	orrs	r3, r2
24103974:	d038      	beq.n	241039e8 <HAL_RCCEx_PeriphCLKConfig+0xae8>
  {
    /* Check the parameters */
    assert_param(IS_RCC_ETH1PTPCLKSOURCE(PeriphClkInit->Eth1PtpClockSelection));
    assert_param(IS_RCC_ETH1PTPDIVIDER(PeriphClkInit->Eth1PtpDivider));

    if (PeriphClkInit->Eth1PtpClockSelection == RCC_ETH1PTPCLKSOURCE_IC13)
24103976:	f8d7 31b4 	ldr.w	r3, [r7, #436]	@ 0x1b4
2410397a:	f8d3 30dc 	ldr.w	r3, [r3, #220]	@ 0xdc
2410397e:	2b02      	cmp	r3, #2
24103980:	d116      	bne.n	241039b0 <HAL_RCCEx_PeriphCLKConfig+0xab0>
      /* Check the parameters */
      assert_param(IS_RCC_ICCLKSOURCE(PeriphClkInit->ICSelection[RCC_IC13].ClockSelection));
      assert_param(IS_RCC_ICCLKDIVIDER(PeriphClkInit->ICSelection[RCC_IC13].ClockDivider));

      /* Set IC13 configuration */
      MODIFY_REG(RCC->IC13CFGR, RCC_IC13CFGR_IC13SEL | RCC_IC13CFGR_IC13INT,
24103982:	4bbc      	ldr	r3, [pc, #752]	@ (24103c74 <HAL_RCCEx_PeriphCLKConfig+0xd74>)
24103984:	f8d3 30f4 	ldr.w	r3, [r3, #244]	@ 0xf4
24103988:	f023 5143 	bic.w	r1, r3, #817889280	@ 0x30c00000
2410398c:	f421 117c 	bic.w	r1, r1, #4128768	@ 0x3f0000
24103990:	f8d7 31b4 	ldr.w	r3, [r7, #436]	@ 0x1b4
24103994:	6e9a      	ldr	r2, [r3, #104]	@ 0x68
24103996:	f8d7 31b4 	ldr.w	r3, [r7, #436]	@ 0x1b4
2410399a:	6edb      	ldr	r3, [r3, #108]	@ 0x6c
2410399c:	3b01      	subs	r3, #1
2410399e:	041b      	lsls	r3, r3, #16
241039a0:	4313      	orrs	r3, r2
241039a2:	4ab4      	ldr	r2, [pc, #720]	@ (24103c74 <HAL_RCCEx_PeriphCLKConfig+0xd74>)
241039a4:	430b      	orrs	r3, r1
241039a6:	f8c2 30f4 	str.w	r3, [r2, #244]	@ 0xf4
                 PeriphClkInit->ICSelection[RCC_IC13].ClockSelection | \
                 ((PeriphClkInit->ICSelection[RCC_IC13].ClockDivider - 1U) << RCC_IC13CFGR_IC13INT_Pos));

      LL_RCC_IC13_Enable();
241039aa:	f7ff f887 	bl	24102abc <LL_RCC_IC13_Enable>
241039ae:	e007      	b.n	241039c0 <HAL_RCCEx_PeriphCLKConfig+0xac0>
    }
    else if (PeriphClkInit->Eth1PtpClockSelection == RCC_ETH1PTPCLKSOURCE_CLKP)
241039b0:	f8d7 31b4 	ldr.w	r3, [r7, #436]	@ 0x1b4
241039b4:	f8d3 30dc 	ldr.w	r3, [r3, #220]	@ 0xdc
241039b8:	2b01      	cmp	r3, #1
241039ba:	d101      	bne.n	241039c0 <HAL_RCCEx_PeriphCLKConfig+0xac0>
    {
      LL_RCC_CLKP_Enable();
241039bc:	f7ff fa7e 	bl	24102ebc <LL_RCC_CLKP_Enable>
    {
      /* No specific enable to do on other sources */
    }

    /* Configure the ETH1 PTP clock source and divider */
    MODIFY_REG(RCC->CCIPR2, (RCC_CCIPR2_ETH1PTPDIV | RCC_CCIPR2_ETH1PTPSEL), \
241039c0:	4bac      	ldr	r3, [pc, #688]	@ (24103c74 <HAL_RCCEx_PeriphCLKConfig+0xd74>)
241039c2:	f8d3 3148 	ldr.w	r3, [r3, #328]	@ 0x148
241039c6:	f023 01f3 	bic.w	r1, r3, #243	@ 0xf3
241039ca:	f8d7 31b4 	ldr.w	r3, [r7, #436]	@ 0x1b4
241039ce:	f8d3 30e0 	ldr.w	r3, [r3, #224]	@ 0xe0
241039d2:	3b01      	subs	r3, #1
241039d4:	011a      	lsls	r2, r3, #4
241039d6:	f8d7 31b4 	ldr.w	r3, [r7, #436]	@ 0x1b4
241039da:	f8d3 30dc 	ldr.w	r3, [r3, #220]	@ 0xdc
241039de:	4313      	orrs	r3, r2
241039e0:	4aa4      	ldr	r2, [pc, #656]	@ (24103c74 <HAL_RCCEx_PeriphCLKConfig+0xd74>)
241039e2:	430b      	orrs	r3, r1
241039e4:	f8c2 3148 	str.w	r3, [r2, #328]	@ 0x148
               (((PeriphClkInit->Eth1PtpDivider - 1U) << RCC_CCIPR2_ETH1PTPDIV_Pos) | \
                PeriphClkInit->Eth1PtpClockSelection));
  }

  /*---------------------- FDCAN configuration -------------------------------*/
  if ((PeriphClkInit->PeriphClockSelection & RCC_PERIPHCLK_FDCAN) == RCC_PERIPHCLK_FDCAN)
241039e8:	f8d7 31b4 	ldr.w	r3, [r7, #436]	@ 0x1b4
241039ec:	e9d3 2300 	ldrd	r2, r3, [r3]
241039f0:	f402 6380 	and.w	r3, r2, #1024	@ 0x400
241039f4:	f8c7 3138 	str.w	r3, [r7, #312]	@ 0x138
241039f8:	2300      	movs	r3, #0
241039fa:	f8c7 313c 	str.w	r3, [r7, #316]	@ 0x13c
241039fe:	e9d7 014e 	ldrd	r0, r1, [r7, #312]	@ 0x138
24103a02:	4603      	mov	r3, r0
24103a04:	460a      	mov	r2, r1
24103a06:	4313      	orrs	r3, r2
24103a08:	d02d      	beq.n	24103a66 <HAL_RCCEx_PeriphCLKConfig+0xb66>
  {
    /* Check the parameters */
    assert_param(IS_RCC_FDCANCLKSOURCE(PeriphClkInit->FdcanClockSelection));

    if (PeriphClkInit->FdcanClockSelection == RCC_FDCANCLKSOURCE_IC19)
24103a0a:	f8d7 31b4 	ldr.w	r3, [r7, #436]	@ 0x1b4
24103a0e:	f8d3 30e4 	ldr.w	r3, [r3, #228]	@ 0xe4
24103a12:	2b02      	cmp	r3, #2
24103a14:	d118      	bne.n	24103a48 <HAL_RCCEx_PeriphCLKConfig+0xb48>
      /* Check the parameters */
      assert_param(IS_RCC_ICCLKSOURCE(PeriphClkInit->ICSelection[RCC_IC19].ClockSelection));
      assert_param(IS_RCC_ICCLKDIVIDER(PeriphClkInit->ICSelection[RCC_IC19].ClockDivider));

      /* Set IC19 configuration */
      MODIFY_REG(RCC->IC19CFGR, RCC_IC19CFGR_IC19SEL | RCC_IC19CFGR_IC19INT,
24103a16:	4b97      	ldr	r3, [pc, #604]	@ (24103c74 <HAL_RCCEx_PeriphCLKConfig+0xd74>)
24103a18:	f8d3 310c 	ldr.w	r3, [r3, #268]	@ 0x10c
24103a1c:	f023 5143 	bic.w	r1, r3, #817889280	@ 0x30c00000
24103a20:	f421 117c 	bic.w	r1, r1, #4128768	@ 0x3f0000
24103a24:	f8d7 31b4 	ldr.w	r3, [r7, #436]	@ 0x1b4
24103a28:	f8d3 2098 	ldr.w	r2, [r3, #152]	@ 0x98
24103a2c:	f8d7 31b4 	ldr.w	r3, [r7, #436]	@ 0x1b4
24103a30:	f8d3 309c 	ldr.w	r3, [r3, #156]	@ 0x9c
24103a34:	3b01      	subs	r3, #1
24103a36:	041b      	lsls	r3, r3, #16
24103a38:	4313      	orrs	r3, r2
24103a3a:	4a8e      	ldr	r2, [pc, #568]	@ (24103c74 <HAL_RCCEx_PeriphCLKConfig+0xd74>)
24103a3c:	430b      	orrs	r3, r1
24103a3e:	f8c2 310c 	str.w	r3, [r2, #268]	@ 0x10c
                 PeriphClkInit->ICSelection[RCC_IC19].ClockSelection | \
                 ((PeriphClkInit->ICSelection[RCC_IC19].ClockDivider - 1U) << RCC_IC19CFGR_IC19INT_Pos));

      LL_RCC_IC19_Enable();
24103a42:	f7ff f9bb 	bl	24102dbc <LL_RCC_IC19_Enable>
24103a46:	e007      	b.n	24103a58 <HAL_RCCEx_PeriphCLKConfig+0xb58>
    }
    else if (PeriphClkInit->FdcanClockSelection == RCC_FDCANCLKSOURCE_CLKP)
24103a48:	f8d7 31b4 	ldr.w	r3, [r7, #436]	@ 0x1b4
24103a4c:	f8d3 30e4 	ldr.w	r3, [r3, #228]	@ 0xe4
24103a50:	2b01      	cmp	r3, #1
24103a52:	d101      	bne.n	24103a58 <HAL_RCCEx_PeriphCLKConfig+0xb58>
    {
      LL_RCC_CLKP_Enable();
24103a54:	f7ff fa32 	bl	24102ebc <LL_RCC_CLKP_Enable>
    {
      /* No specific enable to do on other sources */
    }

    /* Set the source of FDCAN clock*/
    __HAL_RCC_FDCAN_CONFIG(PeriphClkInit->FdcanClockSelection);
24103a58:	f8d7 31b4 	ldr.w	r3, [r7, #436]	@ 0x1b4
24103a5c:	f8d3 30e4 	ldr.w	r3, [r3, #228]	@ 0xe4
24103a60:	4618      	mov	r0, r3
24103a62:	f7fe f8db 	bl	24101c1c <LL_RCC_SetFDCANClockSource>
  }

  /*------------------------------ I2C1 Configuration ------------------------*/
  if ((PeriphClkInit->PeriphClockSelection & RCC_PERIPHCLK_I2C1) == RCC_PERIPHCLK_I2C1)
24103a66:	f8d7 31b4 	ldr.w	r3, [r7, #436]	@ 0x1b4
24103a6a:	e9d3 2300 	ldrd	r2, r3, [r3]
24103a6e:	f402 5380 	and.w	r3, r2, #4096	@ 0x1000
24103a72:	f8c7 3130 	str.w	r3, [r7, #304]	@ 0x130
24103a76:	2300      	movs	r3, #0
24103a78:	f8c7 3134 	str.w	r3, [r7, #308]	@ 0x134
24103a7c:	e9d7 014c 	ldrd	r0, r1, [r7, #304]	@ 0x130
24103a80:	4603      	mov	r3, r0
24103a82:	460a      	mov	r2, r1
24103a84:	4313      	orrs	r3, r2
24103a86:	d04b      	beq.n	24103b20 <HAL_RCCEx_PeriphCLKConfig+0xc20>
  {
    /* Check the parameters */
    assert_param(IS_RCC_I2C1CLKSOURCE(PeriphClkInit->I2c1ClockSelection));

    if (PeriphClkInit->I2c1ClockSelection == RCC_I2C1CLKSOURCE_IC10)
24103a88:	f8d7 31b4 	ldr.w	r3, [r7, #436]	@ 0x1b4
24103a8c:	f8d3 20e8 	ldr.w	r2, [r3, #232]	@ 0xe8
24103a90:	4b79      	ldr	r3, [pc, #484]	@ (24103c78 <HAL_RCCEx_PeriphCLKConfig+0xd78>)
24103a92:	429a      	cmp	r2, r3
24103a94:	d116      	bne.n	24103ac4 <HAL_RCCEx_PeriphCLKConfig+0xbc4>
      /* Check the parameters */
      assert_param(IS_RCC_ICCLKSOURCE(PeriphClkInit->ICSelection[RCC_IC10].ClockSelection));
      assert_param(IS_RCC_ICCLKDIVIDER(PeriphClkInit->ICSelection[RCC_IC10].ClockDivider));

      /* Set IC10 configuration */
      MODIFY_REG(RCC->IC10CFGR, RCC_IC10CFGR_IC10SEL | RCC_IC10CFGR_IC10INT,
24103a96:	4b77      	ldr	r3, [pc, #476]	@ (24103c74 <HAL_RCCEx_PeriphCLKConfig+0xd74>)
24103a98:	f8d3 30e8 	ldr.w	r3, [r3, #232]	@ 0xe8
24103a9c:	f023 5143 	bic.w	r1, r3, #817889280	@ 0x30c00000
24103aa0:	f421 117c 	bic.w	r1, r1, #4128768	@ 0x3f0000
24103aa4:	f8d7 31b4 	ldr.w	r3, [r7, #436]	@ 0x1b4
24103aa8:	6d1a      	ldr	r2, [r3, #80]	@ 0x50
24103aaa:	f8d7 31b4 	ldr.w	r3, [r7, #436]	@ 0x1b4
24103aae:	6d5b      	ldr	r3, [r3, #84]	@ 0x54
24103ab0:	3b01      	subs	r3, #1
24103ab2:	041b      	lsls	r3, r3, #16
24103ab4:	4313      	orrs	r3, r2
24103ab6:	4a6f      	ldr	r2, [pc, #444]	@ (24103c74 <HAL_RCCEx_PeriphCLKConfig+0xd74>)
24103ab8:	430b      	orrs	r3, r1
24103aba:	f8c2 30e8 	str.w	r3, [r2, #232]	@ 0xe8
                 PeriphClkInit->ICSelection[RCC_IC10].ClockSelection | \
                 ((PeriphClkInit->ICSelection[RCC_IC10].ClockDivider - 1U) << RCC_IC10CFGR_IC10INT_Pos));

      LL_RCC_IC10_Enable();
24103abe:	f7fe ff7d 	bl	241029bc <LL_RCC_IC10_Enable>
24103ac2:	e026      	b.n	24103b12 <HAL_RCCEx_PeriphCLKConfig+0xc12>
    }
    else if (PeriphClkInit->I2c1ClockSelection == RCC_I2C1CLKSOURCE_IC15)
24103ac4:	f8d7 31b4 	ldr.w	r3, [r7, #436]	@ 0x1b4
24103ac8:	f8d3 20e8 	ldr.w	r2, [r3, #232]	@ 0xe8
24103acc:	4b6b      	ldr	r3, [pc, #428]	@ (24103c7c <HAL_RCCEx_PeriphCLKConfig+0xd7c>)
24103ace:	429a      	cmp	r2, r3
24103ad0:	d116      	bne.n	24103b00 <HAL_RCCEx_PeriphCLKConfig+0xc00>
      /* Check the parameters */
      assert_param(IS_RCC_ICCLKSOURCE(PeriphClkInit->ICSelection[RCC_IC15].ClockSelection));
      assert_param(IS_RCC_ICCLKDIVIDER(PeriphClkInit->ICSelection[RCC_IC15].ClockDivider));

      /* Set IC15 configuration */
      MODIFY_REG(RCC->IC15CFGR, RCC_IC15CFGR_IC15SEL | RCC_IC15CFGR_IC15INT,
24103ad2:	4b68      	ldr	r3, [pc, #416]	@ (24103c74 <HAL_RCCEx_PeriphCLKConfig+0xd74>)
24103ad4:	f8d3 30fc 	ldr.w	r3, [r3, #252]	@ 0xfc
24103ad8:	f023 5143 	bic.w	r1, r3, #817889280	@ 0x30c00000
24103adc:	f421 117c 	bic.w	r1, r1, #4128768	@ 0x3f0000
24103ae0:	f8d7 31b4 	ldr.w	r3, [r7, #436]	@ 0x1b4
24103ae4:	6f9a      	ldr	r2, [r3, #120]	@ 0x78
24103ae6:	f8d7 31b4 	ldr.w	r3, [r7, #436]	@ 0x1b4
24103aea:	6fdb      	ldr	r3, [r3, #124]	@ 0x7c
24103aec:	3b01      	subs	r3, #1
24103aee:	041b      	lsls	r3, r3, #16
24103af0:	4313      	orrs	r3, r2
24103af2:	4a60      	ldr	r2, [pc, #384]	@ (24103c74 <HAL_RCCEx_PeriphCLKConfig+0xd74>)
24103af4:	430b      	orrs	r3, r1
24103af6:	f8c2 30fc 	str.w	r3, [r2, #252]	@ 0xfc
                 PeriphClkInit->ICSelection[RCC_IC15].ClockSelection | \
                 ((PeriphClkInit->ICSelection[RCC_IC15].ClockDivider - 1U) << RCC_IC15CFGR_IC15INT_Pos));

      LL_RCC_IC15_Enable();
24103afa:	f7ff f85f 	bl	24102bbc <LL_RCC_IC15_Enable>
24103afe:	e008      	b.n	24103b12 <HAL_RCCEx_PeriphCLKConfig+0xc12>
    }
    else if (PeriphClkInit->I2c1ClockSelection == RCC_I2C1CLKSOURCE_CLKP)
24103b00:	f8d7 31b4 	ldr.w	r3, [r7, #436]	@ 0x1b4
24103b04:	f8d3 20e8 	ldr.w	r2, [r3, #232]	@ 0xe8
24103b08:	4b5d      	ldr	r3, [pc, #372]	@ (24103c80 <HAL_RCCEx_PeriphCLKConfig+0xd80>)
24103b0a:	429a      	cmp	r2, r3
24103b0c:	d101      	bne.n	24103b12 <HAL_RCCEx_PeriphCLKConfig+0xc12>
    {
      LL_RCC_CLKP_Enable();
24103b0e:	f7ff f9d5 	bl	24102ebc <LL_RCC_CLKP_Enable>
    {
      /* No specific enable to do on other sources */
    }

    /* Set the source of I2C1 clock*/
    __HAL_RCC_I2C1_CONFIG(PeriphClkInit->I2c1ClockSelection);
24103b12:	f8d7 31b4 	ldr.w	r3, [r7, #436]	@ 0x1b4
24103b16:	f8d3 30e8 	ldr.w	r3, [r3, #232]	@ 0xe8
24103b1a:	4618      	mov	r0, r3
24103b1c:	f7fe f8aa 	bl	24101c74 <LL_RCC_SetI2CClockSource>
  }

  /*------------------------------ I2C2 Configuration ------------------------*/
  if ((PeriphClkInit->PeriphClockSelection & RCC_PERIPHCLK_I2C2) == RCC_PERIPHCLK_I2C2)
24103b20:	f8d7 31b4 	ldr.w	r3, [r7, #436]	@ 0x1b4
24103b24:	e9d3 2300 	ldrd	r2, r3, [r3]
24103b28:	f402 5300 	and.w	r3, r2, #8192	@ 0x2000
24103b2c:	f8c7 3128 	str.w	r3, [r7, #296]	@ 0x128
24103b30:	2300      	movs	r3, #0
24103b32:	f8c7 312c 	str.w	r3, [r7, #300]	@ 0x12c
24103b36:	e9d7 014a 	ldrd	r0, r1, [r7, #296]	@ 0x128
24103b3a:	4603      	mov	r3, r0
24103b3c:	460a      	mov	r2, r1
24103b3e:	4313      	orrs	r3, r2
24103b40:	d04b      	beq.n	24103bda <HAL_RCCEx_PeriphCLKConfig+0xcda>
  {
    /* Check the parameters */
    assert_param(IS_RCC_I2C2CLKSOURCE(PeriphClkInit->I2c2ClockSelection));

    if (PeriphClkInit->I2c2ClockSelection == RCC_I2C2CLKSOURCE_IC10)
24103b42:	f8d7 31b4 	ldr.w	r3, [r7, #436]	@ 0x1b4
24103b46:	f8d3 20ec 	ldr.w	r2, [r3, #236]	@ 0xec
24103b4a:	4b4e      	ldr	r3, [pc, #312]	@ (24103c84 <HAL_RCCEx_PeriphCLKConfig+0xd84>)
24103b4c:	429a      	cmp	r2, r3
24103b4e:	d116      	bne.n	24103b7e <HAL_RCCEx_PeriphCLKConfig+0xc7e>
      /* Check the parameters */
      assert_param(IS_RCC_ICCLKSOURCE(PeriphClkInit->ICSelection[RCC_IC10].ClockSelection));
      assert_param(IS_RCC_ICCLKDIVIDER(PeriphClkInit->ICSelection[RCC_IC10].ClockDivider));

      /* Set IC10 configuration */
      MODIFY_REG(RCC->IC10CFGR, RCC_IC10CFGR_IC10SEL | RCC_IC10CFGR_IC10INT,
24103b50:	4b48      	ldr	r3, [pc, #288]	@ (24103c74 <HAL_RCCEx_PeriphCLKConfig+0xd74>)
24103b52:	f8d3 30e8 	ldr.w	r3, [r3, #232]	@ 0xe8
24103b56:	f023 5143 	bic.w	r1, r3, #817889280	@ 0x30c00000
24103b5a:	f421 117c 	bic.w	r1, r1, #4128768	@ 0x3f0000
24103b5e:	f8d7 31b4 	ldr.w	r3, [r7, #436]	@ 0x1b4
24103b62:	6d1a      	ldr	r2, [r3, #80]	@ 0x50
24103b64:	f8d7 31b4 	ldr.w	r3, [r7, #436]	@ 0x1b4
24103b68:	6d5b      	ldr	r3, [r3, #84]	@ 0x54
24103b6a:	3b01      	subs	r3, #1
24103b6c:	041b      	lsls	r3, r3, #16
24103b6e:	4313      	orrs	r3, r2
24103b70:	4a40      	ldr	r2, [pc, #256]	@ (24103c74 <HAL_RCCEx_PeriphCLKConfig+0xd74>)
24103b72:	430b      	orrs	r3, r1
24103b74:	f8c2 30e8 	str.w	r3, [r2, #232]	@ 0xe8
                 PeriphClkInit->ICSelection[RCC_IC10].ClockSelection | \
                 ((PeriphClkInit->ICSelection[RCC_IC10].ClockDivider - 1U) << RCC_IC10CFGR_IC10INT_Pos));

      LL_RCC_IC10_Enable();
24103b78:	f7fe ff20 	bl	241029bc <LL_RCC_IC10_Enable>
24103b7c:	e026      	b.n	24103bcc <HAL_RCCEx_PeriphCLKConfig+0xccc>
    }
    else if (PeriphClkInit->I2c2ClockSelection == RCC_I2C2CLKSOURCE_IC15)
24103b7e:	f8d7 31b4 	ldr.w	r3, [r7, #436]	@ 0x1b4
24103b82:	f8d3 20ec 	ldr.w	r2, [r3, #236]	@ 0xec
24103b86:	4b40      	ldr	r3, [pc, #256]	@ (24103c88 <HAL_RCCEx_PeriphCLKConfig+0xd88>)
24103b88:	429a      	cmp	r2, r3
24103b8a:	d116      	bne.n	24103bba <HAL_RCCEx_PeriphCLKConfig+0xcba>
      /* Check the parameters */
      assert_param(IS_RCC_ICCLKSOURCE(PeriphClkInit->ICSelection[RCC_IC15].ClockSelection));
      assert_param(IS_RCC_ICCLKDIVIDER(PeriphClkInit->ICSelection[RCC_IC15].ClockDivider));

      /* Set IC15 configuration */
      MODIFY_REG(RCC->IC15CFGR, RCC_IC15CFGR_IC15SEL | RCC_IC15CFGR_IC15INT,
24103b8c:	4b39      	ldr	r3, [pc, #228]	@ (24103c74 <HAL_RCCEx_PeriphCLKConfig+0xd74>)
24103b8e:	f8d3 30fc 	ldr.w	r3, [r3, #252]	@ 0xfc
24103b92:	f023 5143 	bic.w	r1, r3, #817889280	@ 0x30c00000
24103b96:	f421 117c 	bic.w	r1, r1, #4128768	@ 0x3f0000
24103b9a:	f8d7 31b4 	ldr.w	r3, [r7, #436]	@ 0x1b4
24103b9e:	6f9a      	ldr	r2, [r3, #120]	@ 0x78
24103ba0:	f8d7 31b4 	ldr.w	r3, [r7, #436]	@ 0x1b4
24103ba4:	6fdb      	ldr	r3, [r3, #124]	@ 0x7c
24103ba6:	3b01      	subs	r3, #1
24103ba8:	041b      	lsls	r3, r3, #16
24103baa:	4313      	orrs	r3, r2
24103bac:	4a31      	ldr	r2, [pc, #196]	@ (24103c74 <HAL_RCCEx_PeriphCLKConfig+0xd74>)
24103bae:	430b      	orrs	r3, r1
24103bb0:	f8c2 30fc 	str.w	r3, [r2, #252]	@ 0xfc
                 PeriphClkInit->ICSelection[RCC_IC15].ClockSelection | \
                 ((PeriphClkInit->ICSelection[RCC_IC15].ClockDivider - 1U) << RCC_IC15CFGR_IC15INT_Pos));

      LL_RCC_IC15_Enable();
24103bb4:	f7ff f802 	bl	24102bbc <LL_RCC_IC15_Enable>
24103bb8:	e008      	b.n	24103bcc <HAL_RCCEx_PeriphCLKConfig+0xccc>
    }
    else if (PeriphClkInit->I2c2ClockSelection == RCC_I2C2CLKSOURCE_CLKP)
24103bba:	f8d7 31b4 	ldr.w	r3, [r7, #436]	@ 0x1b4
24103bbe:	f8d3 20ec 	ldr.w	r2, [r3, #236]	@ 0xec
24103bc2:	4b32      	ldr	r3, [pc, #200]	@ (24103c8c <HAL_RCCEx_PeriphCLKConfig+0xd8c>)
24103bc4:	429a      	cmp	r2, r3
24103bc6:	d101      	bne.n	24103bcc <HAL_RCCEx_PeriphCLKConfig+0xccc>
    {
      LL_RCC_CLKP_Enable();
24103bc8:	f7ff f978 	bl	24102ebc <LL_RCC_CLKP_Enable>
    {
      /* No specific enable to do on other sources */
    }

    /* Set the source of I2C2 clock*/
    __HAL_RCC_I2C2_CONFIG(PeriphClkInit->I2c2ClockSelection);
24103bcc:	f8d7 31b4 	ldr.w	r3, [r7, #436]	@ 0x1b4
24103bd0:	f8d3 30ec 	ldr.w	r3, [r3, #236]	@ 0xec
24103bd4:	4618      	mov	r0, r3
24103bd6:	f7fe f84d 	bl	24101c74 <LL_RCC_SetI2CClockSource>
  }

  /*------------------------------ I2C3 Configuration ------------------------*/
  if ((PeriphClkInit->PeriphClockSelection & RCC_PERIPHCLK_I2C3) == RCC_PERIPHCLK_I2C3)
24103bda:	f8d7 31b4 	ldr.w	r3, [r7, #436]	@ 0x1b4
24103bde:	e9d3 2300 	ldrd	r2, r3, [r3]
24103be2:	f402 4380 	and.w	r3, r2, #16384	@ 0x4000
24103be6:	f8c7 3120 	str.w	r3, [r7, #288]	@ 0x120
24103bea:	2300      	movs	r3, #0
24103bec:	f8c7 3124 	str.w	r3, [r7, #292]	@ 0x124
24103bf0:	e9d7 0148 	ldrd	r0, r1, [r7, #288]	@ 0x120
24103bf4:	4603      	mov	r3, r0
24103bf6:	460a      	mov	r2, r1
24103bf8:	4313      	orrs	r3, r2
24103bfa:	d05d      	beq.n	24103cb8 <HAL_RCCEx_PeriphCLKConfig+0xdb8>
  {
    /* Check the parameters */
    assert_param(IS_RCC_I2C3CLKSOURCE(PeriphClkInit->I2c3ClockSelection));

    if (PeriphClkInit->I2c3ClockSelection == RCC_I2C3CLKSOURCE_IC10)
24103bfc:	f8d7 31b4 	ldr.w	r3, [r7, #436]	@ 0x1b4
24103c00:	f8d3 20f0 	ldr.w	r2, [r3, #240]	@ 0xf0
24103c04:	4b22      	ldr	r3, [pc, #136]	@ (24103c90 <HAL_RCCEx_PeriphCLKConfig+0xd90>)
24103c06:	429a      	cmp	r2, r3
24103c08:	d116      	bne.n	24103c38 <HAL_RCCEx_PeriphCLKConfig+0xd38>
      /* Check the parameters */
      assert_param(IS_RCC_ICCLKSOURCE(PeriphClkInit->ICSelection[RCC_IC10].ClockSelection));
      assert_param(IS_RCC_ICCLKDIVIDER(PeriphClkInit->ICSelection[RCC_IC10].ClockDivider));

      /* Set IC10 configuration */
      MODIFY_REG(RCC->IC10CFGR, RCC_IC10CFGR_IC10SEL | RCC_IC10CFGR_IC10INT,
24103c0a:	4b1a      	ldr	r3, [pc, #104]	@ (24103c74 <HAL_RCCEx_PeriphCLKConfig+0xd74>)
24103c0c:	f8d3 30e8 	ldr.w	r3, [r3, #232]	@ 0xe8
24103c10:	f023 5143 	bic.w	r1, r3, #817889280	@ 0x30c00000
24103c14:	f421 117c 	bic.w	r1, r1, #4128768	@ 0x3f0000
24103c18:	f8d7 31b4 	ldr.w	r3, [r7, #436]	@ 0x1b4
24103c1c:	6d1a      	ldr	r2, [r3, #80]	@ 0x50
24103c1e:	f8d7 31b4 	ldr.w	r3, [r7, #436]	@ 0x1b4
24103c22:	6d5b      	ldr	r3, [r3, #84]	@ 0x54
24103c24:	3b01      	subs	r3, #1
24103c26:	041b      	lsls	r3, r3, #16
24103c28:	4313      	orrs	r3, r2
24103c2a:	4a12      	ldr	r2, [pc, #72]	@ (24103c74 <HAL_RCCEx_PeriphCLKConfig+0xd74>)
24103c2c:	430b      	orrs	r3, r1
24103c2e:	f8c2 30e8 	str.w	r3, [r2, #232]	@ 0xe8
                 PeriphClkInit->ICSelection[RCC_IC10].ClockSelection | \
                 ((PeriphClkInit->ICSelection[RCC_IC10].ClockDivider - 1U) << RCC_IC10CFGR_IC10INT_Pos));

      LL_RCC_IC10_Enable();
24103c32:	f7fe fec3 	bl	241029bc <LL_RCC_IC10_Enable>
24103c36:	e038      	b.n	24103caa <HAL_RCCEx_PeriphCLKConfig+0xdaa>
    }
    else if (PeriphClkInit->I2c3ClockSelection == RCC_I2C3CLKSOURCE_IC15)
24103c38:	f8d7 31b4 	ldr.w	r3, [r7, #436]	@ 0x1b4
24103c3c:	f8d3 20f0 	ldr.w	r2, [r3, #240]	@ 0xf0
24103c40:	4b14      	ldr	r3, [pc, #80]	@ (24103c94 <HAL_RCCEx_PeriphCLKConfig+0xd94>)
24103c42:	429a      	cmp	r2, r3
24103c44:	d128      	bne.n	24103c98 <HAL_RCCEx_PeriphCLKConfig+0xd98>
      /* Check the parameters */
      assert_param(IS_RCC_ICCLKSOURCE(PeriphClkInit->ICSelection[RCC_IC15].ClockSelection));
      assert_param(IS_RCC_ICCLKDIVIDER(PeriphClkInit->ICSelection[RCC_IC15].ClockDivider));

      /* Set IC15 configuration */
      MODIFY_REG(RCC->IC15CFGR, RCC_IC15CFGR_IC15SEL | RCC_IC15CFGR_IC15INT,
24103c46:	4b0b      	ldr	r3, [pc, #44]	@ (24103c74 <HAL_RCCEx_PeriphCLKConfig+0xd74>)
24103c48:	f8d3 30fc 	ldr.w	r3, [r3, #252]	@ 0xfc
24103c4c:	f023 5143 	bic.w	r1, r3, #817889280	@ 0x30c00000
24103c50:	f421 117c 	bic.w	r1, r1, #4128768	@ 0x3f0000
24103c54:	f8d7 31b4 	ldr.w	r3, [r7, #436]	@ 0x1b4
24103c58:	6f9a      	ldr	r2, [r3, #120]	@ 0x78
24103c5a:	f8d7 31b4 	ldr.w	r3, [r7, #436]	@ 0x1b4
24103c5e:	6fdb      	ldr	r3, [r3, #124]	@ 0x7c
24103c60:	3b01      	subs	r3, #1
24103c62:	041b      	lsls	r3, r3, #16
24103c64:	4313      	orrs	r3, r2
24103c66:	4a03      	ldr	r2, [pc, #12]	@ (24103c74 <HAL_RCCEx_PeriphCLKConfig+0xd74>)
24103c68:	430b      	orrs	r3, r1
24103c6a:	f8c2 30fc 	str.w	r3, [r2, #252]	@ 0xfc
                 PeriphClkInit->ICSelection[RCC_IC15].ClockSelection | \
                 ((PeriphClkInit->ICSelection[RCC_IC15].ClockDivider - 1U) << RCC_IC15CFGR_IC15INT_Pos));

      LL_RCC_IC15_Enable();
24103c6e:	f7fe ffa5 	bl	24102bbc <LL_RCC_IC15_Enable>
24103c72:	e01a      	b.n	24103caa <HAL_RCCEx_PeriphCLKConfig+0xdaa>
24103c74:	46028000 	.word	0x46028000
24103c78:	0702000c 	.word	0x0702000c
24103c7c:	0703000c 	.word	0x0703000c
24103c80:	0701000c 	.word	0x0701000c
24103c84:	0702040c 	.word	0x0702040c
24103c88:	0703040c 	.word	0x0703040c
24103c8c:	0701040c 	.word	0x0701040c
24103c90:	0702080c 	.word	0x0702080c
24103c94:	0703080c 	.word	0x0703080c
    }
    else if (PeriphClkInit->I2c3ClockSelection == RCC_I2C3CLKSOURCE_CLKP)
24103c98:	f8d7 31b4 	ldr.w	r3, [r7, #436]	@ 0x1b4
24103c9c:	f8d3 20f0 	ldr.w	r2, [r3, #240]	@ 0xf0
24103ca0:	4bc8      	ldr	r3, [pc, #800]	@ (24103fc4 <HAL_RCCEx_PeriphCLKConfig+0x10c4>)
24103ca2:	429a      	cmp	r2, r3
24103ca4:	d101      	bne.n	24103caa <HAL_RCCEx_PeriphCLKConfig+0xdaa>
    {
      LL_RCC_CLKP_Enable();
24103ca6:	f7ff f909 	bl	24102ebc <LL_RCC_CLKP_Enable>
    {
      /* No specific enable to do on other sources */
    }

    /* Set the source of I2C3 clock*/
    __HAL_RCC_I2C3_CONFIG(PeriphClkInit->I2c3ClockSelection);
24103caa:	f8d7 31b4 	ldr.w	r3, [r7, #436]	@ 0x1b4
24103cae:	f8d3 30f0 	ldr.w	r3, [r3, #240]	@ 0xf0
24103cb2:	4618      	mov	r0, r3
24103cb4:	f7fd ffde 	bl	24101c74 <LL_RCC_SetI2CClockSource>
  }

  /*------------------------------ I2C4 Configuration ------------------------*/
  if ((PeriphClkInit->PeriphClockSelection & RCC_PERIPHCLK_I2C4) == RCC_PERIPHCLK_I2C4)
24103cb8:	f8d7 31b4 	ldr.w	r3, [r7, #436]	@ 0x1b4
24103cbc:	e9d3 2300 	ldrd	r2, r3, [r3]
24103cc0:	f402 4300 	and.w	r3, r2, #32768	@ 0x8000
24103cc4:	f8c7 3118 	str.w	r3, [r7, #280]	@ 0x118
24103cc8:	2300      	movs	r3, #0
24103cca:	f8c7 311c 	str.w	r3, [r7, #284]	@ 0x11c
24103cce:	e9d7 0146 	ldrd	r0, r1, [r7, #280]	@ 0x118
24103cd2:	4603      	mov	r3, r0
24103cd4:	460a      	mov	r2, r1
24103cd6:	4313      	orrs	r3, r2
24103cd8:	d04b      	beq.n	24103d72 <HAL_RCCEx_PeriphCLKConfig+0xe72>
  {
    /* Check the parameters */
    assert_param(IS_RCC_I2C4CLKSOURCE(PeriphClkInit->I2c4ClockSelection));

    if (PeriphClkInit->I2c4ClockSelection == RCC_I2C4CLKSOURCE_IC10)
24103cda:	f8d7 31b4 	ldr.w	r3, [r7, #436]	@ 0x1b4
24103cde:	f8d3 20f4 	ldr.w	r2, [r3, #244]	@ 0xf4
24103ce2:	4bb9      	ldr	r3, [pc, #740]	@ (24103fc8 <HAL_RCCEx_PeriphCLKConfig+0x10c8>)
24103ce4:	429a      	cmp	r2, r3
24103ce6:	d116      	bne.n	24103d16 <HAL_RCCEx_PeriphCLKConfig+0xe16>
      /* Check the parameters */
      assert_param(IS_RCC_ICCLKSOURCE(PeriphClkInit->ICSelection[RCC_IC10].ClockSelection));
      assert_param(IS_RCC_ICCLKDIVIDER(PeriphClkInit->ICSelection[RCC_IC10].ClockDivider));

      /* Set IC10 configuration */
      MODIFY_REG(RCC->IC10CFGR, RCC_IC10CFGR_IC10SEL | RCC_IC10CFGR_IC10INT,
24103ce8:	4bb8      	ldr	r3, [pc, #736]	@ (24103fcc <HAL_RCCEx_PeriphCLKConfig+0x10cc>)
24103cea:	f8d3 30e8 	ldr.w	r3, [r3, #232]	@ 0xe8
24103cee:	f023 5143 	bic.w	r1, r3, #817889280	@ 0x30c00000
24103cf2:	f421 117c 	bic.w	r1, r1, #4128768	@ 0x3f0000
24103cf6:	f8d7 31b4 	ldr.w	r3, [r7, #436]	@ 0x1b4
24103cfa:	6d1a      	ldr	r2, [r3, #80]	@ 0x50
24103cfc:	f8d7 31b4 	ldr.w	r3, [r7, #436]	@ 0x1b4
24103d00:	6d5b      	ldr	r3, [r3, #84]	@ 0x54
24103d02:	3b01      	subs	r3, #1
24103d04:	041b      	lsls	r3, r3, #16
24103d06:	4313      	orrs	r3, r2
24103d08:	4ab0      	ldr	r2, [pc, #704]	@ (24103fcc <HAL_RCCEx_PeriphCLKConfig+0x10cc>)
24103d0a:	430b      	orrs	r3, r1
24103d0c:	f8c2 30e8 	str.w	r3, [r2, #232]	@ 0xe8
                 PeriphClkInit->ICSelection[RCC_IC10].ClockSelection | \
                 ((PeriphClkInit->ICSelection[RCC_IC10].ClockDivider - 1U) << RCC_IC10CFGR_IC10INT_Pos));

      LL_RCC_IC10_Enable();
24103d10:	f7fe fe54 	bl	241029bc <LL_RCC_IC10_Enable>
24103d14:	e026      	b.n	24103d64 <HAL_RCCEx_PeriphCLKConfig+0xe64>
    }
    else if (PeriphClkInit->I2c4ClockSelection == RCC_I2C4CLKSOURCE_IC15)
24103d16:	f8d7 31b4 	ldr.w	r3, [r7, #436]	@ 0x1b4
24103d1a:	f8d3 20f4 	ldr.w	r2, [r3, #244]	@ 0xf4
24103d1e:	4bac      	ldr	r3, [pc, #688]	@ (24103fd0 <HAL_RCCEx_PeriphCLKConfig+0x10d0>)
24103d20:	429a      	cmp	r2, r3
24103d22:	d116      	bne.n	24103d52 <HAL_RCCEx_PeriphCLKConfig+0xe52>
      /* Check the parameters */
      assert_param(IS_RCC_ICCLKSOURCE(PeriphClkInit->ICSelection[RCC_IC15].ClockSelection));
      assert_param(IS_RCC_ICCLKDIVIDER(PeriphClkInit->ICSelection[RCC_IC15].ClockDivider));

      /* Set IC15 configuration */
      MODIFY_REG(RCC->IC15CFGR, RCC_IC15CFGR_IC15SEL | RCC_IC15CFGR_IC15INT,
24103d24:	4ba9      	ldr	r3, [pc, #676]	@ (24103fcc <HAL_RCCEx_PeriphCLKConfig+0x10cc>)
24103d26:	f8d3 30fc 	ldr.w	r3, [r3, #252]	@ 0xfc
24103d2a:	f023 5143 	bic.w	r1, r3, #817889280	@ 0x30c00000
24103d2e:	f421 117c 	bic.w	r1, r1, #4128768	@ 0x3f0000
24103d32:	f8d7 31b4 	ldr.w	r3, [r7, #436]	@ 0x1b4
24103d36:	6f9a      	ldr	r2, [r3, #120]	@ 0x78
24103d38:	f8d7 31b4 	ldr.w	r3, [r7, #436]	@ 0x1b4
24103d3c:	6fdb      	ldr	r3, [r3, #124]	@ 0x7c
24103d3e:	3b01      	subs	r3, #1
24103d40:	041b      	lsls	r3, r3, #16
24103d42:	4313      	orrs	r3, r2
24103d44:	4aa1      	ldr	r2, [pc, #644]	@ (24103fcc <HAL_RCCEx_PeriphCLKConfig+0x10cc>)
24103d46:	430b      	orrs	r3, r1
24103d48:	f8c2 30fc 	str.w	r3, [r2, #252]	@ 0xfc
                 PeriphClkInit->ICSelection[RCC_IC15].ClockSelection | \
                 ((PeriphClkInit->ICSelection[RCC_IC15].ClockDivider - 1U) << RCC_IC15CFGR_IC15INT_Pos));

      LL_RCC_IC15_Enable();
24103d4c:	f7fe ff36 	bl	24102bbc <LL_RCC_IC15_Enable>
24103d50:	e008      	b.n	24103d64 <HAL_RCCEx_PeriphCLKConfig+0xe64>
    }
    else if (PeriphClkInit->I2c4ClockSelection == RCC_I2C4CLKSOURCE_CLKP)
24103d52:	f8d7 31b4 	ldr.w	r3, [r7, #436]	@ 0x1b4
24103d56:	f8d3 20f4 	ldr.w	r2, [r3, #244]	@ 0xf4
24103d5a:	4b9e      	ldr	r3, [pc, #632]	@ (24103fd4 <HAL_RCCEx_PeriphCLKConfig+0x10d4>)
24103d5c:	429a      	cmp	r2, r3
24103d5e:	d101      	bne.n	24103d64 <HAL_RCCEx_PeriphCLKConfig+0xe64>
    {
      LL_RCC_CLKP_Enable();
24103d60:	f7ff f8ac 	bl	24102ebc <LL_RCC_CLKP_Enable>
    {
      /* No specific enable to do on other sources */
    }

    /* Set the source of I2C4 clock*/
    __HAL_RCC_I2C4_CONFIG(PeriphClkInit->I2c4ClockSelection);
24103d64:	f8d7 31b4 	ldr.w	r3, [r7, #436]	@ 0x1b4
24103d68:	f8d3 30f4 	ldr.w	r3, [r3, #244]	@ 0xf4
24103d6c:	4618      	mov	r0, r3
24103d6e:	f7fd ff81 	bl	24101c74 <LL_RCC_SetI2CClockSource>
  }

  /*------------------------------ I3C1 Configuration ------------------------*/
  if ((PeriphClkInit->PeriphClockSelection & RCC_PERIPHCLK_I3C1) == RCC_PERIPHCLK_I3C1)
24103d72:	f8d7 31b4 	ldr.w	r3, [r7, #436]	@ 0x1b4
24103d76:	e9d3 2300 	ldrd	r2, r3, [r3]
24103d7a:	f402 3380 	and.w	r3, r2, #65536	@ 0x10000
24103d7e:	f8c7 3110 	str.w	r3, [r7, #272]	@ 0x110
24103d82:	2300      	movs	r3, #0
24103d84:	f8c7 3114 	str.w	r3, [r7, #276]	@ 0x114
24103d88:	e9d7 0144 	ldrd	r0, r1, [r7, #272]	@ 0x110
24103d8c:	4603      	mov	r3, r0
24103d8e:	460a      	mov	r2, r1
24103d90:	4313      	orrs	r3, r2
24103d92:	d04b      	beq.n	24103e2c <HAL_RCCEx_PeriphCLKConfig+0xf2c>
  {
    /* Check the parameters */
    assert_param(IS_RCC_I3C1CLKSOURCE(PeriphClkInit->I3c1ClockSelection));

    if (PeriphClkInit->I3c1ClockSelection == RCC_I3C1CLKSOURCE_IC10)
24103d94:	f8d7 31b4 	ldr.w	r3, [r7, #436]	@ 0x1b4
24103d98:	f8d3 20f8 	ldr.w	r2, [r3, #248]	@ 0xf8
24103d9c:	4b8e      	ldr	r3, [pc, #568]	@ (24103fd8 <HAL_RCCEx_PeriphCLKConfig+0x10d8>)
24103d9e:	429a      	cmp	r2, r3
24103da0:	d116      	bne.n	24103dd0 <HAL_RCCEx_PeriphCLKConfig+0xed0>
      /* Check the parameters */
      assert_param(IS_RCC_ICCLKSOURCE(PeriphClkInit->ICSelection[RCC_IC10].ClockSelection));
      assert_param(IS_RCC_ICCLKDIVIDER(PeriphClkInit->ICSelection[RCC_IC10].ClockDivider));

      /* Set IC10 configuration */
      MODIFY_REG(RCC->IC10CFGR, RCC_IC10CFGR_IC10SEL | RCC_IC10CFGR_IC10INT,
24103da2:	4b8a      	ldr	r3, [pc, #552]	@ (24103fcc <HAL_RCCEx_PeriphCLKConfig+0x10cc>)
24103da4:	f8d3 30e8 	ldr.w	r3, [r3, #232]	@ 0xe8
24103da8:	f023 5143 	bic.w	r1, r3, #817889280	@ 0x30c00000
24103dac:	f421 117c 	bic.w	r1, r1, #4128768	@ 0x3f0000
24103db0:	f8d7 31b4 	ldr.w	r3, [r7, #436]	@ 0x1b4
24103db4:	6d1a      	ldr	r2, [r3, #80]	@ 0x50
24103db6:	f8d7 31b4 	ldr.w	r3, [r7, #436]	@ 0x1b4
24103dba:	6d5b      	ldr	r3, [r3, #84]	@ 0x54
24103dbc:	3b01      	subs	r3, #1
24103dbe:	041b      	lsls	r3, r3, #16
24103dc0:	4313      	orrs	r3, r2
24103dc2:	4a82      	ldr	r2, [pc, #520]	@ (24103fcc <HAL_RCCEx_PeriphCLKConfig+0x10cc>)
24103dc4:	430b      	orrs	r3, r1
24103dc6:	f8c2 30e8 	str.w	r3, [r2, #232]	@ 0xe8
                 PeriphClkInit->ICSelection[RCC_IC10].ClockSelection | \
                 ((PeriphClkInit->ICSelection[RCC_IC10].ClockDivider - 1U) << RCC_IC10CFGR_IC10INT_Pos));

      LL_RCC_IC10_Enable();
24103dca:	f7fe fdf7 	bl	241029bc <LL_RCC_IC10_Enable>
24103dce:	e026      	b.n	24103e1e <HAL_RCCEx_PeriphCLKConfig+0xf1e>
    }
    else if (PeriphClkInit->I3c1ClockSelection == RCC_I3C1CLKSOURCE_IC15)
24103dd0:	f8d7 31b4 	ldr.w	r3, [r7, #436]	@ 0x1b4
24103dd4:	f8d3 20f8 	ldr.w	r2, [r3, #248]	@ 0xf8
24103dd8:	4b80      	ldr	r3, [pc, #512]	@ (24103fdc <HAL_RCCEx_PeriphCLKConfig+0x10dc>)
24103dda:	429a      	cmp	r2, r3
24103ddc:	d116      	bne.n	24103e0c <HAL_RCCEx_PeriphCLKConfig+0xf0c>
      /* Check the parameters */
      assert_param(IS_RCC_ICCLKSOURCE(PeriphClkInit->ICSelection[RCC_IC15].ClockSelection));
      assert_param(IS_RCC_ICCLKDIVIDER(PeriphClkInit->ICSelection[RCC_IC15].ClockDivider));

      /* Set IC15 configuration */
      MODIFY_REG(RCC->IC15CFGR, RCC_IC15CFGR_IC15SEL | RCC_IC15CFGR_IC15INT,
24103dde:	4b7b      	ldr	r3, [pc, #492]	@ (24103fcc <HAL_RCCEx_PeriphCLKConfig+0x10cc>)
24103de0:	f8d3 30fc 	ldr.w	r3, [r3, #252]	@ 0xfc
24103de4:	f023 5143 	bic.w	r1, r3, #817889280	@ 0x30c00000
24103de8:	f421 117c 	bic.w	r1, r1, #4128768	@ 0x3f0000
24103dec:	f8d7 31b4 	ldr.w	r3, [r7, #436]	@ 0x1b4
24103df0:	6f9a      	ldr	r2, [r3, #120]	@ 0x78
24103df2:	f8d7 31b4 	ldr.w	r3, [r7, #436]	@ 0x1b4
24103df6:	6fdb      	ldr	r3, [r3, #124]	@ 0x7c
24103df8:	3b01      	subs	r3, #1
24103dfa:	041b      	lsls	r3, r3, #16
24103dfc:	4313      	orrs	r3, r2
24103dfe:	4a73      	ldr	r2, [pc, #460]	@ (24103fcc <HAL_RCCEx_PeriphCLKConfig+0x10cc>)
24103e00:	430b      	orrs	r3, r1
24103e02:	f8c2 30fc 	str.w	r3, [r2, #252]	@ 0xfc
                 PeriphClkInit->ICSelection[RCC_IC15].ClockSelection | \
                 ((PeriphClkInit->ICSelection[RCC_IC15].ClockDivider - 1U) << RCC_IC15CFGR_IC15INT_Pos));

      LL_RCC_IC15_Enable();
24103e06:	f7fe fed9 	bl	24102bbc <LL_RCC_IC15_Enable>
24103e0a:	e008      	b.n	24103e1e <HAL_RCCEx_PeriphCLKConfig+0xf1e>
    }
    else if (PeriphClkInit->I3c1ClockSelection == RCC_I3C1CLKSOURCE_CLKP)
24103e0c:	f8d7 31b4 	ldr.w	r3, [r7, #436]	@ 0x1b4
24103e10:	f8d3 20f8 	ldr.w	r2, [r3, #248]	@ 0xf8
24103e14:	4b72      	ldr	r3, [pc, #456]	@ (24103fe0 <HAL_RCCEx_PeriphCLKConfig+0x10e0>)
24103e16:	429a      	cmp	r2, r3
24103e18:	d101      	bne.n	24103e1e <HAL_RCCEx_PeriphCLKConfig+0xf1e>
    {
      LL_RCC_CLKP_Enable();
24103e1a:	f7ff f84f 	bl	24102ebc <LL_RCC_CLKP_Enable>
    {
      /* No specific enable to do on other sources */
    }

    /* Set the source of I3C1 clock*/
    __HAL_RCC_I3C1_CONFIG(PeriphClkInit->I3c1ClockSelection);
24103e1e:	f8d7 31b4 	ldr.w	r3, [r7, #436]	@ 0x1b4
24103e22:	f8d3 30f8 	ldr.w	r3, [r3, #248]	@ 0xf8
24103e26:	4618      	mov	r0, r3
24103e28:	f7fd ff2f 	bl	24101c8a <LL_RCC_SetI3CClockSource>
  }

  /*------------------------------ I3C2 Configuration ------------------------*/
  if ((PeriphClkInit->PeriphClockSelection & RCC_PERIPHCLK_I3C2) == RCC_PERIPHCLK_I3C2)
24103e2c:	f8d7 31b4 	ldr.w	r3, [r7, #436]	@ 0x1b4
24103e30:	e9d3 2300 	ldrd	r2, r3, [r3]
24103e34:	f402 3300 	and.w	r3, r2, #131072	@ 0x20000
24103e38:	f8c7 3108 	str.w	r3, [r7, #264]	@ 0x108
24103e3c:	2300      	movs	r3, #0
24103e3e:	f8c7 310c 	str.w	r3, [r7, #268]	@ 0x10c
24103e42:	e9d7 0142 	ldrd	r0, r1, [r7, #264]	@ 0x108
24103e46:	4603      	mov	r3, r0
24103e48:	460a      	mov	r2, r1
24103e4a:	4313      	orrs	r3, r2
24103e4c:	d04b      	beq.n	24103ee6 <HAL_RCCEx_PeriphCLKConfig+0xfe6>
  {
    /* Check the parameters */
    assert_param(IS_RCC_I3C2CLKSOURCE(PeriphClkInit->I3c2ClockSelection));

    if (PeriphClkInit->I3c2ClockSelection == RCC_I3C2CLKSOURCE_IC10)
24103e4e:	f8d7 31b4 	ldr.w	r3, [r7, #436]	@ 0x1b4
24103e52:	f8d3 20fc 	ldr.w	r2, [r3, #252]	@ 0xfc
24103e56:	4b63      	ldr	r3, [pc, #396]	@ (24103fe4 <HAL_RCCEx_PeriphCLKConfig+0x10e4>)
24103e58:	429a      	cmp	r2, r3
24103e5a:	d116      	bne.n	24103e8a <HAL_RCCEx_PeriphCLKConfig+0xf8a>
      /* Check the parameters */
      assert_param(IS_RCC_ICCLKSOURCE(PeriphClkInit->ICSelection[RCC_IC10].ClockSelection));
      assert_param(IS_RCC_ICCLKDIVIDER(PeriphClkInit->ICSelection[RCC_IC10].ClockDivider));

      /* Set IC10 configuration */
      MODIFY_REG(RCC->IC10CFGR, RCC_IC10CFGR_IC10SEL | RCC_IC10CFGR_IC10INT,
24103e5c:	4b5b      	ldr	r3, [pc, #364]	@ (24103fcc <HAL_RCCEx_PeriphCLKConfig+0x10cc>)
24103e5e:	f8d3 30e8 	ldr.w	r3, [r3, #232]	@ 0xe8
24103e62:	f023 5143 	bic.w	r1, r3, #817889280	@ 0x30c00000
24103e66:	f421 117c 	bic.w	r1, r1, #4128768	@ 0x3f0000
24103e6a:	f8d7 31b4 	ldr.w	r3, [r7, #436]	@ 0x1b4
24103e6e:	6d1a      	ldr	r2, [r3, #80]	@ 0x50
24103e70:	f8d7 31b4 	ldr.w	r3, [r7, #436]	@ 0x1b4
24103e74:	6d5b      	ldr	r3, [r3, #84]	@ 0x54
24103e76:	3b01      	subs	r3, #1
24103e78:	041b      	lsls	r3, r3, #16
24103e7a:	4313      	orrs	r3, r2
24103e7c:	4a53      	ldr	r2, [pc, #332]	@ (24103fcc <HAL_RCCEx_PeriphCLKConfig+0x10cc>)
24103e7e:	430b      	orrs	r3, r1
24103e80:	f8c2 30e8 	str.w	r3, [r2, #232]	@ 0xe8
                 PeriphClkInit->ICSelection[RCC_IC10].ClockSelection | \
                 ((PeriphClkInit->ICSelection[RCC_IC10].ClockDivider - 1U) << RCC_IC10CFGR_IC10INT_Pos));

      LL_RCC_IC10_Enable();
24103e84:	f7fe fd9a 	bl	241029bc <LL_RCC_IC10_Enable>
24103e88:	e026      	b.n	24103ed8 <HAL_RCCEx_PeriphCLKConfig+0xfd8>
    }
    else if (PeriphClkInit->I3c2ClockSelection == RCC_I3C2CLKSOURCE_IC15)
24103e8a:	f8d7 31b4 	ldr.w	r3, [r7, #436]	@ 0x1b4
24103e8e:	f8d3 20fc 	ldr.w	r2, [r3, #252]	@ 0xfc
24103e92:	4b55      	ldr	r3, [pc, #340]	@ (24103fe8 <HAL_RCCEx_PeriphCLKConfig+0x10e8>)
24103e94:	429a      	cmp	r2, r3
24103e96:	d116      	bne.n	24103ec6 <HAL_RCCEx_PeriphCLKConfig+0xfc6>
      /* Check the parameters */
      assert_param(IS_RCC_ICCLKSOURCE(PeriphClkInit->ICSelection[RCC_IC15].ClockSelection));
      assert_param(IS_RCC_ICCLKDIVIDER(PeriphClkInit->ICSelection[RCC_IC15].ClockDivider));

      /* Set IC15 configuration */
      MODIFY_REG(RCC->IC15CFGR, RCC_IC15CFGR_IC15SEL | RCC_IC15CFGR_IC15INT,
24103e98:	4b4c      	ldr	r3, [pc, #304]	@ (24103fcc <HAL_RCCEx_PeriphCLKConfig+0x10cc>)
24103e9a:	f8d3 30fc 	ldr.w	r3, [r3, #252]	@ 0xfc
24103e9e:	f023 5143 	bic.w	r1, r3, #817889280	@ 0x30c00000
24103ea2:	f421 117c 	bic.w	r1, r1, #4128768	@ 0x3f0000
24103ea6:	f8d7 31b4 	ldr.w	r3, [r7, #436]	@ 0x1b4
24103eaa:	6f9a      	ldr	r2, [r3, #120]	@ 0x78
24103eac:	f8d7 31b4 	ldr.w	r3, [r7, #436]	@ 0x1b4
24103eb0:	6fdb      	ldr	r3, [r3, #124]	@ 0x7c
24103eb2:	3b01      	subs	r3, #1
24103eb4:	041b      	lsls	r3, r3, #16
24103eb6:	4313      	orrs	r3, r2
24103eb8:	4a44      	ldr	r2, [pc, #272]	@ (24103fcc <HAL_RCCEx_PeriphCLKConfig+0x10cc>)
24103eba:	430b      	orrs	r3, r1
24103ebc:	f8c2 30fc 	str.w	r3, [r2, #252]	@ 0xfc
                 PeriphClkInit->ICSelection[RCC_IC15].ClockSelection | \
                 ((PeriphClkInit->ICSelection[RCC_IC15].ClockDivider - 1U) << RCC_IC15CFGR_IC15INT_Pos));

      LL_RCC_IC15_Enable();
24103ec0:	f7fe fe7c 	bl	24102bbc <LL_RCC_IC15_Enable>
24103ec4:	e008      	b.n	24103ed8 <HAL_RCCEx_PeriphCLKConfig+0xfd8>
    }
    else if (PeriphClkInit->I3c2ClockSelection == RCC_I3C2CLKSOURCE_CLKP)
24103ec6:	f8d7 31b4 	ldr.w	r3, [r7, #436]	@ 0x1b4
24103eca:	f8d3 20fc 	ldr.w	r2, [r3, #252]	@ 0xfc
24103ece:	4b47      	ldr	r3, [pc, #284]	@ (24103fec <HAL_RCCEx_PeriphCLKConfig+0x10ec>)
24103ed0:	429a      	cmp	r2, r3
24103ed2:	d101      	bne.n	24103ed8 <HAL_RCCEx_PeriphCLKConfig+0xfd8>
    {
      LL_RCC_CLKP_Enable();
24103ed4:	f7fe fff2 	bl	24102ebc <LL_RCC_CLKP_Enable>
    {
      /* No specific enable to do on other sources */
    }

    /* Set the source of I3C2 clock*/
    __HAL_RCC_I3C2_CONFIG(PeriphClkInit->I3c2ClockSelection);
24103ed8:	f8d7 31b4 	ldr.w	r3, [r7, #436]	@ 0x1b4
24103edc:	f8d3 30fc 	ldr.w	r3, [r3, #252]	@ 0xfc
24103ee0:	4618      	mov	r0, r3
24103ee2:	f7fd fed2 	bl	24101c8a <LL_RCC_SetI3CClockSource>
  }

  /*---------------------------- LPTIM1 configuration ------------------------*/
  if ((PeriphClkInit->PeriphClockSelection & RCC_PERIPHCLK_LPTIM1) == RCC_PERIPHCLK_LPTIM1)
24103ee6:	f8d7 31b4 	ldr.w	r3, [r7, #436]	@ 0x1b4
24103eea:	e9d3 2300 	ldrd	r2, r3, [r3]
24103eee:	f402 2380 	and.w	r3, r2, #262144	@ 0x40000
24103ef2:	f8c7 3100 	str.w	r3, [r7, #256]	@ 0x100
24103ef6:	2300      	movs	r3, #0
24103ef8:	f8c7 3104 	str.w	r3, [r7, #260]	@ 0x104
24103efc:	e9d7 0140 	ldrd	r0, r1, [r7, #256]	@ 0x100
24103f00:	4603      	mov	r3, r0
24103f02:	460a      	mov	r2, r1
24103f04:	4313      	orrs	r3, r2
24103f06:	d02d      	beq.n	24103f64 <HAL_RCCEx_PeriphCLKConfig+0x1064>
  {
    /* Check the parameters */
    assert_param(IS_RCC_LPTIM1CLKSOURCE(PeriphClkInit->Lptim1ClockSelection));

    if (PeriphClkInit->Lptim1ClockSelection == RCC_LPTIM1CLKSOURCE_IC15)
24103f08:	f8d7 31b4 	ldr.w	r3, [r7, #436]	@ 0x1b4
24103f0c:	f8d3 2100 	ldr.w	r2, [r3, #256]	@ 0x100
24103f10:	4b37      	ldr	r3, [pc, #220]	@ (24103ff0 <HAL_RCCEx_PeriphCLKConfig+0x10f0>)
24103f12:	429a      	cmp	r2, r3
24103f14:	d116      	bne.n	24103f44 <HAL_RCCEx_PeriphCLKConfig+0x1044>
      /* Check the parameters */
      assert_param(IS_RCC_ICCLKSOURCE(PeriphClkInit->ICSelection[RCC_IC15].ClockSelection));
      assert_param(IS_RCC_ICCLKDIVIDER(PeriphClkInit->ICSelection[RCC_IC15].ClockDivider));

      /* Set IC15 configuration */
      MODIFY_REG(RCC->IC15CFGR, RCC_IC15CFGR_IC15SEL | RCC_IC15CFGR_IC15INT,
24103f16:	4b2d      	ldr	r3, [pc, #180]	@ (24103fcc <HAL_RCCEx_PeriphCLKConfig+0x10cc>)
24103f18:	f8d3 30fc 	ldr.w	r3, [r3, #252]	@ 0xfc
24103f1c:	f023 5143 	bic.w	r1, r3, #817889280	@ 0x30c00000
24103f20:	f421 117c 	bic.w	r1, r1, #4128768	@ 0x3f0000
24103f24:	f8d7 31b4 	ldr.w	r3, [r7, #436]	@ 0x1b4
24103f28:	6f9a      	ldr	r2, [r3, #120]	@ 0x78
24103f2a:	f8d7 31b4 	ldr.w	r3, [r7, #436]	@ 0x1b4
24103f2e:	6fdb      	ldr	r3, [r3, #124]	@ 0x7c
24103f30:	3b01      	subs	r3, #1
24103f32:	041b      	lsls	r3, r3, #16
24103f34:	4313      	orrs	r3, r2
24103f36:	4a25      	ldr	r2, [pc, #148]	@ (24103fcc <HAL_RCCEx_PeriphCLKConfig+0x10cc>)
24103f38:	430b      	orrs	r3, r1
24103f3a:	f8c2 30fc 	str.w	r3, [r2, #252]	@ 0xfc
                 PeriphClkInit->ICSelection[RCC_IC15].ClockSelection | \
                 ((PeriphClkInit->ICSelection[RCC_IC15].ClockDivider - 1U) << RCC_IC15CFGR_IC15INT_Pos));

      LL_RCC_IC15_Enable();
24103f3e:	f7fe fe3d 	bl	24102bbc <LL_RCC_IC15_Enable>
24103f42:	e008      	b.n	24103f56 <HAL_RCCEx_PeriphCLKConfig+0x1056>
    }
    else if (PeriphClkInit->Lptim1ClockSelection == RCC_LPTIM1CLKSOURCE_CLKP)
24103f44:	f8d7 31b4 	ldr.w	r3, [r7, #436]	@ 0x1b4
24103f48:	f8d3 2100 	ldr.w	r2, [r3, #256]	@ 0x100
24103f4c:	4b29      	ldr	r3, [pc, #164]	@ (24103ff4 <HAL_RCCEx_PeriphCLKConfig+0x10f4>)
24103f4e:	429a      	cmp	r2, r3
24103f50:	d101      	bne.n	24103f56 <HAL_RCCEx_PeriphCLKConfig+0x1056>
    {
      LL_RCC_CLKP_Enable();
24103f52:	f7fe ffb3 	bl	24102ebc <LL_RCC_CLKP_Enable>
    {
      /* No specific enable to do on other sources */
    }

    /* Set the source of LPTIM1 clock*/
    __HAL_RCC_LPTIM1_CONFIG(PeriphClkInit->Lptim1ClockSelection);
24103f56:	f8d7 31b4 	ldr.w	r3, [r7, #436]	@ 0x1b4
24103f5a:	f8d3 3100 	ldr.w	r3, [r3, #256]	@ 0x100
24103f5e:	4618      	mov	r0, r3
24103f60:	f7fd fe9e 	bl	24101ca0 <LL_RCC_SetLPTIMClockSource>
  }

  /*---------------------------- LPTIM2 configuration ------------------------*/
  if ((PeriphClkInit->PeriphClockSelection & RCC_PERIPHCLK_LPTIM2) == RCC_PERIPHCLK_LPTIM2)
24103f64:	f8d7 31b4 	ldr.w	r3, [r7, #436]	@ 0x1b4
24103f68:	e9d3 2300 	ldrd	r2, r3, [r3]
24103f6c:	f402 2300 	and.w	r3, r2, #524288	@ 0x80000
24103f70:	f8c7 30f8 	str.w	r3, [r7, #248]	@ 0xf8
24103f74:	2300      	movs	r3, #0
24103f76:	f8c7 30fc 	str.w	r3, [r7, #252]	@ 0xfc
24103f7a:	e9d7 013e 	ldrd	r0, r1, [r7, #248]	@ 0xf8
24103f7e:	4603      	mov	r3, r0
24103f80:	460a      	mov	r2, r1
24103f82:	4313      	orrs	r3, r2
24103f84:	d04a      	beq.n	2410401c <HAL_RCCEx_PeriphCLKConfig+0x111c>
  {
    /* Check the parameters */
    assert_param(IS_RCC_LPTIM2CLKSOURCE(PeriphClkInit->Lptim2ClockSelection));

    if (PeriphClkInit->Lptim2ClockSelection == RCC_LPTIM2CLKSOURCE_IC15)
24103f86:	f8d7 31b4 	ldr.w	r3, [r7, #436]	@ 0x1b4
24103f8a:	f8d3 2104 	ldr.w	r2, [r3, #260]	@ 0x104
24103f8e:	4b1a      	ldr	r3, [pc, #104]	@ (24103ff8 <HAL_RCCEx_PeriphCLKConfig+0x10f8>)
24103f90:	429a      	cmp	r2, r3
24103f92:	d133      	bne.n	24103ffc <HAL_RCCEx_PeriphCLKConfig+0x10fc>
      /* Check the parameters */
      assert_param(IS_RCC_ICCLKSOURCE(PeriphClkInit->ICSelection[RCC_IC15].ClockSelection));
      assert_param(IS_RCC_ICCLKDIVIDER(PeriphClkInit->ICSelection[RCC_IC15].ClockDivider));

      /* Set IC15 configuration */
      MODIFY_REG(RCC->IC15CFGR, RCC_IC15CFGR_IC15SEL | RCC_IC15CFGR_IC15INT,
24103f94:	4b0d      	ldr	r3, [pc, #52]	@ (24103fcc <HAL_RCCEx_PeriphCLKConfig+0x10cc>)
24103f96:	f8d3 30fc 	ldr.w	r3, [r3, #252]	@ 0xfc
24103f9a:	f023 5143 	bic.w	r1, r3, #817889280	@ 0x30c00000
24103f9e:	f421 117c 	bic.w	r1, r1, #4128768	@ 0x3f0000
24103fa2:	f8d7 31b4 	ldr.w	r3, [r7, #436]	@ 0x1b4
24103fa6:	6f9a      	ldr	r2, [r3, #120]	@ 0x78
24103fa8:	f8d7 31b4 	ldr.w	r3, [r7, #436]	@ 0x1b4
24103fac:	6fdb      	ldr	r3, [r3, #124]	@ 0x7c
24103fae:	3b01      	subs	r3, #1
24103fb0:	041b      	lsls	r3, r3, #16
24103fb2:	4313      	orrs	r3, r2
24103fb4:	4a05      	ldr	r2, [pc, #20]	@ (24103fcc <HAL_RCCEx_PeriphCLKConfig+0x10cc>)
24103fb6:	430b      	orrs	r3, r1
24103fb8:	f8c2 30fc 	str.w	r3, [r2, #252]	@ 0xfc
                 PeriphClkInit->ICSelection[RCC_IC15].ClockSelection | \
                 ((PeriphClkInit->ICSelection[RCC_IC15].ClockDivider - 1U) << RCC_IC15CFGR_IC15INT_Pos));

      LL_RCC_IC15_Enable();
24103fbc:	f7fe fdfe 	bl	24102bbc <LL_RCC_IC15_Enable>
24103fc0:	e025      	b.n	2410400e <HAL_RCCEx_PeriphCLKConfig+0x110e>
24103fc2:	bf00      	nop
24103fc4:	0701080c 	.word	0x0701080c
24103fc8:	07020c0c 	.word	0x07020c0c
24103fcc:	46028000 	.word	0x46028000
24103fd0:	07030c0c 	.word	0x07030c0c
24103fd4:	07010c0c 	.word	0x07010c0c
24103fd8:	0702100c 	.word	0x0702100c
24103fdc:	0703100c 	.word	0x0703100c
24103fe0:	0701100c 	.word	0x0701100c
24103fe4:	0702140c 	.word	0x0702140c
24103fe8:	0703140c 	.word	0x0703140c
24103fec:	0701140c 	.word	0x0701140c
24103ff0:	0702082c 	.word	0x0702082c
24103ff4:	0701082c 	.word	0x0701082c
24103ff8:	07020c2c 	.word	0x07020c2c
    }
    else if (PeriphClkInit->Lptim2ClockSelection == RCC_LPTIM2CLKSOURCE_CLKP)
24103ffc:	f8d7 31b4 	ldr.w	r3, [r7, #436]	@ 0x1b4
24104000:	f8d3 2104 	ldr.w	r2, [r3, #260]	@ 0x104
24104004:	4bca      	ldr	r3, [pc, #808]	@ (24104330 <HAL_RCCEx_PeriphCLKConfig+0x1430>)
24104006:	429a      	cmp	r2, r3
24104008:	d101      	bne.n	2410400e <HAL_RCCEx_PeriphCLKConfig+0x110e>
    {
      LL_RCC_CLKP_Enable();
2410400a:	f7fe ff57 	bl	24102ebc <LL_RCC_CLKP_Enable>
    {
      /* No specific enable to do on other sources */
    }

    /* Set the source of LPTIM2 clock*/
    __HAL_RCC_LPTIM2_CONFIG(PeriphClkInit->Lptim2ClockSelection);
2410400e:	f8d7 31b4 	ldr.w	r3, [r7, #436]	@ 0x1b4
24104012:	f8d3 3104 	ldr.w	r3, [r3, #260]	@ 0x104
24104016:	4618      	mov	r0, r3
24104018:	f7fd fe42 	bl	24101ca0 <LL_RCC_SetLPTIMClockSource>
  }

  /*---------------------------- LPTIM3 configuration -----------------*/
  if ((PeriphClkInit->PeriphClockSelection & RCC_PERIPHCLK_LPTIM3) == RCC_PERIPHCLK_LPTIM3)
2410401c:	f8d7 31b4 	ldr.w	r3, [r7, #436]	@ 0x1b4
24104020:	e9d3 2300 	ldrd	r2, r3, [r3]
24104024:	f402 1380 	and.w	r3, r2, #1048576	@ 0x100000
24104028:	f8c7 30f0 	str.w	r3, [r7, #240]	@ 0xf0
2410402c:	2300      	movs	r3, #0
2410402e:	f8c7 30f4 	str.w	r3, [r7, #244]	@ 0xf4
24104032:	e9d7 013c 	ldrd	r0, r1, [r7, #240]	@ 0xf0
24104036:	4603      	mov	r3, r0
24104038:	460a      	mov	r2, r1
2410403a:	4313      	orrs	r3, r2
2410403c:	d02d      	beq.n	2410409a <HAL_RCCEx_PeriphCLKConfig+0x119a>
  {
    /* Check the parameters */
    assert_param(IS_RCC_LPTIM3CLKSOURCE(PeriphClkInit->Lptim3ClockSelection));

    if (PeriphClkInit->Lptim3ClockSelection == RCC_LPTIM3CLKSOURCE_IC15)
2410403e:	f8d7 31b4 	ldr.w	r3, [r7, #436]	@ 0x1b4
24104042:	f8d3 2108 	ldr.w	r2, [r3, #264]	@ 0x108
24104046:	4bbb      	ldr	r3, [pc, #748]	@ (24104334 <HAL_RCCEx_PeriphCLKConfig+0x1434>)
24104048:	429a      	cmp	r2, r3
2410404a:	d116      	bne.n	2410407a <HAL_RCCEx_PeriphCLKConfig+0x117a>
      /* Check the parameters */
      assert_param(IS_RCC_ICCLKSOURCE(PeriphClkInit->ICSelection[RCC_IC15].ClockSelection));
      assert_param(IS_RCC_ICCLKDIVIDER(PeriphClkInit->ICSelection[RCC_IC15].ClockDivider));

      /* Set IC15 configuration */
      MODIFY_REG(RCC->IC15CFGR, RCC_IC15CFGR_IC15SEL | RCC_IC15CFGR_IC15INT,
2410404c:	4bba      	ldr	r3, [pc, #744]	@ (24104338 <HAL_RCCEx_PeriphCLKConfig+0x1438>)
2410404e:	f8d3 30fc 	ldr.w	r3, [r3, #252]	@ 0xfc
24104052:	f023 5143 	bic.w	r1, r3, #817889280	@ 0x30c00000
24104056:	f421 117c 	bic.w	r1, r1, #4128768	@ 0x3f0000
2410405a:	f8d7 31b4 	ldr.w	r3, [r7, #436]	@ 0x1b4
2410405e:	6f9a      	ldr	r2, [r3, #120]	@ 0x78
24104060:	f8d7 31b4 	ldr.w	r3, [r7, #436]	@ 0x1b4
24104064:	6fdb      	ldr	r3, [r3, #124]	@ 0x7c
24104066:	3b01      	subs	r3, #1
24104068:	041b      	lsls	r3, r3, #16
2410406a:	4313      	orrs	r3, r2
2410406c:	4ab2      	ldr	r2, [pc, #712]	@ (24104338 <HAL_RCCEx_PeriphCLKConfig+0x1438>)
2410406e:	430b      	orrs	r3, r1
24104070:	f8c2 30fc 	str.w	r3, [r2, #252]	@ 0xfc
                 PeriphClkInit->ICSelection[RCC_IC15].ClockSelection | \
                 ((PeriphClkInit->ICSelection[RCC_IC15].ClockDivider - 1U) << RCC_IC15CFGR_IC15INT_Pos));

      LL_RCC_IC15_Enable();
24104074:	f7fe fda2 	bl	24102bbc <LL_RCC_IC15_Enable>
24104078:	e008      	b.n	2410408c <HAL_RCCEx_PeriphCLKConfig+0x118c>
    }
    else if (PeriphClkInit->Lptim3ClockSelection == RCC_LPTIM3CLKSOURCE_CLKP)
2410407a:	f8d7 31b4 	ldr.w	r3, [r7, #436]	@ 0x1b4
2410407e:	f8d3 2108 	ldr.w	r2, [r3, #264]	@ 0x108
24104082:	4bae      	ldr	r3, [pc, #696]	@ (2410433c <HAL_RCCEx_PeriphCLKConfig+0x143c>)
24104084:	429a      	cmp	r2, r3
24104086:	d101      	bne.n	2410408c <HAL_RCCEx_PeriphCLKConfig+0x118c>
    {
      LL_RCC_CLKP_Enable();
24104088:	f7fe ff18 	bl	24102ebc <LL_RCC_CLKP_Enable>
    {
      /* No specific enable to do on other sources */
    }

    /* Set the source of LPTIM3 clock */
    __HAL_RCC_LPTIM3_CONFIG(PeriphClkInit->Lptim3ClockSelection);
2410408c:	f8d7 31b4 	ldr.w	r3, [r7, #436]	@ 0x1b4
24104090:	f8d3 3108 	ldr.w	r3, [r3, #264]	@ 0x108
24104094:	4618      	mov	r0, r3
24104096:	f7fd fe03 	bl	24101ca0 <LL_RCC_SetLPTIMClockSource>
  }

  /*---------------------------- LPTIM4 configuration -----------------*/
  if ((PeriphClkInit->PeriphClockSelection & RCC_PERIPHCLK_LPTIM4) == RCC_PERIPHCLK_LPTIM4)
2410409a:	f8d7 31b4 	ldr.w	r3, [r7, #436]	@ 0x1b4
2410409e:	e9d3 2300 	ldrd	r2, r3, [r3]
241040a2:	f402 1300 	and.w	r3, r2, #2097152	@ 0x200000
241040a6:	f8c7 30e8 	str.w	r3, [r7, #232]	@ 0xe8
241040aa:	2300      	movs	r3, #0
241040ac:	f8c7 30ec 	str.w	r3, [r7, #236]	@ 0xec
241040b0:	e9d7 013a 	ldrd	r0, r1, [r7, #232]	@ 0xe8
241040b4:	4603      	mov	r3, r0
241040b6:	460a      	mov	r2, r1
241040b8:	4313      	orrs	r3, r2
241040ba:	d02d      	beq.n	24104118 <HAL_RCCEx_PeriphCLKConfig+0x1218>
  {
    /* Check the parameters */
    assert_param(IS_RCC_LPTIM4CLKSOURCE(PeriphClkInit->Lptim4ClockSelection));

    if (PeriphClkInit->Lptim4ClockSelection == RCC_LPTIM4CLKSOURCE_IC15)
241040bc:	f8d7 31b4 	ldr.w	r3, [r7, #436]	@ 0x1b4
241040c0:	f8d3 210c 	ldr.w	r2, [r3, #268]	@ 0x10c
241040c4:	4b9e      	ldr	r3, [pc, #632]	@ (24104340 <HAL_RCCEx_PeriphCLKConfig+0x1440>)
241040c6:	429a      	cmp	r2, r3
241040c8:	d116      	bne.n	241040f8 <HAL_RCCEx_PeriphCLKConfig+0x11f8>
      /* Check the parameters */
      assert_param(IS_RCC_ICCLKSOURCE(PeriphClkInit->ICSelection[RCC_IC15].ClockSelection));
      assert_param(IS_RCC_ICCLKDIVIDER(PeriphClkInit->ICSelection[RCC_IC15].ClockDivider));

      /* Set IC15 configuration */
      MODIFY_REG(RCC->IC15CFGR, RCC_IC15CFGR_IC15SEL | RCC_IC15CFGR_IC15INT,
241040ca:	4b9b      	ldr	r3, [pc, #620]	@ (24104338 <HAL_RCCEx_PeriphCLKConfig+0x1438>)
241040cc:	f8d3 30fc 	ldr.w	r3, [r3, #252]	@ 0xfc
241040d0:	f023 5143 	bic.w	r1, r3, #817889280	@ 0x30c00000
241040d4:	f421 117c 	bic.w	r1, r1, #4128768	@ 0x3f0000
241040d8:	f8d7 31b4 	ldr.w	r3, [r7, #436]	@ 0x1b4
241040dc:	6f9a      	ldr	r2, [r3, #120]	@ 0x78
241040de:	f8d7 31b4 	ldr.w	r3, [r7, #436]	@ 0x1b4
241040e2:	6fdb      	ldr	r3, [r3, #124]	@ 0x7c
241040e4:	3b01      	subs	r3, #1
241040e6:	041b      	lsls	r3, r3, #16
241040e8:	4313      	orrs	r3, r2
241040ea:	4a93      	ldr	r2, [pc, #588]	@ (24104338 <HAL_RCCEx_PeriphCLKConfig+0x1438>)
241040ec:	430b      	orrs	r3, r1
241040ee:	f8c2 30fc 	str.w	r3, [r2, #252]	@ 0xfc
                 PeriphClkInit->ICSelection[RCC_IC15].ClockSelection | \
                 ((PeriphClkInit->ICSelection[RCC_IC15].ClockDivider - 1U) << RCC_IC15CFGR_IC15INT_Pos));

      LL_RCC_IC15_Enable();
241040f2:	f7fe fd63 	bl	24102bbc <LL_RCC_IC15_Enable>
241040f6:	e008      	b.n	2410410a <HAL_RCCEx_PeriphCLKConfig+0x120a>
    }
    else if (PeriphClkInit->Lptim4ClockSelection == RCC_LPTIM4CLKSOURCE_CLKP)
241040f8:	f8d7 31b4 	ldr.w	r3, [r7, #436]	@ 0x1b4
241040fc:	f8d3 210c 	ldr.w	r2, [r3, #268]	@ 0x10c
24104100:	4b90      	ldr	r3, [pc, #576]	@ (24104344 <HAL_RCCEx_PeriphCLKConfig+0x1444>)
24104102:	429a      	cmp	r2, r3
24104104:	d101      	bne.n	2410410a <HAL_RCCEx_PeriphCLKConfig+0x120a>
    {
      LL_RCC_CLKP_Enable();
24104106:	f7fe fed9 	bl	24102ebc <LL_RCC_CLKP_Enable>
    {
      /* No specific enable to do on other sources */
    }

    /* Set the source of LPTIM4 clock */
    __HAL_RCC_LPTIM4_CONFIG(PeriphClkInit->Lptim4ClockSelection);
2410410a:	f8d7 31b4 	ldr.w	r3, [r7, #436]	@ 0x1b4
2410410e:	f8d3 310c 	ldr.w	r3, [r3, #268]	@ 0x10c
24104112:	4618      	mov	r0, r3
24104114:	f7fd fdc4 	bl	24101ca0 <LL_RCC_SetLPTIMClockSource>
  }

  /*---------------------------- LPTIM5 configuration -----------------*/
  if ((PeriphClkInit->PeriphClockSelection & RCC_PERIPHCLK_LPTIM5) == RCC_PERIPHCLK_LPTIM5)
24104118:	f8d7 31b4 	ldr.w	r3, [r7, #436]	@ 0x1b4
2410411c:	e9d3 2300 	ldrd	r2, r3, [r3]
24104120:	f402 0380 	and.w	r3, r2, #4194304	@ 0x400000
24104124:	f8c7 30e0 	str.w	r3, [r7, #224]	@ 0xe0
24104128:	2300      	movs	r3, #0
2410412a:	f8c7 30e4 	str.w	r3, [r7, #228]	@ 0xe4
2410412e:	e9d7 0138 	ldrd	r0, r1, [r7, #224]	@ 0xe0
24104132:	4603      	mov	r3, r0
24104134:	460a      	mov	r2, r1
24104136:	4313      	orrs	r3, r2
24104138:	d02d      	beq.n	24104196 <HAL_RCCEx_PeriphCLKConfig+0x1296>
  {
    /* Check the parameters */
    assert_param(IS_RCC_LPTIM5CLKSOURCE(PeriphClkInit->Lptim5ClockSelection));

    if (PeriphClkInit->Lptim5ClockSelection == RCC_LPTIM5CLKSOURCE_IC15)
2410413a:	f8d7 31b4 	ldr.w	r3, [r7, #436]	@ 0x1b4
2410413e:	f8d3 2110 	ldr.w	r2, [r3, #272]	@ 0x110
24104142:	4b81      	ldr	r3, [pc, #516]	@ (24104348 <HAL_RCCEx_PeriphCLKConfig+0x1448>)
24104144:	429a      	cmp	r2, r3
24104146:	d116      	bne.n	24104176 <HAL_RCCEx_PeriphCLKConfig+0x1276>
      /* Check the parameters */
      assert_param(IS_RCC_ICCLKSOURCE(PeriphClkInit->ICSelection[RCC_IC15].ClockSelection));
      assert_param(IS_RCC_ICCLKDIVIDER(PeriphClkInit->ICSelection[RCC_IC15].ClockDivider));

      /* Set IC15 configuration */
      MODIFY_REG(RCC->IC15CFGR, RCC_IC15CFGR_IC15SEL | RCC_IC15CFGR_IC15INT,
24104148:	4b7b      	ldr	r3, [pc, #492]	@ (24104338 <HAL_RCCEx_PeriphCLKConfig+0x1438>)
2410414a:	f8d3 30fc 	ldr.w	r3, [r3, #252]	@ 0xfc
2410414e:	f023 5143 	bic.w	r1, r3, #817889280	@ 0x30c00000
24104152:	f421 117c 	bic.w	r1, r1, #4128768	@ 0x3f0000
24104156:	f8d7 31b4 	ldr.w	r3, [r7, #436]	@ 0x1b4
2410415a:	6f9a      	ldr	r2, [r3, #120]	@ 0x78
2410415c:	f8d7 31b4 	ldr.w	r3, [r7, #436]	@ 0x1b4
24104160:	6fdb      	ldr	r3, [r3, #124]	@ 0x7c
24104162:	3b01      	subs	r3, #1
24104164:	041b      	lsls	r3, r3, #16
24104166:	4313      	orrs	r3, r2
24104168:	4a73      	ldr	r2, [pc, #460]	@ (24104338 <HAL_RCCEx_PeriphCLKConfig+0x1438>)
2410416a:	430b      	orrs	r3, r1
2410416c:	f8c2 30fc 	str.w	r3, [r2, #252]	@ 0xfc
                 PeriphClkInit->ICSelection[RCC_IC15].ClockSelection | \
                 ((PeriphClkInit->ICSelection[RCC_IC15].ClockDivider - 1U) << RCC_IC15CFGR_IC15INT_Pos));

      LL_RCC_IC15_Enable();
24104170:	f7fe fd24 	bl	24102bbc <LL_RCC_IC15_Enable>
24104174:	e008      	b.n	24104188 <HAL_RCCEx_PeriphCLKConfig+0x1288>
    }
    else if (PeriphClkInit->Lptim5ClockSelection == RCC_LPTIM5CLKSOURCE_CLKP)
24104176:	f8d7 31b4 	ldr.w	r3, [r7, #436]	@ 0x1b4
2410417a:	f8d3 2110 	ldr.w	r2, [r3, #272]	@ 0x110
2410417e:	4b73      	ldr	r3, [pc, #460]	@ (2410434c <HAL_RCCEx_PeriphCLKConfig+0x144c>)
24104180:	429a      	cmp	r2, r3
24104182:	d101      	bne.n	24104188 <HAL_RCCEx_PeriphCLKConfig+0x1288>
    {
      LL_RCC_CLKP_Enable();
24104184:	f7fe fe9a 	bl	24102ebc <LL_RCC_CLKP_Enable>
    {
      /* No specific enable to do on other sources */
    }

    /* Set the source of LPTIM5 clock */
    __HAL_RCC_LPTIM5_CONFIG(PeriphClkInit->Lptim5ClockSelection);
24104188:	f8d7 31b4 	ldr.w	r3, [r7, #436]	@ 0x1b4
2410418c:	f8d3 3110 	ldr.w	r3, [r3, #272]	@ 0x110
24104190:	4618      	mov	r0, r3
24104192:	f7fd fd85 	bl	24101ca0 <LL_RCC_SetLPTIMClockSource>
  }

  /*-------------------------- LPUART1 Configuration -------------------------*/
  if ((PeriphClkInit->PeriphClockSelection & RCC_PERIPHCLK_LPUART1) == RCC_PERIPHCLK_LPUART1)
24104196:	f8d7 31b4 	ldr.w	r3, [r7, #436]	@ 0x1b4
2410419a:	e9d3 2300 	ldrd	r2, r3, [r3]
2410419e:	f402 0300 	and.w	r3, r2, #8388608	@ 0x800000
241041a2:	f8c7 30d8 	str.w	r3, [r7, #216]	@ 0xd8
241041a6:	2300      	movs	r3, #0
241041a8:	f8c7 30dc 	str.w	r3, [r7, #220]	@ 0xdc
241041ac:	e9d7 0136 	ldrd	r0, r1, [r7, #216]	@ 0xd8
241041b0:	4603      	mov	r3, r0
241041b2:	460a      	mov	r2, r1
241041b4:	4313      	orrs	r3, r2
241041b6:	d04b      	beq.n	24104250 <HAL_RCCEx_PeriphCLKConfig+0x1350>
  {
    /* Check the parameters */
    assert_param(IS_RCC_LPUART1CLKSOURCE(PeriphClkInit->Lpuart1ClockSelection));

    if (PeriphClkInit->Lpuart1ClockSelection == RCC_LPUART1CLKSOURCE_IC9)
241041b8:	f8d7 31b4 	ldr.w	r3, [r7, #436]	@ 0x1b4
241041bc:	f8d3 3114 	ldr.w	r3, [r3, #276]	@ 0x114
241041c0:	f5b3 7f00 	cmp.w	r3, #512	@ 0x200
241041c4:	d116      	bne.n	241041f4 <HAL_RCCEx_PeriphCLKConfig+0x12f4>
      /* Check the parameters */
      assert_param(IS_RCC_ICCLKSOURCE(PeriphClkInit->ICSelection[RCC_IC9].ClockSelection));
      assert_param(IS_RCC_ICCLKDIVIDER(PeriphClkInit->ICSelection[RCC_IC9].ClockDivider));

      /* Set IC9 configuration */
      MODIFY_REG(RCC->IC9CFGR, RCC_IC9CFGR_IC9SEL | RCC_IC9CFGR_IC9INT,
241041c6:	4b5c      	ldr	r3, [pc, #368]	@ (24104338 <HAL_RCCEx_PeriphCLKConfig+0x1438>)
241041c8:	f8d3 30e4 	ldr.w	r3, [r3, #228]	@ 0xe4
241041cc:	f023 5143 	bic.w	r1, r3, #817889280	@ 0x30c00000
241041d0:	f421 117c 	bic.w	r1, r1, #4128768	@ 0x3f0000
241041d4:	f8d7 31b4 	ldr.w	r3, [r7, #436]	@ 0x1b4
241041d8:	6c9a      	ldr	r2, [r3, #72]	@ 0x48
241041da:	f8d7 31b4 	ldr.w	r3, [r7, #436]	@ 0x1b4
241041de:	6cdb      	ldr	r3, [r3, #76]	@ 0x4c
241041e0:	3b01      	subs	r3, #1
241041e2:	041b      	lsls	r3, r3, #16
241041e4:	4313      	orrs	r3, r2
241041e6:	4a54      	ldr	r2, [pc, #336]	@ (24104338 <HAL_RCCEx_PeriphCLKConfig+0x1438>)
241041e8:	430b      	orrs	r3, r1
241041ea:	f8c2 30e4 	str.w	r3, [r2, #228]	@ 0xe4
                 PeriphClkInit->ICSelection[RCC_IC9].ClockSelection | \
                 ((PeriphClkInit->ICSelection[RCC_IC9].ClockDivider - 1U) << RCC_IC9CFGR_IC9INT_Pos));

      LL_RCC_IC9_Enable();
241041ee:	f7fe fba5 	bl	2410293c <LL_RCC_IC9_Enable>
241041f2:	e026      	b.n	24104242 <HAL_RCCEx_PeriphCLKConfig+0x1342>
    }
    else if (PeriphClkInit->Lpuart1ClockSelection == RCC_LPUART1CLKSOURCE_IC14)
241041f4:	f8d7 31b4 	ldr.w	r3, [r7, #436]	@ 0x1b4
241041f8:	f8d3 3114 	ldr.w	r3, [r3, #276]	@ 0x114
241041fc:	f5b3 7f40 	cmp.w	r3, #768	@ 0x300
24104200:	d116      	bne.n	24104230 <HAL_RCCEx_PeriphCLKConfig+0x1330>
      /* Check the parameters */
      assert_param(IS_RCC_ICCLKSOURCE(PeriphClkInit->ICSelection[RCC_IC14].ClockSelection));
      assert_param(IS_RCC_ICCLKDIVIDER(PeriphClkInit->ICSelection[RCC_IC14].ClockDivider));

      /* Set IC14 configuration */
      MODIFY_REG(RCC->IC14CFGR, RCC_IC14CFGR_IC14SEL | RCC_IC14CFGR_IC14INT,
24104202:	4b4d      	ldr	r3, [pc, #308]	@ (24104338 <HAL_RCCEx_PeriphCLKConfig+0x1438>)
24104204:	f8d3 30f8 	ldr.w	r3, [r3, #248]	@ 0xf8
24104208:	f023 5143 	bic.w	r1, r3, #817889280	@ 0x30c00000
2410420c:	f421 117c 	bic.w	r1, r1, #4128768	@ 0x3f0000
24104210:	f8d7 31b4 	ldr.w	r3, [r7, #436]	@ 0x1b4
24104214:	6f1a      	ldr	r2, [r3, #112]	@ 0x70
24104216:	f8d7 31b4 	ldr.w	r3, [r7, #436]	@ 0x1b4
2410421a:	6f5b      	ldr	r3, [r3, #116]	@ 0x74
2410421c:	3b01      	subs	r3, #1
2410421e:	041b      	lsls	r3, r3, #16
24104220:	4313      	orrs	r3, r2
24104222:	4a45      	ldr	r2, [pc, #276]	@ (24104338 <HAL_RCCEx_PeriphCLKConfig+0x1438>)
24104224:	430b      	orrs	r3, r1
24104226:	f8c2 30f8 	str.w	r3, [r2, #248]	@ 0xf8
                 PeriphClkInit->ICSelection[RCC_IC14].ClockSelection | \
                 ((PeriphClkInit->ICSelection[RCC_IC14].ClockDivider - 1U) << RCC_IC14CFGR_IC14INT_Pos));

      LL_RCC_IC14_Enable();
2410422a:	f7fe fc87 	bl	24102b3c <LL_RCC_IC14_Enable>
2410422e:	e008      	b.n	24104242 <HAL_RCCEx_PeriphCLKConfig+0x1342>
    }
    else if (PeriphClkInit->Lpuart1ClockSelection == RCC_LPUART1CLKSOURCE_CLKP)
24104230:	f8d7 31b4 	ldr.w	r3, [r7, #436]	@ 0x1b4
24104234:	f8d3 3114 	ldr.w	r3, [r3, #276]	@ 0x114
24104238:	f5b3 7f80 	cmp.w	r3, #256	@ 0x100
2410423c:	d101      	bne.n	24104242 <HAL_RCCEx_PeriphCLKConfig+0x1342>
    {
      LL_RCC_CLKP_Enable();
2410423e:	f7fe fe3d 	bl	24102ebc <LL_RCC_CLKP_Enable>
    {
      /* No specific enable to do on other sources */
    }

    /* Set the source of LPUART1 clock */
    __HAL_RCC_LPUART1_CONFIG(PeriphClkInit->Lpuart1ClockSelection);
24104242:	f8d7 31b4 	ldr.w	r3, [r7, #436]	@ 0x1b4
24104246:	f8d3 3114 	ldr.w	r3, [r3, #276]	@ 0x114
2410424a:	4618      	mov	r0, r3
2410424c:	f7fd fd34 	bl	24101cb8 <LL_RCC_SetLPUARTClockSource>
  }

  /*-------------------------- LTDC Configuration ----------------------------*/
  if ((PeriphClkInit->PeriphClockSelection & RCC_PERIPHCLK_LTDC) == RCC_PERIPHCLK_LTDC)
24104250:	f8d7 31b4 	ldr.w	r3, [r7, #436]	@ 0x1b4
24104254:	e9d3 2300 	ldrd	r2, r3, [r3]
24104258:	f002 7380 	and.w	r3, r2, #16777216	@ 0x1000000
2410425c:	f8c7 30d0 	str.w	r3, [r7, #208]	@ 0xd0
24104260:	2300      	movs	r3, #0
24104262:	f8c7 30d4 	str.w	r3, [r7, #212]	@ 0xd4
24104266:	e9d7 0134 	ldrd	r0, r1, [r7, #208]	@ 0xd0
2410426a:	4603      	mov	r3, r0
2410426c:	460a      	mov	r2, r1
2410426e:	4313      	orrs	r3, r2
24104270:	d02f      	beq.n	241042d2 <HAL_RCCEx_PeriphCLKConfig+0x13d2>
  {
    /* Check the parameters */
    assert_param(IS_RCC_LTDCCLKSOURCE(PeriphClkInit->LtdcClockSelection));

    if (PeriphClkInit->LtdcClockSelection == RCC_LTDCCLKSOURCE_IC16)
24104272:	f8d7 31b4 	ldr.w	r3, [r7, #436]	@ 0x1b4
24104276:	f8d3 3118 	ldr.w	r3, [r3, #280]	@ 0x118
2410427a:	f1b3 7f00 	cmp.w	r3, #33554432	@ 0x2000000
2410427e:	d118      	bne.n	241042b2 <HAL_RCCEx_PeriphCLKConfig+0x13b2>
      /* Check the parameters */
      assert_param(IS_RCC_ICCLKSOURCE(PeriphClkInit->ICSelection[RCC_IC16].ClockSelection));
      assert_param(IS_RCC_ICCLKDIVIDER(PeriphClkInit->ICSelection[RCC_IC16].ClockDivider));

      /* Set IC16 configuration */
      MODIFY_REG(RCC->IC16CFGR, RCC_IC16CFGR_IC16SEL | RCC_IC16CFGR_IC16INT,
24104280:	4b2d      	ldr	r3, [pc, #180]	@ (24104338 <HAL_RCCEx_PeriphCLKConfig+0x1438>)
24104282:	f8d3 3100 	ldr.w	r3, [r3, #256]	@ 0x100
24104286:	f023 5143 	bic.w	r1, r3, #817889280	@ 0x30c00000
2410428a:	f421 117c 	bic.w	r1, r1, #4128768	@ 0x3f0000
2410428e:	f8d7 31b4 	ldr.w	r3, [r7, #436]	@ 0x1b4
24104292:	f8d3 2080 	ldr.w	r2, [r3, #128]	@ 0x80
24104296:	f8d7 31b4 	ldr.w	r3, [r7, #436]	@ 0x1b4
2410429a:	f8d3 3084 	ldr.w	r3, [r3, #132]	@ 0x84
2410429e:	3b01      	subs	r3, #1
241042a0:	041b      	lsls	r3, r3, #16
241042a2:	4313      	orrs	r3, r2
241042a4:	4a24      	ldr	r2, [pc, #144]	@ (24104338 <HAL_RCCEx_PeriphCLKConfig+0x1438>)
241042a6:	430b      	orrs	r3, r1
241042a8:	f8c2 3100 	str.w	r3, [r2, #256]	@ 0x100
                 PeriphClkInit->ICSelection[RCC_IC16].ClockSelection | \
                 ((PeriphClkInit->ICSelection[RCC_IC16].ClockDivider - 1U) << RCC_IC16CFGR_IC16INT_Pos));

      LL_RCC_IC16_Enable();
241042ac:	f7fe fcc6 	bl	24102c3c <LL_RCC_IC16_Enable>
241042b0:	e008      	b.n	241042c4 <HAL_RCCEx_PeriphCLKConfig+0x13c4>
    }
    else if (PeriphClkInit->LtdcClockSelection == RCC_LTDCCLKSOURCE_CLKP)
241042b2:	f8d7 31b4 	ldr.w	r3, [r7, #436]	@ 0x1b4
241042b6:	f8d3 3118 	ldr.w	r3, [r3, #280]	@ 0x118
241042ba:	f1b3 7f80 	cmp.w	r3, #16777216	@ 0x1000000
241042be:	d101      	bne.n	241042c4 <HAL_RCCEx_PeriphCLKConfig+0x13c4>
    {
      LL_RCC_CLKP_Enable();
241042c0:	f7fe fdfc 	bl	24102ebc <LL_RCC_CLKP_Enable>
    {
      /* No specific enable to do on other sources */
    }

    /* Set the source of LTDC clock */
    __HAL_RCC_LTDC_CONFIG(PeriphClkInit->LtdcClockSelection);
241042c4:	f8d7 31b4 	ldr.w	r3, [r7, #436]	@ 0x1b4
241042c8:	f8d3 3118 	ldr.w	r3, [r3, #280]	@ 0x118
241042cc:	4618      	mov	r0, r3
241042ce:	f7fd fd09 	bl	24101ce4 <LL_RCC_SetLTDCClockSource>
  }

  /*---------------------------- MDF1 configuration --------------------------*/
  if ((PeriphClkInit->PeriphClockSelection & RCC_PERIPHCLK_MDF1) == RCC_PERIPHCLK_MDF1)
241042d2:	f8d7 31b4 	ldr.w	r3, [r7, #436]	@ 0x1b4
241042d6:	e9d3 2300 	ldrd	r2, r3, [r3]
241042da:	f002 7300 	and.w	r3, r2, #33554432	@ 0x2000000
241042de:	f8c7 30c8 	str.w	r3, [r7, #200]	@ 0xc8
241042e2:	2300      	movs	r3, #0
241042e4:	f8c7 30cc 	str.w	r3, [r7, #204]	@ 0xcc
241042e8:	e9d7 0132 	ldrd	r0, r1, [r7, #200]	@ 0xc8
241042ec:	4603      	mov	r3, r0
241042ee:	460a      	mov	r2, r1
241042f0:	4313      	orrs	r3, r2
241042f2:	d05b      	beq.n	241043ac <HAL_RCCEx_PeriphCLKConfig+0x14ac>
  {
    /* Check the parameters */
    assert_param(IS_RCC_MDF1CLKSOURCE(PeriphClkInit->Mdf1ClockSelection));

    if (PeriphClkInit->Mdf1ClockSelection == RCC_MDF1CLKSOURCE_IC7)
241042f4:	f8d7 31b4 	ldr.w	r3, [r7, #436]	@ 0x1b4
241042f8:	f8d3 311c 	ldr.w	r3, [r3, #284]	@ 0x11c
241042fc:	f5b3 3f00 	cmp.w	r3, #131072	@ 0x20000
24104300:	d126      	bne.n	24104350 <HAL_RCCEx_PeriphCLKConfig+0x1450>
      /* Check the parameters */
      assert_param(IS_RCC_ICCLKSOURCE(PeriphClkInit->ICSelection[RCC_IC7].ClockSelection));
      assert_param(IS_RCC_ICCLKDIVIDER(PeriphClkInit->ICSelection[RCC_IC7].ClockDivider));

      /* Set IC7 configuration */
      MODIFY_REG(RCC->IC7CFGR, RCC_IC7CFGR_IC7SEL | RCC_IC7CFGR_IC7INT,
24104302:	4b0d      	ldr	r3, [pc, #52]	@ (24104338 <HAL_RCCEx_PeriphCLKConfig+0x1438>)
24104304:	f8d3 30dc 	ldr.w	r3, [r3, #220]	@ 0xdc
24104308:	f023 5143 	bic.w	r1, r3, #817889280	@ 0x30c00000
2410430c:	f421 117c 	bic.w	r1, r1, #4128768	@ 0x3f0000
24104310:	f8d7 31b4 	ldr.w	r3, [r7, #436]	@ 0x1b4
24104314:	6b9a      	ldr	r2, [r3, #56]	@ 0x38
24104316:	f8d7 31b4 	ldr.w	r3, [r7, #436]	@ 0x1b4
2410431a:	6bdb      	ldr	r3, [r3, #60]	@ 0x3c
2410431c:	3b01      	subs	r3, #1
2410431e:	041b      	lsls	r3, r3, #16
24104320:	4313      	orrs	r3, r2
24104322:	4a05      	ldr	r2, [pc, #20]	@ (24104338 <HAL_RCCEx_PeriphCLKConfig+0x1438>)
24104324:	430b      	orrs	r3, r1
24104326:	f8c2 30dc 	str.w	r3, [r2, #220]	@ 0xdc
                 PeriphClkInit->ICSelection[RCC_IC7].ClockSelection | \
                 ((PeriphClkInit->ICSelection[RCC_IC7].ClockDivider - 1U) << RCC_IC7CFGR_IC7INT_Pos));

      LL_RCC_IC7_Enable();
2410432a:	f7fe fa87 	bl	2410283c <LL_RCC_IC7_Enable>
2410432e:	e036      	b.n	2410439e <HAL_RCCEx_PeriphCLKConfig+0x149e>
24104330:	07010c2c 	.word	0x07010c2c
24104334:	0702102c 	.word	0x0702102c
24104338:	46028000 	.word	0x46028000
2410433c:	0701102c 	.word	0x0701102c
24104340:	0702142c 	.word	0x0702142c
24104344:	0701142c 	.word	0x0701142c
24104348:	0702182c 	.word	0x0702182c
2410434c:	0701182c 	.word	0x0701182c
    }
    else if (PeriphClkInit->Mdf1ClockSelection == RCC_MDF1CLKSOURCE_IC8)
24104350:	f8d7 31b4 	ldr.w	r3, [r7, #436]	@ 0x1b4
24104354:	f8d3 311c 	ldr.w	r3, [r3, #284]	@ 0x11c
24104358:	f5b3 3f40 	cmp.w	r3, #196608	@ 0x30000
2410435c:	d116      	bne.n	2410438c <HAL_RCCEx_PeriphCLKConfig+0x148c>
      /* Check the parameters */
      assert_param(IS_RCC_ICCLKSOURCE(PeriphClkInit->ICSelection[RCC_IC8].ClockSelection));
      assert_param(IS_RCC_ICCLKDIVIDER(PeriphClkInit->ICSelection[RCC_IC8].ClockDivider));

      /* Set IC8 configuration */
      MODIFY_REG(RCC->IC8CFGR, RCC_IC8CFGR_IC8SEL | RCC_IC8CFGR_IC8INT,
2410435e:	4bb5      	ldr	r3, [pc, #724]	@ (24104634 <HAL_RCCEx_PeriphCLKConfig+0x1734>)
24104360:	f8d3 30e0 	ldr.w	r3, [r3, #224]	@ 0xe0
24104364:	f023 5143 	bic.w	r1, r3, #817889280	@ 0x30c00000
24104368:	f421 117c 	bic.w	r1, r1, #4128768	@ 0x3f0000
2410436c:	f8d7 31b4 	ldr.w	r3, [r7, #436]	@ 0x1b4
24104370:	6c1a      	ldr	r2, [r3, #64]	@ 0x40
24104372:	f8d7 31b4 	ldr.w	r3, [r7, #436]	@ 0x1b4
24104376:	6c5b      	ldr	r3, [r3, #68]	@ 0x44
24104378:	3b01      	subs	r3, #1
2410437a:	041b      	lsls	r3, r3, #16
2410437c:	4313      	orrs	r3, r2
2410437e:	4aad      	ldr	r2, [pc, #692]	@ (24104634 <HAL_RCCEx_PeriphCLKConfig+0x1734>)
24104380:	430b      	orrs	r3, r1
24104382:	f8c2 30e0 	str.w	r3, [r2, #224]	@ 0xe0
                 PeriphClkInit->ICSelection[RCC_IC8].ClockSelection | \
                 ((PeriphClkInit->ICSelection[RCC_IC8].ClockDivider - 1U) << RCC_IC8CFGR_IC8INT_Pos));

      LL_RCC_IC8_Enable();
24104386:	f7fe fa99 	bl	241028bc <LL_RCC_IC8_Enable>
2410438a:	e008      	b.n	2410439e <HAL_RCCEx_PeriphCLKConfig+0x149e>
    }
    else if (PeriphClkInit->Mdf1ClockSelection == RCC_MDF1CLKSOURCE_CLKP)
2410438c:	f8d7 31b4 	ldr.w	r3, [r7, #436]	@ 0x1b4
24104390:	f8d3 311c 	ldr.w	r3, [r3, #284]	@ 0x11c
24104394:	f5b3 3f80 	cmp.w	r3, #65536	@ 0x10000
24104398:	d101      	bne.n	2410439e <HAL_RCCEx_PeriphCLKConfig+0x149e>
    {
      LL_RCC_CLKP_Enable();
2410439a:	f7fe fd8f 	bl	24102ebc <LL_RCC_CLKP_Enable>
    {
      /* No specific enable to do on other sources */
    }

    /* Set the source of MDF1 clock*/
    __HAL_RCC_MDF1_CONFIG(PeriphClkInit->Mdf1ClockSelection);
2410439e:	f8d7 31b4 	ldr.w	r3, [r7, #436]	@ 0x1b4
241043a2:	f8d3 311c 	ldr.w	r3, [r3, #284]	@ 0x11c
241043a6:	4618      	mov	r0, r3
241043a8:	f7fd fcb2 	bl	24101d10 <LL_RCC_SetMDFClockSource>
  }

  /*---------------------------- PSSI configuration --------------------------*/
  if ((PeriphClkInit->PeriphClockSelection & RCC_PERIPHCLK_PSSI) == RCC_PERIPHCLK_PSSI)
241043ac:	f8d7 31b4 	ldr.w	r3, [r7, #436]	@ 0x1b4
241043b0:	e9d3 2300 	ldrd	r2, r3, [r3]
241043b4:	f002 6380 	and.w	r3, r2, #67108864	@ 0x4000000
241043b8:	f8c7 30c0 	str.w	r3, [r7, #192]	@ 0xc0
241043bc:	2300      	movs	r3, #0
241043be:	f8c7 30c4 	str.w	r3, [r7, #196]	@ 0xc4
241043c2:	e9d7 0130 	ldrd	r0, r1, [r7, #192]	@ 0xc0
241043c6:	4603      	mov	r3, r0
241043c8:	460a      	mov	r2, r1
241043ca:	4313      	orrs	r3, r2
241043cc:	d02d      	beq.n	2410442a <HAL_RCCEx_PeriphCLKConfig+0x152a>
  {
    /* Check the parameters */
    assert_param(IS_RCC_PSSICLKSOURCE(PeriphClkInit->PssiClockSelection));

    if (PeriphClkInit->PssiClockSelection == RCC_PSSICLKSOURCE_IC20)
241043ce:	f8d7 31b4 	ldr.w	r3, [r7, #436]	@ 0x1b4
241043d2:	f8d3 3120 	ldr.w	r3, [r3, #288]	@ 0x120
241043d6:	2b20      	cmp	r3, #32
241043d8:	d118      	bne.n	2410440c <HAL_RCCEx_PeriphCLKConfig+0x150c>
      /* Check the parameters */
      assert_param(IS_RCC_ICCLKSOURCE(PeriphClkInit->ICSelection[RCC_IC20].ClockSelection));
      assert_param(IS_RCC_ICCLKDIVIDER(PeriphClkInit->ICSelection[RCC_IC20].ClockDivider));

      /* Set IC20 configuration */
      MODIFY_REG(RCC->IC20CFGR, RCC_IC20CFGR_IC20SEL | RCC_IC20CFGR_IC20INT,
241043da:	4b96      	ldr	r3, [pc, #600]	@ (24104634 <HAL_RCCEx_PeriphCLKConfig+0x1734>)
241043dc:	f8d3 3110 	ldr.w	r3, [r3, #272]	@ 0x110
241043e0:	f023 5143 	bic.w	r1, r3, #817889280	@ 0x30c00000
241043e4:	f421 117c 	bic.w	r1, r1, #4128768	@ 0x3f0000
241043e8:	f8d7 31b4 	ldr.w	r3, [r7, #436]	@ 0x1b4
241043ec:	f8d3 20a0 	ldr.w	r2, [r3, #160]	@ 0xa0
241043f0:	f8d7 31b4 	ldr.w	r3, [r7, #436]	@ 0x1b4
241043f4:	f8d3 30a4 	ldr.w	r3, [r3, #164]	@ 0xa4
241043f8:	3b01      	subs	r3, #1
241043fa:	041b      	lsls	r3, r3, #16
241043fc:	4313      	orrs	r3, r2
241043fe:	4a8d      	ldr	r2, [pc, #564]	@ (24104634 <HAL_RCCEx_PeriphCLKConfig+0x1734>)
24104400:	430b      	orrs	r3, r1
24104402:	f8c2 3110 	str.w	r3, [r2, #272]	@ 0x110
                 PeriphClkInit->ICSelection[RCC_IC20].ClockSelection | \
                 ((PeriphClkInit->ICSelection[RCC_IC20].ClockDivider - 1U) << RCC_IC20CFGR_IC20INT_Pos));

      LL_RCC_IC20_Enable();
24104406:	f7fe fd19 	bl	24102e3c <LL_RCC_IC20_Enable>
2410440a:	e007      	b.n	2410441c <HAL_RCCEx_PeriphCLKConfig+0x151c>
    }
    else if (PeriphClkInit->PssiClockSelection == RCC_PSSICLKSOURCE_CLKP)
2410440c:	f8d7 31b4 	ldr.w	r3, [r7, #436]	@ 0x1b4
24104410:	f8d3 3120 	ldr.w	r3, [r3, #288]	@ 0x120
24104414:	2b10      	cmp	r3, #16
24104416:	d101      	bne.n	2410441c <HAL_RCCEx_PeriphCLKConfig+0x151c>
    {
      LL_RCC_CLKP_Enable();
24104418:	f7fe fd50 	bl	24102ebc <LL_RCC_CLKP_Enable>
    {
      /* No specific enable to do on other sources */
    }

    /* Set the source of PSSI clock*/
    __HAL_RCC_PSSI_CONFIG(PeriphClkInit->PssiClockSelection);
2410441c:	f8d7 31b4 	ldr.w	r3, [r7, #436]	@ 0x1b4
24104420:	f8d3 3120 	ldr.w	r3, [r3, #288]	@ 0x120
24104424:	4618      	mov	r0, r3
24104426:	f7fd fc9f 	bl	24101d68 <LL_RCC_SetPSSIClockSource>
  }

  /*---------------------------- SAI1 configuration --------------------------*/
  if ((PeriphClkInit->PeriphClockSelection & RCC_PERIPHCLK_SAI1) == RCC_PERIPHCLK_SAI1)
2410442a:	f8d7 31b4 	ldr.w	r3, [r7, #436]	@ 0x1b4
2410442e:	e9d3 2300 	ldrd	r2, r3, [r3]
24104432:	f002 5380 	and.w	r3, r2, #268435456	@ 0x10000000
24104436:	f8c7 30b8 	str.w	r3, [r7, #184]	@ 0xb8
2410443a:	2300      	movs	r3, #0
2410443c:	f8c7 30bc 	str.w	r3, [r7, #188]	@ 0xbc
24104440:	e9d7 012e 	ldrd	r0, r1, [r7, #184]	@ 0xb8
24104444:	4603      	mov	r3, r0
24104446:	460a      	mov	r2, r1
24104448:	4313      	orrs	r3, r2
2410444a:	d04b      	beq.n	241044e4 <HAL_RCCEx_PeriphCLKConfig+0x15e4>
  {
    /* Check the parameters */
    assert_param(IS_RCC_SAI1CLKSOURCE(PeriphClkInit->Sai1ClockSelection));

    if (PeriphClkInit->Sai1ClockSelection == RCC_SAI1CLKSOURCE_IC7)
2410444c:	f8d7 31b4 	ldr.w	r3, [r7, #436]	@ 0x1b4
24104450:	f8d3 2124 	ldr.w	r2, [r3, #292]	@ 0x124
24104454:	4b78      	ldr	r3, [pc, #480]	@ (24104638 <HAL_RCCEx_PeriphCLKConfig+0x1738>)
24104456:	429a      	cmp	r2, r3
24104458:	d116      	bne.n	24104488 <HAL_RCCEx_PeriphCLKConfig+0x1588>
      /* Check the parameters */
      assert_param(IS_RCC_ICCLKSOURCE(PeriphClkInit->ICSelection[RCC_IC7].ClockSelection));
      assert_param(IS_RCC_ICCLKDIVIDER(PeriphClkInit->ICSelection[RCC_IC7].ClockDivider));

      /* Set IC7 configuration */
      MODIFY_REG(RCC->IC7CFGR, RCC_IC7CFGR_IC7SEL | RCC_IC7CFGR_IC7INT,
2410445a:	4b76      	ldr	r3, [pc, #472]	@ (24104634 <HAL_RCCEx_PeriphCLKConfig+0x1734>)
2410445c:	f8d3 30dc 	ldr.w	r3, [r3, #220]	@ 0xdc
24104460:	f023 5143 	bic.w	r1, r3, #817889280	@ 0x30c00000
24104464:	f421 117c 	bic.w	r1, r1, #4128768	@ 0x3f0000
24104468:	f8d7 31b4 	ldr.w	r3, [r7, #436]	@ 0x1b4
2410446c:	6b9a      	ldr	r2, [r3, #56]	@ 0x38
2410446e:	f8d7 31b4 	ldr.w	r3, [r7, #436]	@ 0x1b4
24104472:	6bdb      	ldr	r3, [r3, #60]	@ 0x3c
24104474:	3b01      	subs	r3, #1
24104476:	041b      	lsls	r3, r3, #16
24104478:	4313      	orrs	r3, r2
2410447a:	4a6e      	ldr	r2, [pc, #440]	@ (24104634 <HAL_RCCEx_PeriphCLKConfig+0x1734>)
2410447c:	430b      	orrs	r3, r1
2410447e:	f8c2 30dc 	str.w	r3, [r2, #220]	@ 0xdc
                 PeriphClkInit->ICSelection[RCC_IC7].ClockSelection | \
                 ((PeriphClkInit->ICSelection[RCC_IC7].ClockDivider - 1U) << RCC_IC7CFGR_IC7INT_Pos));

      LL_RCC_IC7_Enable();
24104482:	f7fe f9db 	bl	2410283c <LL_RCC_IC7_Enable>
24104486:	e026      	b.n	241044d6 <HAL_RCCEx_PeriphCLKConfig+0x15d6>
    }
    else if (PeriphClkInit->Sai1ClockSelection == RCC_SAI1CLKSOURCE_IC8)
24104488:	f8d7 31b4 	ldr.w	r3, [r7, #436]	@ 0x1b4
2410448c:	f8d3 2124 	ldr.w	r2, [r3, #292]	@ 0x124
24104490:	4b6a      	ldr	r3, [pc, #424]	@ (2410463c <HAL_RCCEx_PeriphCLKConfig+0x173c>)
24104492:	429a      	cmp	r2, r3
24104494:	d116      	bne.n	241044c4 <HAL_RCCEx_PeriphCLKConfig+0x15c4>
      /* Check the parameters */
      assert_param(IS_RCC_ICCLKSOURCE(PeriphClkInit->ICSelection[RCC_IC8].ClockSelection));
      assert_param(IS_RCC_ICCLKDIVIDER(PeriphClkInit->ICSelection[RCC_IC8].ClockDivider));

      /* Set IC8 configuration */
      MODIFY_REG(RCC->IC8CFGR, RCC_IC8CFGR_IC8SEL | RCC_IC8CFGR_IC8INT,
24104496:	4b67      	ldr	r3, [pc, #412]	@ (24104634 <HAL_RCCEx_PeriphCLKConfig+0x1734>)
24104498:	f8d3 30e0 	ldr.w	r3, [r3, #224]	@ 0xe0
2410449c:	f023 5143 	bic.w	r1, r3, #817889280	@ 0x30c00000
241044a0:	f421 117c 	bic.w	r1, r1, #4128768	@ 0x3f0000
241044a4:	f8d7 31b4 	ldr.w	r3, [r7, #436]	@ 0x1b4
241044a8:	6c1a      	ldr	r2, [r3, #64]	@ 0x40
241044aa:	f8d7 31b4 	ldr.w	r3, [r7, #436]	@ 0x1b4
241044ae:	6c5b      	ldr	r3, [r3, #68]	@ 0x44
241044b0:	3b01      	subs	r3, #1
241044b2:	041b      	lsls	r3, r3, #16
241044b4:	4313      	orrs	r3, r2
241044b6:	4a5f      	ldr	r2, [pc, #380]	@ (24104634 <HAL_RCCEx_PeriphCLKConfig+0x1734>)
241044b8:	430b      	orrs	r3, r1
241044ba:	f8c2 30e0 	str.w	r3, [r2, #224]	@ 0xe0
                 PeriphClkInit->ICSelection[RCC_IC8].ClockSelection | \
                 ((PeriphClkInit->ICSelection[RCC_IC8].ClockDivider - 1U) << RCC_IC8CFGR_IC8INT_Pos));

      LL_RCC_IC8_Enable();
241044be:	f7fe f9fd 	bl	241028bc <LL_RCC_IC8_Enable>
241044c2:	e008      	b.n	241044d6 <HAL_RCCEx_PeriphCLKConfig+0x15d6>
    }
    else if (PeriphClkInit->Sai1ClockSelection == RCC_SAI1CLKSOURCE_CLKP)
241044c4:	f8d7 31b4 	ldr.w	r3, [r7, #436]	@ 0x1b4
241044c8:	f8d3 2124 	ldr.w	r2, [r3, #292]	@ 0x124
241044cc:	4b5c      	ldr	r3, [pc, #368]	@ (24104640 <HAL_RCCEx_PeriphCLKConfig+0x1740>)
241044ce:	429a      	cmp	r2, r3
241044d0:	d101      	bne.n	241044d6 <HAL_RCCEx_PeriphCLKConfig+0x15d6>
    {
      LL_RCC_CLKP_Enable();
241044d2:	f7fe fcf3 	bl	24102ebc <LL_RCC_CLKP_Enable>
    {
      /* No specific enable to do on other sources */
    }

    /* Set the source of SAI1 clock*/
    __HAL_RCC_SAI1_CONFIG(PeriphClkInit->Sai1ClockSelection);
241044d6:	f8d7 31b4 	ldr.w	r3, [r7, #436]	@ 0x1b4
241044da:	f8d3 3124 	ldr.w	r3, [r3, #292]	@ 0x124
241044de:	4618      	mov	r0, r3
241044e0:	f7fd fc58 	bl	24101d94 <LL_RCC_SetSAIClockSource>
  }

  /*---------------------------- SAI2 configuration --------------------------*/
  if ((PeriphClkInit->PeriphClockSelection & RCC_PERIPHCLK_SAI2) == RCC_PERIPHCLK_SAI2)
241044e4:	f8d7 31b4 	ldr.w	r3, [r7, #436]	@ 0x1b4
241044e8:	e9d3 2300 	ldrd	r2, r3, [r3]
241044ec:	f002 5300 	and.w	r3, r2, #536870912	@ 0x20000000
241044f0:	f8c7 30b0 	str.w	r3, [r7, #176]	@ 0xb0
241044f4:	2300      	movs	r3, #0
241044f6:	f8c7 30b4 	str.w	r3, [r7, #180]	@ 0xb4
241044fa:	e9d7 012c 	ldrd	r0, r1, [r7, #176]	@ 0xb0
241044fe:	4603      	mov	r3, r0
24104500:	460a      	mov	r2, r1
24104502:	4313      	orrs	r3, r2
24104504:	d04b      	beq.n	2410459e <HAL_RCCEx_PeriphCLKConfig+0x169e>
  {
    /* Check the parameters */
    assert_param(IS_RCC_SAI2CLKSOURCE(PeriphClkInit->Sai2ClockSelection));

    if (PeriphClkInit->Sai2ClockSelection == RCC_SAI2CLKSOURCE_IC7)
24104506:	f8d7 31b4 	ldr.w	r3, [r7, #436]	@ 0x1b4
2410450a:	f8d3 2128 	ldr.w	r2, [r3, #296]	@ 0x128
2410450e:	4b4d      	ldr	r3, [pc, #308]	@ (24104644 <HAL_RCCEx_PeriphCLKConfig+0x1744>)
24104510:	429a      	cmp	r2, r3
24104512:	d116      	bne.n	24104542 <HAL_RCCEx_PeriphCLKConfig+0x1642>
      /* Check the parameters */
      assert_param(IS_RCC_ICCLKSOURCE(PeriphClkInit->ICSelection[RCC_IC7].ClockSelection));
      assert_param(IS_RCC_ICCLKDIVIDER(PeriphClkInit->ICSelection[RCC_IC7].ClockDivider));

      /* Set IC7 configuration */
      MODIFY_REG(RCC->IC7CFGR, RCC_IC7CFGR_IC7SEL | RCC_IC7CFGR_IC7INT,
24104514:	4b47      	ldr	r3, [pc, #284]	@ (24104634 <HAL_RCCEx_PeriphCLKConfig+0x1734>)
24104516:	f8d3 30dc 	ldr.w	r3, [r3, #220]	@ 0xdc
2410451a:	f023 5143 	bic.w	r1, r3, #817889280	@ 0x30c00000
2410451e:	f421 117c 	bic.w	r1, r1, #4128768	@ 0x3f0000
24104522:	f8d7 31b4 	ldr.w	r3, [r7, #436]	@ 0x1b4
24104526:	6b9a      	ldr	r2, [r3, #56]	@ 0x38
24104528:	f8d7 31b4 	ldr.w	r3, [r7, #436]	@ 0x1b4
2410452c:	6bdb      	ldr	r3, [r3, #60]	@ 0x3c
2410452e:	3b01      	subs	r3, #1
24104530:	041b      	lsls	r3, r3, #16
24104532:	4313      	orrs	r3, r2
24104534:	4a3f      	ldr	r2, [pc, #252]	@ (24104634 <HAL_RCCEx_PeriphCLKConfig+0x1734>)
24104536:	430b      	orrs	r3, r1
24104538:	f8c2 30dc 	str.w	r3, [r2, #220]	@ 0xdc
                 PeriphClkInit->ICSelection[RCC_IC7].ClockSelection | \
                 ((PeriphClkInit->ICSelection[RCC_IC7].ClockDivider - 1U) << RCC_IC7CFGR_IC7INT_Pos));

      LL_RCC_IC7_Enable();
2410453c:	f7fe f97e 	bl	2410283c <LL_RCC_IC7_Enable>
24104540:	e026      	b.n	24104590 <HAL_RCCEx_PeriphCLKConfig+0x1690>
    }
    else if (PeriphClkInit->Sai2ClockSelection == RCC_SAI2CLKSOURCE_IC8)
24104542:	f8d7 31b4 	ldr.w	r3, [r7, #436]	@ 0x1b4
24104546:	f8d3 2128 	ldr.w	r2, [r3, #296]	@ 0x128
2410454a:	4b3f      	ldr	r3, [pc, #252]	@ (24104648 <HAL_RCCEx_PeriphCLKConfig+0x1748>)
2410454c:	429a      	cmp	r2, r3
2410454e:	d116      	bne.n	2410457e <HAL_RCCEx_PeriphCLKConfig+0x167e>
      /* Check the parameters */
      assert_param(IS_RCC_ICCLKSOURCE(PeriphClkInit->ICSelection[RCC_IC8].ClockSelection));
      assert_param(IS_RCC_ICCLKDIVIDER(PeriphClkInit->ICSelection[RCC_IC8].ClockDivider));

      /* Set IC8 configuration */
      MODIFY_REG(RCC->IC8CFGR, RCC_IC8CFGR_IC8SEL | RCC_IC8CFGR_IC8INT,
24104550:	4b38      	ldr	r3, [pc, #224]	@ (24104634 <HAL_RCCEx_PeriphCLKConfig+0x1734>)
24104552:	f8d3 30e0 	ldr.w	r3, [r3, #224]	@ 0xe0
24104556:	f023 5143 	bic.w	r1, r3, #817889280	@ 0x30c00000
2410455a:	f421 117c 	bic.w	r1, r1, #4128768	@ 0x3f0000
2410455e:	f8d7 31b4 	ldr.w	r3, [r7, #436]	@ 0x1b4
24104562:	6c1a      	ldr	r2, [r3, #64]	@ 0x40
24104564:	f8d7 31b4 	ldr.w	r3, [r7, #436]	@ 0x1b4
24104568:	6c5b      	ldr	r3, [r3, #68]	@ 0x44
2410456a:	3b01      	subs	r3, #1
2410456c:	041b      	lsls	r3, r3, #16
2410456e:	4313      	orrs	r3, r2
24104570:	4a30      	ldr	r2, [pc, #192]	@ (24104634 <HAL_RCCEx_PeriphCLKConfig+0x1734>)
24104572:	430b      	orrs	r3, r1
24104574:	f8c2 30e0 	str.w	r3, [r2, #224]	@ 0xe0
                 PeriphClkInit->ICSelection[RCC_IC8].ClockSelection | \
                 ((PeriphClkInit->ICSelection[RCC_IC8].ClockDivider - 1U) << RCC_IC8CFGR_IC8INT_Pos));

      LL_RCC_IC8_Enable();
24104578:	f7fe f9a0 	bl	241028bc <LL_RCC_IC8_Enable>
2410457c:	e008      	b.n	24104590 <HAL_RCCEx_PeriphCLKConfig+0x1690>
    }
    else if (PeriphClkInit->Sai2ClockSelection == RCC_SAI2CLKSOURCE_CLKP)
2410457e:	f8d7 31b4 	ldr.w	r3, [r7, #436]	@ 0x1b4
24104582:	f8d3 2128 	ldr.w	r2, [r3, #296]	@ 0x128
24104586:	4b31      	ldr	r3, [pc, #196]	@ (2410464c <HAL_RCCEx_PeriphCLKConfig+0x174c>)
24104588:	429a      	cmp	r2, r3
2410458a:	d101      	bne.n	24104590 <HAL_RCCEx_PeriphCLKConfig+0x1690>
    {
      LL_RCC_CLKP_Enable();
2410458c:	f7fe fc96 	bl	24102ebc <LL_RCC_CLKP_Enable>
    {
      /* No specific enable to do on other sources */
    }

    /* Set the source of SAI2 clock*/
    __HAL_RCC_SAI2_CONFIG(PeriphClkInit->Sai2ClockSelection);
24104590:	f8d7 31b4 	ldr.w	r3, [r7, #436]	@ 0x1b4
24104594:	f8d3 3128 	ldr.w	r3, [r3, #296]	@ 0x128
24104598:	4618      	mov	r0, r3
2410459a:	f7fd fbfb 	bl	24101d94 <LL_RCC_SetSAIClockSource>
  }

  /*---------------------------- SPDIFRX1 configuration -------------------------------*/
  if ((PeriphClkInit->PeriphClockSelection & RCC_PERIPHCLK_SPDIFRX1) == RCC_PERIPHCLK_SPDIFRX1)
2410459e:	f8d7 31b4 	ldr.w	r3, [r7, #436]	@ 0x1b4
241045a2:	e9d3 2300 	ldrd	r2, r3, [r3]
241045a6:	2100      	movs	r1, #0
241045a8:	f8c7 10a8 	str.w	r1, [r7, #168]	@ 0xa8
241045ac:	f003 0301 	and.w	r3, r3, #1
241045b0:	f8c7 30ac 	str.w	r3, [r7, #172]	@ 0xac
241045b4:	e9d7 012a 	ldrd	r0, r1, [r7, #168]	@ 0xa8
241045b8:	4603      	mov	r3, r0
241045ba:	460a      	mov	r2, r1
241045bc:	4313      	orrs	r3, r2
241045be:	d056      	beq.n	2410466e <HAL_RCCEx_PeriphCLKConfig+0x176e>
  {
    /* Check the parameters */
    assert_param(IS_RCC_SPDIFRX1CLKSOURCE(PeriphClkInit->Spdifrx1ClockSelection));

    if (PeriphClkInit->Spdifrx1ClockSelection == RCC_SPDIFRX1CLKSOURCE_IC7)
241045c0:	f8d7 31b4 	ldr.w	r3, [r7, #436]	@ 0x1b4
241045c4:	f8d3 314c 	ldr.w	r3, [r3, #332]	@ 0x14c
241045c8:	2b02      	cmp	r3, #2
241045ca:	d116      	bne.n	241045fa <HAL_RCCEx_PeriphCLKConfig+0x16fa>
      /* Check the parameters */
      assert_param(IS_RCC_ICCLKSOURCE(PeriphClkInit->ICSelection[RCC_IC7].ClockSelection));
      assert_param(IS_RCC_ICCLKDIVIDER(PeriphClkInit->ICSelection[RCC_IC7].ClockDivider));

      /* Set IC7 configuration */
      MODIFY_REG(RCC->IC7CFGR, RCC_IC7CFGR_IC7SEL | RCC_IC7CFGR_IC7INT,
241045cc:	4b19      	ldr	r3, [pc, #100]	@ (24104634 <HAL_RCCEx_PeriphCLKConfig+0x1734>)
241045ce:	f8d3 30dc 	ldr.w	r3, [r3, #220]	@ 0xdc
241045d2:	f023 5143 	bic.w	r1, r3, #817889280	@ 0x30c00000
241045d6:	f421 117c 	bic.w	r1, r1, #4128768	@ 0x3f0000
241045da:	f8d7 31b4 	ldr.w	r3, [r7, #436]	@ 0x1b4
241045de:	6b9a      	ldr	r2, [r3, #56]	@ 0x38
241045e0:	f8d7 31b4 	ldr.w	r3, [r7, #436]	@ 0x1b4
241045e4:	6bdb      	ldr	r3, [r3, #60]	@ 0x3c
241045e6:	3b01      	subs	r3, #1
241045e8:	041b      	lsls	r3, r3, #16
241045ea:	4313      	orrs	r3, r2
241045ec:	4a11      	ldr	r2, [pc, #68]	@ (24104634 <HAL_RCCEx_PeriphCLKConfig+0x1734>)
241045ee:	430b      	orrs	r3, r1
241045f0:	f8c2 30dc 	str.w	r3, [r2, #220]	@ 0xdc
                 PeriphClkInit->ICSelection[RCC_IC7].ClockSelection | \
                 ((PeriphClkInit->ICSelection[RCC_IC7].ClockDivider - 1U) << RCC_IC7CFGR_IC7INT_Pos));

      LL_RCC_IC7_Enable();
241045f4:	f7fe f922 	bl	2410283c <LL_RCC_IC7_Enable>
241045f8:	e032      	b.n	24104660 <HAL_RCCEx_PeriphCLKConfig+0x1760>
    }
    else if (PeriphClkInit->Spdifrx1ClockSelection == RCC_SPDIFRX1CLKSOURCE_IC8)
241045fa:	f8d7 31b4 	ldr.w	r3, [r7, #436]	@ 0x1b4
241045fe:	f8d3 314c 	ldr.w	r3, [r3, #332]	@ 0x14c
24104602:	2b03      	cmp	r3, #3
24104604:	d124      	bne.n	24104650 <HAL_RCCEx_PeriphCLKConfig+0x1750>
      /* Check the parameters */
      assert_param(IS_RCC_ICCLKSOURCE(PeriphClkInit->ICSelection[RCC_IC8].ClockSelection));
      assert_param(IS_RCC_ICCLKDIVIDER(PeriphClkInit->ICSelection[RCC_IC8].ClockDivider));

      /* Set IC8 configuration */
      MODIFY_REG(RCC->IC8CFGR, RCC_IC8CFGR_IC8SEL | RCC_IC8CFGR_IC8INT,
24104606:	4b0b      	ldr	r3, [pc, #44]	@ (24104634 <HAL_RCCEx_PeriphCLKConfig+0x1734>)
24104608:	f8d3 30e0 	ldr.w	r3, [r3, #224]	@ 0xe0
2410460c:	f023 5143 	bic.w	r1, r3, #817889280	@ 0x30c00000
24104610:	f421 117c 	bic.w	r1, r1, #4128768	@ 0x3f0000
24104614:	f8d7 31b4 	ldr.w	r3, [r7, #436]	@ 0x1b4
24104618:	6c1a      	ldr	r2, [r3, #64]	@ 0x40
2410461a:	f8d7 31b4 	ldr.w	r3, [r7, #436]	@ 0x1b4
2410461e:	6c5b      	ldr	r3, [r3, #68]	@ 0x44
24104620:	3b01      	subs	r3, #1
24104622:	041b      	lsls	r3, r3, #16
24104624:	4313      	orrs	r3, r2
24104626:	4a03      	ldr	r2, [pc, #12]	@ (24104634 <HAL_RCCEx_PeriphCLKConfig+0x1734>)
24104628:	430b      	orrs	r3, r1
2410462a:	f8c2 30e0 	str.w	r3, [r2, #224]	@ 0xe0
                 PeriphClkInit->ICSelection[RCC_IC8].ClockSelection | \
                 ((PeriphClkInit->ICSelection[RCC_IC8].ClockDivider - 1U) << RCC_IC8CFGR_IC8INT_Pos));

      LL_RCC_IC8_Enable();
2410462e:	f7fe f945 	bl	241028bc <LL_RCC_IC8_Enable>
24104632:	e015      	b.n	24104660 <HAL_RCCEx_PeriphCLKConfig+0x1760>
24104634:	46028000 	.word	0x46028000
24104638:	07021418 	.word	0x07021418
2410463c:	07031418 	.word	0x07031418
24104640:	07011418 	.word	0x07011418
24104644:	07021818 	.word	0x07021818
24104648:	07031818 	.word	0x07031818
2410464c:	07011818 	.word	0x07011818
    }
    else if (PeriphClkInit->Spdifrx1ClockSelection == RCC_SPDIFRX1CLKSOURCE_CLKP)
24104650:	f8d7 31b4 	ldr.w	r3, [r7, #436]	@ 0x1b4
24104654:	f8d3 314c 	ldr.w	r3, [r3, #332]	@ 0x14c
24104658:	2b01      	cmp	r3, #1
2410465a:	d101      	bne.n	24104660 <HAL_RCCEx_PeriphCLKConfig+0x1760>
    {
      LL_RCC_CLKP_Enable();
2410465c:	f7fe fc2e 	bl	24102ebc <LL_RCC_CLKP_Enable>
    {
      /* No specific enable to do on other sources */
    }

    /* Set the source of SPDIFRX1 clock */
    __HAL_RCC_SPDIFRX1_CONFIG(PeriphClkInit->Spdifrx1ClockSelection);
24104660:	f8d7 31b4 	ldr.w	r3, [r7, #436]	@ 0x1b4
24104664:	f8d3 314c 	ldr.w	r3, [r3, #332]	@ 0x14c
24104668:	4618      	mov	r0, r3
2410466a:	f7fd fba9 	bl	24101dc0 <LL_RCC_SetSPDIFRXClockSource>
  }

  /*---------------------------- SPI1 configuration --------------------------*/
  if ((PeriphClkInit->PeriphClockSelection & RCC_PERIPHCLK_SPI1) == RCC_PERIPHCLK_SPI1)
2410466e:	f8d7 31b4 	ldr.w	r3, [r7, #436]	@ 0x1b4
24104672:	e9d3 2300 	ldrd	r2, r3, [r3]
24104676:	2100      	movs	r1, #0
24104678:	f8c7 10a0 	str.w	r1, [r7, #160]	@ 0xa0
2410467c:	f003 0302 	and.w	r3, r3, #2
24104680:	f8c7 30a4 	str.w	r3, [r7, #164]	@ 0xa4
24104684:	e9d7 0128 	ldrd	r0, r1, [r7, #160]	@ 0xa0
24104688:	4603      	mov	r3, r0
2410468a:	460a      	mov	r2, r1
2410468c:	4313      	orrs	r3, r2
2410468e:	d04b      	beq.n	24104728 <HAL_RCCEx_PeriphCLKConfig+0x1828>
  {
    /* Check the parameters */
    assert_param(IS_RCC_SPI1CLKSOURCE(PeriphClkInit->Spi1ClockSelection));

    if (PeriphClkInit->Spi1ClockSelection == RCC_SPI1CLKSOURCE_IC8)
24104690:	f8d7 31b4 	ldr.w	r3, [r7, #436]	@ 0x1b4
24104694:	f8d3 2134 	ldr.w	r2, [r3, #308]	@ 0x134
24104698:	4bc6      	ldr	r3, [pc, #792]	@ (241049b4 <HAL_RCCEx_PeriphCLKConfig+0x1ab4>)
2410469a:	429a      	cmp	r2, r3
2410469c:	d116      	bne.n	241046cc <HAL_RCCEx_PeriphCLKConfig+0x17cc>
      /* Check the parameters */
      assert_param(IS_RCC_ICCLKSOURCE(PeriphClkInit->ICSelection[RCC_IC8].ClockSelection));
      assert_param(IS_RCC_ICCLKDIVIDER(PeriphClkInit->ICSelection[RCC_IC8].ClockDivider));

      /* Set IC8 configuration */
      MODIFY_REG(RCC->IC8CFGR, RCC_IC8CFGR_IC8SEL | RCC_IC8CFGR_IC8INT,
2410469e:	4bc6      	ldr	r3, [pc, #792]	@ (241049b8 <HAL_RCCEx_PeriphCLKConfig+0x1ab8>)
241046a0:	f8d3 30e0 	ldr.w	r3, [r3, #224]	@ 0xe0
241046a4:	f023 5143 	bic.w	r1, r3, #817889280	@ 0x30c00000
241046a8:	f421 117c 	bic.w	r1, r1, #4128768	@ 0x3f0000
241046ac:	f8d7 31b4 	ldr.w	r3, [r7, #436]	@ 0x1b4
241046b0:	6c1a      	ldr	r2, [r3, #64]	@ 0x40
241046b2:	f8d7 31b4 	ldr.w	r3, [r7, #436]	@ 0x1b4
241046b6:	6c5b      	ldr	r3, [r3, #68]	@ 0x44
241046b8:	3b01      	subs	r3, #1
241046ba:	041b      	lsls	r3, r3, #16
241046bc:	4313      	orrs	r3, r2
241046be:	4abe      	ldr	r2, [pc, #760]	@ (241049b8 <HAL_RCCEx_PeriphCLKConfig+0x1ab8>)
241046c0:	430b      	orrs	r3, r1
241046c2:	f8c2 30e0 	str.w	r3, [r2, #224]	@ 0xe0
                 PeriphClkInit->ICSelection[RCC_IC8].ClockSelection | \
                 ((PeriphClkInit->ICSelection[RCC_IC8].ClockDivider - 1U) << RCC_IC8CFGR_IC8INT_Pos));

      LL_RCC_IC8_Enable();
241046c6:	f7fe f8f9 	bl	241028bc <LL_RCC_IC8_Enable>
241046ca:	e026      	b.n	2410471a <HAL_RCCEx_PeriphCLKConfig+0x181a>
    }
    else if (PeriphClkInit->Spi1ClockSelection == RCC_SPI1CLKSOURCE_IC9)
241046cc:	f8d7 31b4 	ldr.w	r3, [r7, #436]	@ 0x1b4
241046d0:	f8d3 2134 	ldr.w	r2, [r3, #308]	@ 0x134
241046d4:	4bb9      	ldr	r3, [pc, #740]	@ (241049bc <HAL_RCCEx_PeriphCLKConfig+0x1abc>)
241046d6:	429a      	cmp	r2, r3
241046d8:	d116      	bne.n	24104708 <HAL_RCCEx_PeriphCLKConfig+0x1808>
      /* Check the parameters */
      assert_param(IS_RCC_ICCLKSOURCE(PeriphClkInit->ICSelection[RCC_IC9].ClockSelection));
      assert_param(IS_RCC_ICCLKDIVIDER(PeriphClkInit->ICSelection[RCC_IC9].ClockDivider));

      /* Set IC9 configuration */
      MODIFY_REG(RCC->IC9CFGR, RCC_IC9CFGR_IC9SEL | RCC_IC9CFGR_IC9INT,
241046da:	4bb7      	ldr	r3, [pc, #732]	@ (241049b8 <HAL_RCCEx_PeriphCLKConfig+0x1ab8>)
241046dc:	f8d3 30e4 	ldr.w	r3, [r3, #228]	@ 0xe4
241046e0:	f023 5143 	bic.w	r1, r3, #817889280	@ 0x30c00000
241046e4:	f421 117c 	bic.w	r1, r1, #4128768	@ 0x3f0000
241046e8:	f8d7 31b4 	ldr.w	r3, [r7, #436]	@ 0x1b4
241046ec:	6c9a      	ldr	r2, [r3, #72]	@ 0x48
241046ee:	f8d7 31b4 	ldr.w	r3, [r7, #436]	@ 0x1b4
241046f2:	6cdb      	ldr	r3, [r3, #76]	@ 0x4c
241046f4:	3b01      	subs	r3, #1
241046f6:	041b      	lsls	r3, r3, #16
241046f8:	4313      	orrs	r3, r2
241046fa:	4aaf      	ldr	r2, [pc, #700]	@ (241049b8 <HAL_RCCEx_PeriphCLKConfig+0x1ab8>)
241046fc:	430b      	orrs	r3, r1
241046fe:	f8c2 30e4 	str.w	r3, [r2, #228]	@ 0xe4
                 PeriphClkInit->ICSelection[RCC_IC9].ClockSelection | \
                 ((PeriphClkInit->ICSelection[RCC_IC9].ClockDivider - 1U) << RCC_IC9CFGR_IC9INT_Pos));

      LL_RCC_IC9_Enable();
24104702:	f7fe f91b 	bl	2410293c <LL_RCC_IC9_Enable>
24104706:	e008      	b.n	2410471a <HAL_RCCEx_PeriphCLKConfig+0x181a>
    }
    else if (PeriphClkInit->Spi1ClockSelection == RCC_SPI1CLKSOURCE_CLKP)
24104708:	f8d7 31b4 	ldr.w	r3, [r7, #436]	@ 0x1b4
2410470c:	f8d3 2134 	ldr.w	r2, [r3, #308]	@ 0x134
24104710:	4bab      	ldr	r3, [pc, #684]	@ (241049c0 <HAL_RCCEx_PeriphCLKConfig+0x1ac0>)
24104712:	429a      	cmp	r2, r3
24104714:	d101      	bne.n	2410471a <HAL_RCCEx_PeriphCLKConfig+0x181a>
    {
      LL_RCC_CLKP_Enable();
24104716:	f7fe fbd1 	bl	24102ebc <LL_RCC_CLKP_Enable>
    {
      /* No specific enable to do on other sources */
    }

    /* Set the source of SPI1 clock*/
    __HAL_RCC_SPI1_CONFIG(PeriphClkInit->Spi1ClockSelection);
2410471a:	f8d7 31b4 	ldr.w	r3, [r7, #436]	@ 0x1b4
2410471e:	f8d3 3134 	ldr.w	r3, [r3, #308]	@ 0x134
24104722:	4618      	mov	r0, r3
24104724:	f7fd fb62 	bl	24101dec <LL_RCC_SetSPIClockSource>
  }

  /*---------------------------- SPI2 configuration ---------------------*/
  if ((PeriphClkInit->PeriphClockSelection & RCC_PERIPHCLK_SPI2) == RCC_PERIPHCLK_SPI2)
24104728:	f8d7 31b4 	ldr.w	r3, [r7, #436]	@ 0x1b4
2410472c:	e9d3 2300 	ldrd	r2, r3, [r3]
24104730:	2100      	movs	r1, #0
24104732:	f8c7 1098 	str.w	r1, [r7, #152]	@ 0x98
24104736:	f003 0304 	and.w	r3, r3, #4
2410473a:	f8c7 309c 	str.w	r3, [r7, #156]	@ 0x9c
2410473e:	e9d7 0126 	ldrd	r0, r1, [r7, #152]	@ 0x98
24104742:	4603      	mov	r3, r0
24104744:	460a      	mov	r2, r1
24104746:	4313      	orrs	r3, r2
24104748:	d04b      	beq.n	241047e2 <HAL_RCCEx_PeriphCLKConfig+0x18e2>
  {
    /* Check the parameters */
    assert_param(IS_RCC_SPI2CLKSOURCE(PeriphClkInit->Spi2ClockSelection));

    if (PeriphClkInit->Spi2ClockSelection == RCC_SPI2CLKSOURCE_IC8)
2410474a:	f8d7 31b4 	ldr.w	r3, [r7, #436]	@ 0x1b4
2410474e:	f8d3 2138 	ldr.w	r2, [r3, #312]	@ 0x138
24104752:	4b9c      	ldr	r3, [pc, #624]	@ (241049c4 <HAL_RCCEx_PeriphCLKConfig+0x1ac4>)
24104754:	429a      	cmp	r2, r3
24104756:	d116      	bne.n	24104786 <HAL_RCCEx_PeriphCLKConfig+0x1886>
      /* Check the parameters */
      assert_param(IS_RCC_ICCLKSOURCE(PeriphClkInit->ICSelection[RCC_IC8].ClockSelection));
      assert_param(IS_RCC_ICCLKDIVIDER(PeriphClkInit->ICSelection[RCC_IC8].ClockDivider));

      /* Set IC8 configuration */
      MODIFY_REG(RCC->IC8CFGR, RCC_IC8CFGR_IC8SEL | RCC_IC8CFGR_IC8INT,
24104758:	4b97      	ldr	r3, [pc, #604]	@ (241049b8 <HAL_RCCEx_PeriphCLKConfig+0x1ab8>)
2410475a:	f8d3 30e0 	ldr.w	r3, [r3, #224]	@ 0xe0
2410475e:	f023 5143 	bic.w	r1, r3, #817889280	@ 0x30c00000
24104762:	f421 117c 	bic.w	r1, r1, #4128768	@ 0x3f0000
24104766:	f8d7 31b4 	ldr.w	r3, [r7, #436]	@ 0x1b4
2410476a:	6c1a      	ldr	r2, [r3, #64]	@ 0x40
2410476c:	f8d7 31b4 	ldr.w	r3, [r7, #436]	@ 0x1b4
24104770:	6c5b      	ldr	r3, [r3, #68]	@ 0x44
24104772:	3b01      	subs	r3, #1
24104774:	041b      	lsls	r3, r3, #16
24104776:	4313      	orrs	r3, r2
24104778:	4a8f      	ldr	r2, [pc, #572]	@ (241049b8 <HAL_RCCEx_PeriphCLKConfig+0x1ab8>)
2410477a:	430b      	orrs	r3, r1
2410477c:	f8c2 30e0 	str.w	r3, [r2, #224]	@ 0xe0
                 PeriphClkInit->ICSelection[RCC_IC8].ClockSelection | \
                 ((PeriphClkInit->ICSelection[RCC_IC8].ClockDivider - 1U) << RCC_IC8CFGR_IC8INT_Pos));

      LL_RCC_IC8_Enable();
24104780:	f7fe f89c 	bl	241028bc <LL_RCC_IC8_Enable>
24104784:	e026      	b.n	241047d4 <HAL_RCCEx_PeriphCLKConfig+0x18d4>
    }
    else if (PeriphClkInit->Spi2ClockSelection == RCC_SPI2CLKSOURCE_IC9)
24104786:	f8d7 31b4 	ldr.w	r3, [r7, #436]	@ 0x1b4
2410478a:	f8d3 2138 	ldr.w	r2, [r3, #312]	@ 0x138
2410478e:	4b8e      	ldr	r3, [pc, #568]	@ (241049c8 <HAL_RCCEx_PeriphCLKConfig+0x1ac8>)
24104790:	429a      	cmp	r2, r3
24104792:	d116      	bne.n	241047c2 <HAL_RCCEx_PeriphCLKConfig+0x18c2>
      /* Check the parameters */
      assert_param(IS_RCC_ICCLKSOURCE(PeriphClkInit->ICSelection[RCC_IC9].ClockSelection));
      assert_param(IS_RCC_ICCLKDIVIDER(PeriphClkInit->ICSelection[RCC_IC9].ClockDivider));

      /* Set IC9 configuration */
      MODIFY_REG(RCC->IC9CFGR, RCC_IC9CFGR_IC9SEL | RCC_IC9CFGR_IC9INT,
24104794:	4b88      	ldr	r3, [pc, #544]	@ (241049b8 <HAL_RCCEx_PeriphCLKConfig+0x1ab8>)
24104796:	f8d3 30e4 	ldr.w	r3, [r3, #228]	@ 0xe4
2410479a:	f023 5143 	bic.w	r1, r3, #817889280	@ 0x30c00000
2410479e:	f421 117c 	bic.w	r1, r1, #4128768	@ 0x3f0000
241047a2:	f8d7 31b4 	ldr.w	r3, [r7, #436]	@ 0x1b4
241047a6:	6c9a      	ldr	r2, [r3, #72]	@ 0x48
241047a8:	f8d7 31b4 	ldr.w	r3, [r7, #436]	@ 0x1b4
241047ac:	6cdb      	ldr	r3, [r3, #76]	@ 0x4c
241047ae:	3b01      	subs	r3, #1
241047b0:	041b      	lsls	r3, r3, #16
241047b2:	4313      	orrs	r3, r2
241047b4:	4a80      	ldr	r2, [pc, #512]	@ (241049b8 <HAL_RCCEx_PeriphCLKConfig+0x1ab8>)
241047b6:	430b      	orrs	r3, r1
241047b8:	f8c2 30e4 	str.w	r3, [r2, #228]	@ 0xe4
                 PeriphClkInit->ICSelection[RCC_IC9].ClockSelection | \
                 ((PeriphClkInit->ICSelection[RCC_IC9].ClockDivider - 1U) << RCC_IC9CFGR_IC9INT_Pos));

      LL_RCC_IC9_Enable();
241047bc:	f7fe f8be 	bl	2410293c <LL_RCC_IC9_Enable>
241047c0:	e008      	b.n	241047d4 <HAL_RCCEx_PeriphCLKConfig+0x18d4>
    }
    else if (PeriphClkInit->Spi2ClockSelection == RCC_SPI2CLKSOURCE_CLKP)
241047c2:	f8d7 31b4 	ldr.w	r3, [r7, #436]	@ 0x1b4
241047c6:	f8d3 2138 	ldr.w	r2, [r3, #312]	@ 0x138
241047ca:	4b80      	ldr	r3, [pc, #512]	@ (241049cc <HAL_RCCEx_PeriphCLKConfig+0x1acc>)
241047cc:	429a      	cmp	r2, r3
241047ce:	d101      	bne.n	241047d4 <HAL_RCCEx_PeriphCLKConfig+0x18d4>
    {
      LL_RCC_CLKP_Enable();
241047d0:	f7fe fb74 	bl	24102ebc <LL_RCC_CLKP_Enable>
    {
      /* No specific enable to do on other sources */
    }

    /* Set the source of SPI2 clock*/
    __HAL_RCC_SPI2_CONFIG(PeriphClkInit->Spi2ClockSelection);
241047d4:	f8d7 31b4 	ldr.w	r3, [r7, #436]	@ 0x1b4
241047d8:	f8d3 3138 	ldr.w	r3, [r3, #312]	@ 0x138
241047dc:	4618      	mov	r0, r3
241047de:	f7fd fb05 	bl	24101dec <LL_RCC_SetSPIClockSource>
  }

  /*---------------------------- SPI3 configuration ---------------------*/
  if ((PeriphClkInit->PeriphClockSelection & RCC_PERIPHCLK_SPI3) == RCC_PERIPHCLK_SPI3)
241047e2:	f8d7 31b4 	ldr.w	r3, [r7, #436]	@ 0x1b4
241047e6:	e9d3 2300 	ldrd	r2, r3, [r3]
241047ea:	2100      	movs	r1, #0
241047ec:	f8c7 1090 	str.w	r1, [r7, #144]	@ 0x90
241047f0:	f003 0308 	and.w	r3, r3, #8
241047f4:	f8c7 3094 	str.w	r3, [r7, #148]	@ 0x94
241047f8:	e9d7 0124 	ldrd	r0, r1, [r7, #144]	@ 0x90
241047fc:	4603      	mov	r3, r0
241047fe:	460a      	mov	r2, r1
24104800:	4313      	orrs	r3, r2
24104802:	d04b      	beq.n	2410489c <HAL_RCCEx_PeriphCLKConfig+0x199c>
  {
    /* Check the parameters */
    assert_param(IS_RCC_SPI3CLKSOURCE(PeriphClkInit->Spi3ClockSelection));

    if (PeriphClkInit->Spi3ClockSelection == RCC_SPI3CLKSOURCE_IC8)
24104804:	f8d7 31b4 	ldr.w	r3, [r7, #436]	@ 0x1b4
24104808:	f8d3 213c 	ldr.w	r2, [r3, #316]	@ 0x13c
2410480c:	4b70      	ldr	r3, [pc, #448]	@ (241049d0 <HAL_RCCEx_PeriphCLKConfig+0x1ad0>)
2410480e:	429a      	cmp	r2, r3
24104810:	d116      	bne.n	24104840 <HAL_RCCEx_PeriphCLKConfig+0x1940>
      /* Check the parameters */
      assert_param(IS_RCC_ICCLKSOURCE(PeriphClkInit->ICSelection[RCC_IC8].ClockSelection));
      assert_param(IS_RCC_ICCLKDIVIDER(PeriphClkInit->ICSelection[RCC_IC8].ClockDivider));

      /* Set IC8 configuration */
      MODIFY_REG(RCC->IC8CFGR, RCC_IC8CFGR_IC8SEL | RCC_IC8CFGR_IC8INT,
24104812:	4b69      	ldr	r3, [pc, #420]	@ (241049b8 <HAL_RCCEx_PeriphCLKConfig+0x1ab8>)
24104814:	f8d3 30e0 	ldr.w	r3, [r3, #224]	@ 0xe0
24104818:	f023 5143 	bic.w	r1, r3, #817889280	@ 0x30c00000
2410481c:	f421 117c 	bic.w	r1, r1, #4128768	@ 0x3f0000
24104820:	f8d7 31b4 	ldr.w	r3, [r7, #436]	@ 0x1b4
24104824:	6c1a      	ldr	r2, [r3, #64]	@ 0x40
24104826:	f8d7 31b4 	ldr.w	r3, [r7, #436]	@ 0x1b4
2410482a:	6c5b      	ldr	r3, [r3, #68]	@ 0x44
2410482c:	3b01      	subs	r3, #1
2410482e:	041b      	lsls	r3, r3, #16
24104830:	4313      	orrs	r3, r2
24104832:	4a61      	ldr	r2, [pc, #388]	@ (241049b8 <HAL_RCCEx_PeriphCLKConfig+0x1ab8>)
24104834:	430b      	orrs	r3, r1
24104836:	f8c2 30e0 	str.w	r3, [r2, #224]	@ 0xe0
                 PeriphClkInit->ICSelection[RCC_IC8].ClockSelection | \
                 ((PeriphClkInit->ICSelection[RCC_IC8].ClockDivider - 1U) << RCC_IC8CFGR_IC8INT_Pos));

      LL_RCC_IC8_Enable();
2410483a:	f7fe f83f 	bl	241028bc <LL_RCC_IC8_Enable>
2410483e:	e026      	b.n	2410488e <HAL_RCCEx_PeriphCLKConfig+0x198e>
    }
    else if (PeriphClkInit->Spi3ClockSelection == RCC_SPI3CLKSOURCE_IC9)
24104840:	f8d7 31b4 	ldr.w	r3, [r7, #436]	@ 0x1b4
24104844:	f8d3 213c 	ldr.w	r2, [r3, #316]	@ 0x13c
24104848:	4b62      	ldr	r3, [pc, #392]	@ (241049d4 <HAL_RCCEx_PeriphCLKConfig+0x1ad4>)
2410484a:	429a      	cmp	r2, r3
2410484c:	d116      	bne.n	2410487c <HAL_RCCEx_PeriphCLKConfig+0x197c>
      /* Check the parameters */
      assert_param(IS_RCC_ICCLKSOURCE(PeriphClkInit->ICSelection[RCC_IC9].ClockSelection));
      assert_param(IS_RCC_ICCLKDIVIDER(PeriphClkInit->ICSelection[RCC_IC9].ClockDivider));

      /* Set IC9 configuration */
      MODIFY_REG(RCC->IC9CFGR, RCC_IC9CFGR_IC9SEL | RCC_IC9CFGR_IC9INT,
2410484e:	4b5a      	ldr	r3, [pc, #360]	@ (241049b8 <HAL_RCCEx_PeriphCLKConfig+0x1ab8>)
24104850:	f8d3 30e4 	ldr.w	r3, [r3, #228]	@ 0xe4
24104854:	f023 5143 	bic.w	r1, r3, #817889280	@ 0x30c00000
24104858:	f421 117c 	bic.w	r1, r1, #4128768	@ 0x3f0000
2410485c:	f8d7 31b4 	ldr.w	r3, [r7, #436]	@ 0x1b4
24104860:	6c9a      	ldr	r2, [r3, #72]	@ 0x48
24104862:	f8d7 31b4 	ldr.w	r3, [r7, #436]	@ 0x1b4
24104866:	6cdb      	ldr	r3, [r3, #76]	@ 0x4c
24104868:	3b01      	subs	r3, #1
2410486a:	041b      	lsls	r3, r3, #16
2410486c:	4313      	orrs	r3, r2
2410486e:	4a52      	ldr	r2, [pc, #328]	@ (241049b8 <HAL_RCCEx_PeriphCLKConfig+0x1ab8>)
24104870:	430b      	orrs	r3, r1
24104872:	f8c2 30e4 	str.w	r3, [r2, #228]	@ 0xe4
                 PeriphClkInit->ICSelection[RCC_IC9].ClockSelection | \
                 ((PeriphClkInit->ICSelection[RCC_IC9].ClockDivider - 1U) << RCC_IC9CFGR_IC9INT_Pos));

      LL_RCC_IC9_Enable();
24104876:	f7fe f861 	bl	2410293c <LL_RCC_IC9_Enable>
2410487a:	e008      	b.n	2410488e <HAL_RCCEx_PeriphCLKConfig+0x198e>
    }
    else if (PeriphClkInit->Spi3ClockSelection == RCC_SPI3CLKSOURCE_CLKP)
2410487c:	f8d7 31b4 	ldr.w	r3, [r7, #436]	@ 0x1b4
24104880:	f8d3 213c 	ldr.w	r2, [r3, #316]	@ 0x13c
24104884:	4b54      	ldr	r3, [pc, #336]	@ (241049d8 <HAL_RCCEx_PeriphCLKConfig+0x1ad8>)
24104886:	429a      	cmp	r2, r3
24104888:	d101      	bne.n	2410488e <HAL_RCCEx_PeriphCLKConfig+0x198e>
    {
      LL_RCC_CLKP_Enable();
2410488a:	f7fe fb17 	bl	24102ebc <LL_RCC_CLKP_Enable>
    {
      /* No specific enable to do on other sources */
    }

    /* Set the source of SPI3 clock*/
    __HAL_RCC_SPI3_CONFIG(PeriphClkInit->Spi3ClockSelection);
2410488e:	f8d7 31b4 	ldr.w	r3, [r7, #436]	@ 0x1b4
24104892:	f8d3 313c 	ldr.w	r3, [r3, #316]	@ 0x13c
24104896:	4618      	mov	r0, r3
24104898:	f7fd faa8 	bl	24101dec <LL_RCC_SetSPIClockSource>
  }

  /*---------------------------- SPI4 configuration -------------------------------*/
  if ((PeriphClkInit->PeriphClockSelection & RCC_PERIPHCLK_SPI4) == RCC_PERIPHCLK_SPI4)
2410489c:	f8d7 31b4 	ldr.w	r3, [r7, #436]	@ 0x1b4
241048a0:	e9d3 2300 	ldrd	r2, r3, [r3]
241048a4:	2100      	movs	r1, #0
241048a6:	f8c7 1088 	str.w	r1, [r7, #136]	@ 0x88
241048aa:	f003 0310 	and.w	r3, r3, #16
241048ae:	f8c7 308c 	str.w	r3, [r7, #140]	@ 0x8c
241048b2:	e9d7 0122 	ldrd	r0, r1, [r7, #136]	@ 0x88
241048b6:	4603      	mov	r3, r0
241048b8:	460a      	mov	r2, r1
241048ba:	4313      	orrs	r3, r2
241048bc:	d04b      	beq.n	24104956 <HAL_RCCEx_PeriphCLKConfig+0x1a56>
  {
    /* Check the parameters */
    assert_param(IS_RCC_SPI4CLKSOURCE(PeriphClkInit->Spi4ClockSelection));

    if (PeriphClkInit->Spi4ClockSelection == RCC_SPI4CLKSOURCE_IC9)
241048be:	f8d7 31b4 	ldr.w	r3, [r7, #436]	@ 0x1b4
241048c2:	f8d3 2140 	ldr.w	r2, [r3, #320]	@ 0x140
241048c6:	4b45      	ldr	r3, [pc, #276]	@ (241049dc <HAL_RCCEx_PeriphCLKConfig+0x1adc>)
241048c8:	429a      	cmp	r2, r3
241048ca:	d116      	bne.n	241048fa <HAL_RCCEx_PeriphCLKConfig+0x19fa>
      /* Check the parameters */
      assert_param(IS_RCC_ICCLKSOURCE(PeriphClkInit->ICSelection[RCC_IC9].ClockSelection));
      assert_param(IS_RCC_ICCLKDIVIDER(PeriphClkInit->ICSelection[RCC_IC9].ClockDivider));

      /* Set IC9 configuration */
      MODIFY_REG(RCC->IC9CFGR, RCC_IC9CFGR_IC9SEL | RCC_IC9CFGR_IC9INT,
241048cc:	4b3a      	ldr	r3, [pc, #232]	@ (241049b8 <HAL_RCCEx_PeriphCLKConfig+0x1ab8>)
241048ce:	f8d3 30e4 	ldr.w	r3, [r3, #228]	@ 0xe4
241048d2:	f023 5143 	bic.w	r1, r3, #817889280	@ 0x30c00000
241048d6:	f421 117c 	bic.w	r1, r1, #4128768	@ 0x3f0000
241048da:	f8d7 31b4 	ldr.w	r3, [r7, #436]	@ 0x1b4
241048de:	6c9a      	ldr	r2, [r3, #72]	@ 0x48
241048e0:	f8d7 31b4 	ldr.w	r3, [r7, #436]	@ 0x1b4
241048e4:	6cdb      	ldr	r3, [r3, #76]	@ 0x4c
241048e6:	3b01      	subs	r3, #1
241048e8:	041b      	lsls	r3, r3, #16
241048ea:	4313      	orrs	r3, r2
241048ec:	4a32      	ldr	r2, [pc, #200]	@ (241049b8 <HAL_RCCEx_PeriphCLKConfig+0x1ab8>)
241048ee:	430b      	orrs	r3, r1
241048f0:	f8c2 30e4 	str.w	r3, [r2, #228]	@ 0xe4
                 PeriphClkInit->ICSelection[RCC_IC9].ClockSelection | \
                 ((PeriphClkInit->ICSelection[RCC_IC9].ClockDivider - 1U) << RCC_IC9CFGR_IC9INT_Pos));

      LL_RCC_IC9_Enable();
241048f4:	f7fe f822 	bl	2410293c <LL_RCC_IC9_Enable>
241048f8:	e026      	b.n	24104948 <HAL_RCCEx_PeriphCLKConfig+0x1a48>
    }
    else if (PeriphClkInit->Spi4ClockSelection == RCC_SPI4CLKSOURCE_IC14)
241048fa:	f8d7 31b4 	ldr.w	r3, [r7, #436]	@ 0x1b4
241048fe:	f8d3 2140 	ldr.w	r2, [r3, #320]	@ 0x140
24104902:	4b37      	ldr	r3, [pc, #220]	@ (241049e0 <HAL_RCCEx_PeriphCLKConfig+0x1ae0>)
24104904:	429a      	cmp	r2, r3
24104906:	d116      	bne.n	24104936 <HAL_RCCEx_PeriphCLKConfig+0x1a36>
      /* Check the parameters */
      assert_param(IS_RCC_ICCLKSOURCE(PeriphClkInit->ICSelection[RCC_IC14].ClockSelection));
      assert_param(IS_RCC_ICCLKDIVIDER(PeriphClkInit->ICSelection[RCC_IC14].ClockDivider));

      /* Set IC14 configuration */
      MODIFY_REG(RCC->IC14CFGR, RCC_IC14CFGR_IC14SEL | RCC_IC14CFGR_IC14INT,
24104908:	4b2b      	ldr	r3, [pc, #172]	@ (241049b8 <HAL_RCCEx_PeriphCLKConfig+0x1ab8>)
2410490a:	f8d3 30f8 	ldr.w	r3, [r3, #248]	@ 0xf8
2410490e:	f023 5143 	bic.w	r1, r3, #817889280	@ 0x30c00000
24104912:	f421 117c 	bic.w	r1, r1, #4128768	@ 0x3f0000
24104916:	f8d7 31b4 	ldr.w	r3, [r7, #436]	@ 0x1b4
2410491a:	6f1a      	ldr	r2, [r3, #112]	@ 0x70
2410491c:	f8d7 31b4 	ldr.w	r3, [r7, #436]	@ 0x1b4
24104920:	6f5b      	ldr	r3, [r3, #116]	@ 0x74
24104922:	3b01      	subs	r3, #1
24104924:	041b      	lsls	r3, r3, #16
24104926:	4313      	orrs	r3, r2
24104928:	4a23      	ldr	r2, [pc, #140]	@ (241049b8 <HAL_RCCEx_PeriphCLKConfig+0x1ab8>)
2410492a:	430b      	orrs	r3, r1
2410492c:	f8c2 30f8 	str.w	r3, [r2, #248]	@ 0xf8
                 PeriphClkInit->ICSelection[RCC_IC14].ClockSelection | \
                 ((PeriphClkInit->ICSelection[RCC_IC14].ClockDivider - 1U) << RCC_IC14CFGR_IC14INT_Pos));

      LL_RCC_IC14_Enable();
24104930:	f7fe f904 	bl	24102b3c <LL_RCC_IC14_Enable>
24104934:	e008      	b.n	24104948 <HAL_RCCEx_PeriphCLKConfig+0x1a48>
    }
    else if (PeriphClkInit->Spi4ClockSelection == RCC_SPI4CLKSOURCE_CLKP)
24104936:	f8d7 31b4 	ldr.w	r3, [r7, #436]	@ 0x1b4
2410493a:	f8d3 2140 	ldr.w	r2, [r3, #320]	@ 0x140
2410493e:	4b29      	ldr	r3, [pc, #164]	@ (241049e4 <HAL_RCCEx_PeriphCLKConfig+0x1ae4>)
24104940:	429a      	cmp	r2, r3
24104942:	d101      	bne.n	24104948 <HAL_RCCEx_PeriphCLKConfig+0x1a48>
    {
      LL_RCC_CLKP_Enable();
24104944:	f7fe faba 	bl	24102ebc <LL_RCC_CLKP_Enable>
    {
      /* No specific enable to do on other sources */
    }

    /* Set the source of SPI4 clock */
    __HAL_RCC_SPI4_CONFIG(PeriphClkInit->Spi4ClockSelection);
24104948:	f8d7 31b4 	ldr.w	r3, [r7, #436]	@ 0x1b4
2410494c:	f8d3 3140 	ldr.w	r3, [r3, #320]	@ 0x140
24104950:	4618      	mov	r0, r3
24104952:	f7fd fa4b 	bl	24101dec <LL_RCC_SetSPIClockSource>
  }

  /*---------------------------- SPI5 configuration -------------------------------*/
  if ((PeriphClkInit->PeriphClockSelection & RCC_PERIPHCLK_SPI5) == RCC_PERIPHCLK_SPI5)
24104956:	f8d7 31b4 	ldr.w	r3, [r7, #436]	@ 0x1b4
2410495a:	e9d3 2300 	ldrd	r2, r3, [r3]
2410495e:	2100      	movs	r1, #0
24104960:	f8c7 1080 	str.w	r1, [r7, #128]	@ 0x80
24104964:	f003 0320 	and.w	r3, r3, #32
24104968:	f8c7 3084 	str.w	r3, [r7, #132]	@ 0x84
2410496c:	e9d7 0120 	ldrd	r0, r1, [r7, #128]	@ 0x80
24104970:	4603      	mov	r3, r0
24104972:	460a      	mov	r2, r1
24104974:	4313      	orrs	r3, r2
24104976:	d067      	beq.n	24104a48 <HAL_RCCEx_PeriphCLKConfig+0x1b48>
  {
    /* Check the parameters */
    assert_param(IS_RCC_SPI5CLKSOURCE(PeriphClkInit->Spi5ClockSelection));

    if (PeriphClkInit->Spi5ClockSelection == RCC_SPI5CLKSOURCE_IC9)
24104978:	f8d7 31b4 	ldr.w	r3, [r7, #436]	@ 0x1b4
2410497c:	f8d3 2144 	ldr.w	r2, [r3, #324]	@ 0x144
24104980:	4b19      	ldr	r3, [pc, #100]	@ (241049e8 <HAL_RCCEx_PeriphCLKConfig+0x1ae8>)
24104982:	429a      	cmp	r2, r3
24104984:	d132      	bne.n	241049ec <HAL_RCCEx_PeriphCLKConfig+0x1aec>
      /* Check the parameters */
      assert_param(IS_RCC_ICCLKSOURCE(PeriphClkInit->ICSelection[RCC_IC9].ClockSelection));
      assert_param(IS_RCC_ICCLKDIVIDER(PeriphClkInit->ICSelection[RCC_IC9].ClockDivider));

      /* Set IC9 configuration */
      MODIFY_REG(RCC->IC9CFGR, RCC_IC9CFGR_IC9SEL | RCC_IC9CFGR_IC9INT,
24104986:	4b0c      	ldr	r3, [pc, #48]	@ (241049b8 <HAL_RCCEx_PeriphCLKConfig+0x1ab8>)
24104988:	f8d3 30e4 	ldr.w	r3, [r3, #228]	@ 0xe4
2410498c:	f023 5143 	bic.w	r1, r3, #817889280	@ 0x30c00000
24104990:	f421 117c 	bic.w	r1, r1, #4128768	@ 0x3f0000
24104994:	f8d7 31b4 	ldr.w	r3, [r7, #436]	@ 0x1b4
24104998:	6c9a      	ldr	r2, [r3, #72]	@ 0x48
2410499a:	f8d7 31b4 	ldr.w	r3, [r7, #436]	@ 0x1b4
2410499e:	6cdb      	ldr	r3, [r3, #76]	@ 0x4c
241049a0:	3b01      	subs	r3, #1
241049a2:	041b      	lsls	r3, r3, #16
241049a4:	4313      	orrs	r3, r2
241049a6:	4a04      	ldr	r2, [pc, #16]	@ (241049b8 <HAL_RCCEx_PeriphCLKConfig+0x1ab8>)
241049a8:	430b      	orrs	r3, r1
241049aa:	f8c2 30e4 	str.w	r3, [r2, #228]	@ 0xe4
                 PeriphClkInit->ICSelection[RCC_IC9].ClockSelection | \
                 ((PeriphClkInit->ICSelection[RCC_IC9].ClockDivider - 1U) << RCC_IC9CFGR_IC9INT_Pos));

      LL_RCC_IC9_Enable();
241049ae:	f7fd ffc5 	bl	2410293c <LL_RCC_IC9_Enable>
241049b2:	e042      	b.n	24104a3a <HAL_RCCEx_PeriphCLKConfig+0x1b3a>
241049b4:	07020420 	.word	0x07020420
241049b8:	46028000 	.word	0x46028000
241049bc:	07030420 	.word	0x07030420
241049c0:	07010420 	.word	0x07010420
241049c4:	07020820 	.word	0x07020820
241049c8:	07030820 	.word	0x07030820
241049cc:	07010820 	.word	0x07010820
241049d0:	07020c20 	.word	0x07020c20
241049d4:	07030c20 	.word	0x07030c20
241049d8:	07010c20 	.word	0x07010c20
241049dc:	07021020 	.word	0x07021020
241049e0:	07031020 	.word	0x07031020
241049e4:	07011020 	.word	0x07011020
241049e8:	07021420 	.word	0x07021420
    }
    else if (PeriphClkInit->Spi5ClockSelection == RCC_SPI5CLKSOURCE_IC14)
241049ec:	f8d7 31b4 	ldr.w	r3, [r7, #436]	@ 0x1b4
241049f0:	f8d3 2144 	ldr.w	r2, [r3, #324]	@ 0x144
241049f4:	4bc2      	ldr	r3, [pc, #776]	@ (24104d00 <HAL_RCCEx_PeriphCLKConfig+0x1e00>)
241049f6:	429a      	cmp	r2, r3
241049f8:	d116      	bne.n	24104a28 <HAL_RCCEx_PeriphCLKConfig+0x1b28>
      /* Check the parameters */
      assert_param(IS_RCC_ICCLKSOURCE(PeriphClkInit->ICSelection[RCC_IC14].ClockSelection));
      assert_param(IS_RCC_ICCLKDIVIDER(PeriphClkInit->ICSelection[RCC_IC14].ClockDivider));

      /* Set IC14 configuration */
      MODIFY_REG(RCC->IC14CFGR, RCC_IC14CFGR_IC14SEL | RCC_IC14CFGR_IC14INT,
241049fa:	4bc2      	ldr	r3, [pc, #776]	@ (24104d04 <HAL_RCCEx_PeriphCLKConfig+0x1e04>)
241049fc:	f8d3 30f8 	ldr.w	r3, [r3, #248]	@ 0xf8
24104a00:	f023 5143 	bic.w	r1, r3, #817889280	@ 0x30c00000
24104a04:	f421 117c 	bic.w	r1, r1, #4128768	@ 0x3f0000
24104a08:	f8d7 31b4 	ldr.w	r3, [r7, #436]	@ 0x1b4
24104a0c:	6f1a      	ldr	r2, [r3, #112]	@ 0x70
24104a0e:	f8d7 31b4 	ldr.w	r3, [r7, #436]	@ 0x1b4
24104a12:	6f5b      	ldr	r3, [r3, #116]	@ 0x74
24104a14:	3b01      	subs	r3, #1
24104a16:	041b      	lsls	r3, r3, #16
24104a18:	4313      	orrs	r3, r2
24104a1a:	4aba      	ldr	r2, [pc, #744]	@ (24104d04 <HAL_RCCEx_PeriphCLKConfig+0x1e04>)
24104a1c:	430b      	orrs	r3, r1
24104a1e:	f8c2 30f8 	str.w	r3, [r2, #248]	@ 0xf8
                 PeriphClkInit->ICSelection[RCC_IC14].ClockSelection | \
                 ((PeriphClkInit->ICSelection[RCC_IC14].ClockDivider - 1U) << RCC_IC14CFGR_IC14INT_Pos));

      LL_RCC_IC14_Enable();
24104a22:	f7fe f88b 	bl	24102b3c <LL_RCC_IC14_Enable>
24104a26:	e008      	b.n	24104a3a <HAL_RCCEx_PeriphCLKConfig+0x1b3a>
    }
    else if (PeriphClkInit->Spi5ClockSelection == RCC_SPI5CLKSOURCE_CLKP)
24104a28:	f8d7 31b4 	ldr.w	r3, [r7, #436]	@ 0x1b4
24104a2c:	f8d3 2144 	ldr.w	r2, [r3, #324]	@ 0x144
24104a30:	4bb5      	ldr	r3, [pc, #724]	@ (24104d08 <HAL_RCCEx_PeriphCLKConfig+0x1e08>)
24104a32:	429a      	cmp	r2, r3
24104a34:	d101      	bne.n	24104a3a <HAL_RCCEx_PeriphCLKConfig+0x1b3a>
    {
      LL_RCC_CLKP_Enable();
24104a36:	f7fe fa41 	bl	24102ebc <LL_RCC_CLKP_Enable>
    {
      /* No specific enable to do on other sources */
    }

    /* Set the source of SPI5 clock */
    __HAL_RCC_SPI5_CONFIG(PeriphClkInit->Spi5ClockSelection);
24104a3a:	f8d7 31b4 	ldr.w	r3, [r7, #436]	@ 0x1b4
24104a3e:	f8d3 3144 	ldr.w	r3, [r3, #324]	@ 0x144
24104a42:	4618      	mov	r0, r3
24104a44:	f7fd f9d2 	bl	24101dec <LL_RCC_SetSPIClockSource>
  }

  /*---------------------------- SPI6 configuration --------------------------*/
  if ((PeriphClkInit->PeriphClockSelection & RCC_PERIPHCLK_SPI6) == RCC_PERIPHCLK_SPI6)
24104a48:	f8d7 31b4 	ldr.w	r3, [r7, #436]	@ 0x1b4
24104a4c:	e9d3 2300 	ldrd	r2, r3, [r3]
24104a50:	2100      	movs	r1, #0
24104a52:	67b9      	str	r1, [r7, #120]	@ 0x78
24104a54:	f003 0340 	and.w	r3, r3, #64	@ 0x40
24104a58:	67fb      	str	r3, [r7, #124]	@ 0x7c
24104a5a:	e9d7 011e 	ldrd	r0, r1, [r7, #120]	@ 0x78
24104a5e:	4603      	mov	r3, r0
24104a60:	460a      	mov	r2, r1
24104a62:	4313      	orrs	r3, r2
24104a64:	d04b      	beq.n	24104afe <HAL_RCCEx_PeriphCLKConfig+0x1bfe>
  {
    /* Check the parameters */
    assert_param(IS_RCC_SPI6CLKSOURCE(PeriphClkInit->Spi6ClockSelection));

    if (PeriphClkInit->Spi6ClockSelection == RCC_SPI6CLKSOURCE_IC8)
24104a66:	f8d7 31b4 	ldr.w	r3, [r7, #436]	@ 0x1b4
24104a6a:	f8d3 2148 	ldr.w	r2, [r3, #328]	@ 0x148
24104a6e:	4ba7      	ldr	r3, [pc, #668]	@ (24104d0c <HAL_RCCEx_PeriphCLKConfig+0x1e0c>)
24104a70:	429a      	cmp	r2, r3
24104a72:	d116      	bne.n	24104aa2 <HAL_RCCEx_PeriphCLKConfig+0x1ba2>
      /* Check the parameters */
      assert_param(IS_RCC_ICCLKSOURCE(PeriphClkInit->ICSelection[RCC_IC8].ClockSelection));
      assert_param(IS_RCC_ICCLKDIVIDER(PeriphClkInit->ICSelection[RCC_IC8].ClockDivider));

      /* Set IC8 configuration */
      MODIFY_REG(RCC->IC8CFGR, RCC_IC8CFGR_IC8SEL | RCC_IC8CFGR_IC8INT,
24104a74:	4ba3      	ldr	r3, [pc, #652]	@ (24104d04 <HAL_RCCEx_PeriphCLKConfig+0x1e04>)
24104a76:	f8d3 30e0 	ldr.w	r3, [r3, #224]	@ 0xe0
24104a7a:	f023 5143 	bic.w	r1, r3, #817889280	@ 0x30c00000
24104a7e:	f421 117c 	bic.w	r1, r1, #4128768	@ 0x3f0000
24104a82:	f8d7 31b4 	ldr.w	r3, [r7, #436]	@ 0x1b4
24104a86:	6c1a      	ldr	r2, [r3, #64]	@ 0x40
24104a88:	f8d7 31b4 	ldr.w	r3, [r7, #436]	@ 0x1b4
24104a8c:	6c5b      	ldr	r3, [r3, #68]	@ 0x44
24104a8e:	3b01      	subs	r3, #1
24104a90:	041b      	lsls	r3, r3, #16
24104a92:	4313      	orrs	r3, r2
24104a94:	4a9b      	ldr	r2, [pc, #620]	@ (24104d04 <HAL_RCCEx_PeriphCLKConfig+0x1e04>)
24104a96:	430b      	orrs	r3, r1
24104a98:	f8c2 30e0 	str.w	r3, [r2, #224]	@ 0xe0
                 PeriphClkInit->ICSelection[RCC_IC8].ClockSelection | \
                 ((PeriphClkInit->ICSelection[RCC_IC8].ClockDivider - 1U) << RCC_IC8CFGR_IC8INT_Pos));

      LL_RCC_IC8_Enable();
24104a9c:	f7fd ff0e 	bl	241028bc <LL_RCC_IC8_Enable>
24104aa0:	e026      	b.n	24104af0 <HAL_RCCEx_PeriphCLKConfig+0x1bf0>
    }
    else if (PeriphClkInit->Spi6ClockSelection == RCC_SPI6CLKSOURCE_IC9)
24104aa2:	f8d7 31b4 	ldr.w	r3, [r7, #436]	@ 0x1b4
24104aa6:	f8d3 2148 	ldr.w	r2, [r3, #328]	@ 0x148
24104aaa:	4b99      	ldr	r3, [pc, #612]	@ (24104d10 <HAL_RCCEx_PeriphCLKConfig+0x1e10>)
24104aac:	429a      	cmp	r2, r3
24104aae:	d116      	bne.n	24104ade <HAL_RCCEx_PeriphCLKConfig+0x1bde>
      /* Check the parameters */
      assert_param(IS_RCC_ICCLKSOURCE(PeriphClkInit->ICSelection[RCC_IC9].ClockSelection));
      assert_param(IS_RCC_ICCLKDIVIDER(PeriphClkInit->ICSelection[RCC_IC9].ClockDivider));

      /* Set IC9 configuration */
      MODIFY_REG(RCC->IC9CFGR, RCC_IC9CFGR_IC9SEL | RCC_IC9CFGR_IC9INT,
24104ab0:	4b94      	ldr	r3, [pc, #592]	@ (24104d04 <HAL_RCCEx_PeriphCLKConfig+0x1e04>)
24104ab2:	f8d3 30e4 	ldr.w	r3, [r3, #228]	@ 0xe4
24104ab6:	f023 5143 	bic.w	r1, r3, #817889280	@ 0x30c00000
24104aba:	f421 117c 	bic.w	r1, r1, #4128768	@ 0x3f0000
24104abe:	f8d7 31b4 	ldr.w	r3, [r7, #436]	@ 0x1b4
24104ac2:	6c9a      	ldr	r2, [r3, #72]	@ 0x48
24104ac4:	f8d7 31b4 	ldr.w	r3, [r7, #436]	@ 0x1b4
24104ac8:	6cdb      	ldr	r3, [r3, #76]	@ 0x4c
24104aca:	3b01      	subs	r3, #1
24104acc:	041b      	lsls	r3, r3, #16
24104ace:	4313      	orrs	r3, r2
24104ad0:	4a8c      	ldr	r2, [pc, #560]	@ (24104d04 <HAL_RCCEx_PeriphCLKConfig+0x1e04>)
24104ad2:	430b      	orrs	r3, r1
24104ad4:	f8c2 30e4 	str.w	r3, [r2, #228]	@ 0xe4
                 PeriphClkInit->ICSelection[RCC_IC9].ClockSelection | \
                 ((PeriphClkInit->ICSelection[RCC_IC9].ClockDivider - 1U) << RCC_IC9CFGR_IC9INT_Pos));

      LL_RCC_IC9_Enable();
24104ad8:	f7fd ff30 	bl	2410293c <LL_RCC_IC9_Enable>
24104adc:	e008      	b.n	24104af0 <HAL_RCCEx_PeriphCLKConfig+0x1bf0>
    }
    else if (PeriphClkInit->Spi6ClockSelection == RCC_SPI6CLKSOURCE_CLKP)
24104ade:	f8d7 31b4 	ldr.w	r3, [r7, #436]	@ 0x1b4
24104ae2:	f8d3 2148 	ldr.w	r2, [r3, #328]	@ 0x148
24104ae6:	4b8b      	ldr	r3, [pc, #556]	@ (24104d14 <HAL_RCCEx_PeriphCLKConfig+0x1e14>)
24104ae8:	429a      	cmp	r2, r3
24104aea:	d101      	bne.n	24104af0 <HAL_RCCEx_PeriphCLKConfig+0x1bf0>
    {
      LL_RCC_CLKP_Enable();
24104aec:	f7fe f9e6 	bl	24102ebc <LL_RCC_CLKP_Enable>
    {
      /* No specific enable to do on other sources */
    }

    /* Set the source of SPI6 clock*/
    __HAL_RCC_SPI6_CONFIG(PeriphClkInit->Spi6ClockSelection);
24104af0:	f8d7 31b4 	ldr.w	r3, [r7, #436]	@ 0x1b4
24104af4:	f8d3 3148 	ldr.w	r3, [r3, #328]	@ 0x148
24104af8:	4618      	mov	r0, r3
24104afa:	f7fd f977 	bl	24101dec <LL_RCC_SetSPIClockSource>
  }

  /*-------------------------- USART1 configuration --------------------------*/
  if ((PeriphClkInit->PeriphClockSelection & RCC_PERIPHCLK_USART1) == RCC_PERIPHCLK_USART1)
24104afe:	f8d7 31b4 	ldr.w	r3, [r7, #436]	@ 0x1b4
24104b02:	e9d3 2300 	ldrd	r2, r3, [r3]
24104b06:	2100      	movs	r1, #0
24104b08:	6739      	str	r1, [r7, #112]	@ 0x70
24104b0a:	f403 7380 	and.w	r3, r3, #256	@ 0x100
24104b0e:	677b      	str	r3, [r7, #116]	@ 0x74
24104b10:	e9d7 011c 	ldrd	r0, r1, [r7, #112]	@ 0x70
24104b14:	4603      	mov	r3, r0
24104b16:	460a      	mov	r2, r1
24104b18:	4313      	orrs	r3, r2
24104b1a:	d04b      	beq.n	24104bb4 <HAL_RCCEx_PeriphCLKConfig+0x1cb4>
  {
    /* Check the parameters */
    assert_param(IS_RCC_USART1CLKSOURCE(PeriphClkInit->Usart1ClockSelection));

    if (PeriphClkInit->Usart1ClockSelection == RCC_USART1CLKSOURCE_IC9)
24104b1c:	f8d7 31b4 	ldr.w	r3, [r7, #436]	@ 0x1b4
24104b20:	f8d3 2150 	ldr.w	r2, [r3, #336]	@ 0x150
24104b24:	4b7c      	ldr	r3, [pc, #496]	@ (24104d18 <HAL_RCCEx_PeriphCLKConfig+0x1e18>)
24104b26:	429a      	cmp	r2, r3
24104b28:	d116      	bne.n	24104b58 <HAL_RCCEx_PeriphCLKConfig+0x1c58>
      /* Check the parameters */
      assert_param(IS_RCC_ICCLKSOURCE(PeriphClkInit->ICSelection[RCC_IC9].ClockSelection));
      assert_param(IS_RCC_ICCLKDIVIDER(PeriphClkInit->ICSelection[RCC_IC9].ClockDivider));

      /* Set IC9 configuration */
      MODIFY_REG(RCC->IC9CFGR, RCC_IC9CFGR_IC9SEL | RCC_IC9CFGR_IC9INT,
24104b2a:	4b76      	ldr	r3, [pc, #472]	@ (24104d04 <HAL_RCCEx_PeriphCLKConfig+0x1e04>)
24104b2c:	f8d3 30e4 	ldr.w	r3, [r3, #228]	@ 0xe4
24104b30:	f023 5143 	bic.w	r1, r3, #817889280	@ 0x30c00000
24104b34:	f421 117c 	bic.w	r1, r1, #4128768	@ 0x3f0000
24104b38:	f8d7 31b4 	ldr.w	r3, [r7, #436]	@ 0x1b4
24104b3c:	6c9a      	ldr	r2, [r3, #72]	@ 0x48
24104b3e:	f8d7 31b4 	ldr.w	r3, [r7, #436]	@ 0x1b4
24104b42:	6cdb      	ldr	r3, [r3, #76]	@ 0x4c
24104b44:	3b01      	subs	r3, #1
24104b46:	041b      	lsls	r3, r3, #16
24104b48:	4313      	orrs	r3, r2
24104b4a:	4a6e      	ldr	r2, [pc, #440]	@ (24104d04 <HAL_RCCEx_PeriphCLKConfig+0x1e04>)
24104b4c:	430b      	orrs	r3, r1
24104b4e:	f8c2 30e4 	str.w	r3, [r2, #228]	@ 0xe4
                 PeriphClkInit->ICSelection[RCC_IC9].ClockSelection | \
                 ((PeriphClkInit->ICSelection[RCC_IC9].ClockDivider - 1U) << RCC_IC9CFGR_IC9INT_Pos));

      LL_RCC_IC9_Enable();
24104b52:	f7fd fef3 	bl	2410293c <LL_RCC_IC9_Enable>
24104b56:	e026      	b.n	24104ba6 <HAL_RCCEx_PeriphCLKConfig+0x1ca6>
    }
    else if (PeriphClkInit->Usart1ClockSelection == RCC_USART1CLKSOURCE_IC14)
24104b58:	f8d7 31b4 	ldr.w	r3, [r7, #436]	@ 0x1b4
24104b5c:	f8d3 2150 	ldr.w	r2, [r3, #336]	@ 0x150
24104b60:	4b6e      	ldr	r3, [pc, #440]	@ (24104d1c <HAL_RCCEx_PeriphCLKConfig+0x1e1c>)
24104b62:	429a      	cmp	r2, r3
24104b64:	d116      	bne.n	24104b94 <HAL_RCCEx_PeriphCLKConfig+0x1c94>
      /* Check the parameters */
      assert_param(IS_RCC_ICCLKSOURCE(PeriphClkInit->ICSelection[RCC_IC14].ClockSelection));
      assert_param(IS_RCC_ICCLKDIVIDER(PeriphClkInit->ICSelection[RCC_IC14].ClockDivider));

      /* Set IC14 configuration */
      MODIFY_REG(RCC->IC14CFGR, RCC_IC14CFGR_IC14SEL | RCC_IC14CFGR_IC14INT,
24104b66:	4b67      	ldr	r3, [pc, #412]	@ (24104d04 <HAL_RCCEx_PeriphCLKConfig+0x1e04>)
24104b68:	f8d3 30f8 	ldr.w	r3, [r3, #248]	@ 0xf8
24104b6c:	f023 5143 	bic.w	r1, r3, #817889280	@ 0x30c00000
24104b70:	f421 117c 	bic.w	r1, r1, #4128768	@ 0x3f0000
24104b74:	f8d7 31b4 	ldr.w	r3, [r7, #436]	@ 0x1b4
24104b78:	6f1a      	ldr	r2, [r3, #112]	@ 0x70
24104b7a:	f8d7 31b4 	ldr.w	r3, [r7, #436]	@ 0x1b4
24104b7e:	6f5b      	ldr	r3, [r3, #116]	@ 0x74
24104b80:	3b01      	subs	r3, #1
24104b82:	041b      	lsls	r3, r3, #16
24104b84:	4313      	orrs	r3, r2
24104b86:	4a5f      	ldr	r2, [pc, #380]	@ (24104d04 <HAL_RCCEx_PeriphCLKConfig+0x1e04>)
24104b88:	430b      	orrs	r3, r1
24104b8a:	f8c2 30f8 	str.w	r3, [r2, #248]	@ 0xf8
                 PeriphClkInit->ICSelection[RCC_IC14].ClockSelection | \
                 ((PeriphClkInit->ICSelection[RCC_IC14].ClockDivider - 1U) << RCC_IC14CFGR_IC14INT_Pos));

      LL_RCC_IC14_Enable();
24104b8e:	f7fd ffd5 	bl	24102b3c <LL_RCC_IC14_Enable>
24104b92:	e008      	b.n	24104ba6 <HAL_RCCEx_PeriphCLKConfig+0x1ca6>
    }
    else if (PeriphClkInit->Usart1ClockSelection == RCC_USART1CLKSOURCE_CLKP)
24104b94:	f8d7 31b4 	ldr.w	r3, [r7, #436]	@ 0x1b4
24104b98:	f8d3 2150 	ldr.w	r2, [r3, #336]	@ 0x150
24104b9c:	4b60      	ldr	r3, [pc, #384]	@ (24104d20 <HAL_RCCEx_PeriphCLKConfig+0x1e20>)
24104b9e:	429a      	cmp	r2, r3
24104ba0:	d101      	bne.n	24104ba6 <HAL_RCCEx_PeriphCLKConfig+0x1ca6>
    {
      LL_RCC_CLKP_Enable();
24104ba2:	f7fe f98b 	bl	24102ebc <LL_RCC_CLKP_Enable>
    {
      /* No specific enable to do on other sources */
    }

    /* Set the source of USART1 clock */
    __HAL_RCC_USART1_CONFIG(PeriphClkInit->Usart1ClockSelection);
24104ba6:	f8d7 31b4 	ldr.w	r3, [r7, #436]	@ 0x1b4
24104baa:	f8d3 3150 	ldr.w	r3, [r3, #336]	@ 0x150
24104bae:	4618      	mov	r0, r3
24104bb0:	f7fd f927 	bl	24101e02 <LL_RCC_SetUSARTClockSource>
  }

  /*-------------------------- USART2 configuration --------------------------*/
  if ((PeriphClkInit->PeriphClockSelection & RCC_PERIPHCLK_USART2) == RCC_PERIPHCLK_USART2)
24104bb4:	f8d7 31b4 	ldr.w	r3, [r7, #436]	@ 0x1b4
24104bb8:	e9d3 2300 	ldrd	r2, r3, [r3]
24104bbc:	2100      	movs	r1, #0
24104bbe:	66b9      	str	r1, [r7, #104]	@ 0x68
24104bc0:	f403 7300 	and.w	r3, r3, #512	@ 0x200
24104bc4:	66fb      	str	r3, [r7, #108]	@ 0x6c
24104bc6:	e9d7 011a 	ldrd	r0, r1, [r7, #104]	@ 0x68
24104bca:	4603      	mov	r3, r0
24104bcc:	460a      	mov	r2, r1
24104bce:	4313      	orrs	r3, r2
24104bd0:	d04b      	beq.n	24104c6a <HAL_RCCEx_PeriphCLKConfig+0x1d6a>
  {
    /* Check the parameters */
    assert_param(IS_RCC_USART2CLKSOURCE(PeriphClkInit->Usart2ClockSelection));

    if (PeriphClkInit->Usart2ClockSelection == RCC_USART2CLKSOURCE_IC9)
24104bd2:	f8d7 31b4 	ldr.w	r3, [r7, #436]	@ 0x1b4
24104bd6:	f8d3 2154 	ldr.w	r2, [r3, #340]	@ 0x154
24104bda:	4b52      	ldr	r3, [pc, #328]	@ (24104d24 <HAL_RCCEx_PeriphCLKConfig+0x1e24>)
24104bdc:	429a      	cmp	r2, r3
24104bde:	d116      	bne.n	24104c0e <HAL_RCCEx_PeriphCLKConfig+0x1d0e>
      /* Check the parameters */
      assert_param(IS_RCC_ICCLKSOURCE(PeriphClkInit->ICSelection[RCC_IC9].ClockSelection));
      assert_param(IS_RCC_ICCLKDIVIDER(PeriphClkInit->ICSelection[RCC_IC9].ClockDivider));

      /* Set IC9 configuration */
      MODIFY_REG(RCC->IC9CFGR, RCC_IC9CFGR_IC9SEL | RCC_IC9CFGR_IC9INT,
24104be0:	4b48      	ldr	r3, [pc, #288]	@ (24104d04 <HAL_RCCEx_PeriphCLKConfig+0x1e04>)
24104be2:	f8d3 30e4 	ldr.w	r3, [r3, #228]	@ 0xe4
24104be6:	f023 5143 	bic.w	r1, r3, #817889280	@ 0x30c00000
24104bea:	f421 117c 	bic.w	r1, r1, #4128768	@ 0x3f0000
24104bee:	f8d7 31b4 	ldr.w	r3, [r7, #436]	@ 0x1b4
24104bf2:	6c9a      	ldr	r2, [r3, #72]	@ 0x48
24104bf4:	f8d7 31b4 	ldr.w	r3, [r7, #436]	@ 0x1b4
24104bf8:	6cdb      	ldr	r3, [r3, #76]	@ 0x4c
24104bfa:	3b01      	subs	r3, #1
24104bfc:	041b      	lsls	r3, r3, #16
24104bfe:	4313      	orrs	r3, r2
24104c00:	4a40      	ldr	r2, [pc, #256]	@ (24104d04 <HAL_RCCEx_PeriphCLKConfig+0x1e04>)
24104c02:	430b      	orrs	r3, r1
24104c04:	f8c2 30e4 	str.w	r3, [r2, #228]	@ 0xe4
                 PeriphClkInit->ICSelection[RCC_IC9].ClockSelection | \
                 ((PeriphClkInit->ICSelection[RCC_IC9].ClockDivider - 1U) << RCC_IC9CFGR_IC9INT_Pos));

      LL_RCC_IC9_Enable();
24104c08:	f7fd fe98 	bl	2410293c <LL_RCC_IC9_Enable>
24104c0c:	e026      	b.n	24104c5c <HAL_RCCEx_PeriphCLKConfig+0x1d5c>
    }
    else if (PeriphClkInit->Usart2ClockSelection == RCC_USART2CLKSOURCE_IC14)
24104c0e:	f8d7 31b4 	ldr.w	r3, [r7, #436]	@ 0x1b4
24104c12:	f8d3 2154 	ldr.w	r2, [r3, #340]	@ 0x154
24104c16:	4b44      	ldr	r3, [pc, #272]	@ (24104d28 <HAL_RCCEx_PeriphCLKConfig+0x1e28>)
24104c18:	429a      	cmp	r2, r3
24104c1a:	d116      	bne.n	24104c4a <HAL_RCCEx_PeriphCLKConfig+0x1d4a>
      /* Check the parameters */
      assert_param(IS_RCC_ICCLKSOURCE(PeriphClkInit->ICSelection[RCC_IC14].ClockSelection));
      assert_param(IS_RCC_ICCLKDIVIDER(PeriphClkInit->ICSelection[RCC_IC14].ClockDivider));

      /* Set IC14 configuration */
      MODIFY_REG(RCC->IC14CFGR, RCC_IC14CFGR_IC14SEL | RCC_IC14CFGR_IC14INT,
24104c1c:	4b39      	ldr	r3, [pc, #228]	@ (24104d04 <HAL_RCCEx_PeriphCLKConfig+0x1e04>)
24104c1e:	f8d3 30f8 	ldr.w	r3, [r3, #248]	@ 0xf8
24104c22:	f023 5143 	bic.w	r1, r3, #817889280	@ 0x30c00000
24104c26:	f421 117c 	bic.w	r1, r1, #4128768	@ 0x3f0000
24104c2a:	f8d7 31b4 	ldr.w	r3, [r7, #436]	@ 0x1b4
24104c2e:	6f1a      	ldr	r2, [r3, #112]	@ 0x70
24104c30:	f8d7 31b4 	ldr.w	r3, [r7, #436]	@ 0x1b4
24104c34:	6f5b      	ldr	r3, [r3, #116]	@ 0x74
24104c36:	3b01      	subs	r3, #1
24104c38:	041b      	lsls	r3, r3, #16
24104c3a:	4313      	orrs	r3, r2
24104c3c:	4a31      	ldr	r2, [pc, #196]	@ (24104d04 <HAL_RCCEx_PeriphCLKConfig+0x1e04>)
24104c3e:	430b      	orrs	r3, r1
24104c40:	f8c2 30f8 	str.w	r3, [r2, #248]	@ 0xf8
                 PeriphClkInit->ICSelection[RCC_IC14].ClockSelection | \
                 ((PeriphClkInit->ICSelection[RCC_IC14].ClockDivider - 1U) << RCC_IC14CFGR_IC14INT_Pos));

      LL_RCC_IC14_Enable();
24104c44:	f7fd ff7a 	bl	24102b3c <LL_RCC_IC14_Enable>
24104c48:	e008      	b.n	24104c5c <HAL_RCCEx_PeriphCLKConfig+0x1d5c>
    }
    else if (PeriphClkInit->Usart2ClockSelection == RCC_USART2CLKSOURCE_CLKP)
24104c4a:	f8d7 31b4 	ldr.w	r3, [r7, #436]	@ 0x1b4
24104c4e:	f8d3 2154 	ldr.w	r2, [r3, #340]	@ 0x154
24104c52:	4b36      	ldr	r3, [pc, #216]	@ (24104d2c <HAL_RCCEx_PeriphCLKConfig+0x1e2c>)
24104c54:	429a      	cmp	r2, r3
24104c56:	d101      	bne.n	24104c5c <HAL_RCCEx_PeriphCLKConfig+0x1d5c>
    {
      LL_RCC_CLKP_Enable();
24104c58:	f7fe f930 	bl	24102ebc <LL_RCC_CLKP_Enable>
    {
      /* No specific enable to do on other sources */
    }

    /* Set the source of USART2 clock */
    __HAL_RCC_USART2_CONFIG(PeriphClkInit->Usart2ClockSelection);
24104c5c:	f8d7 31b4 	ldr.w	r3, [r7, #436]	@ 0x1b4
24104c60:	f8d3 3154 	ldr.w	r3, [r3, #340]	@ 0x154
24104c64:	4618      	mov	r0, r3
24104c66:	f7fd f8cc 	bl	24101e02 <LL_RCC_SetUSARTClockSource>
  }

  /*-------------------------- USART3 configuration --------------------------*/
  if ((PeriphClkInit->PeriphClockSelection & RCC_PERIPHCLK_USART3) == RCC_PERIPHCLK_USART3)
24104c6a:	f8d7 31b4 	ldr.w	r3, [r7, #436]	@ 0x1b4
24104c6e:	e9d3 2300 	ldrd	r2, r3, [r3]
24104c72:	2100      	movs	r1, #0
24104c74:	6639      	str	r1, [r7, #96]	@ 0x60
24104c76:	f403 6380 	and.w	r3, r3, #1024	@ 0x400
24104c7a:	667b      	str	r3, [r7, #100]	@ 0x64
24104c7c:	e9d7 0118 	ldrd	r0, r1, [r7, #96]	@ 0x60
24104c80:	4603      	mov	r3, r0
24104c82:	460a      	mov	r2, r1
24104c84:	4313      	orrs	r3, r2
24104c86:	d067      	beq.n	24104d58 <HAL_RCCEx_PeriphCLKConfig+0x1e58>
  {
    /* Check the parameters */
    assert_param(IS_RCC_USART3CLKSOURCE(PeriphClkInit->Usart3ClockSelection));

    if (PeriphClkInit->Usart3ClockSelection == RCC_USART3CLKSOURCE_IC9)
24104c88:	f8d7 31b4 	ldr.w	r3, [r7, #436]	@ 0x1b4
24104c8c:	f8d3 2158 	ldr.w	r2, [r3, #344]	@ 0x158
24104c90:	4b27      	ldr	r3, [pc, #156]	@ (24104d30 <HAL_RCCEx_PeriphCLKConfig+0x1e30>)
24104c92:	429a      	cmp	r2, r3
24104c94:	d116      	bne.n	24104cc4 <HAL_RCCEx_PeriphCLKConfig+0x1dc4>
      /* Check the parameters */
      assert_param(IS_RCC_ICCLKSOURCE(PeriphClkInit->ICSelection[RCC_IC9].ClockSelection));
      assert_param(IS_RCC_ICCLKDIVIDER(PeriphClkInit->ICSelection[RCC_IC9].ClockDivider));

      /* Set IC9 configuration */
      MODIFY_REG(RCC->IC9CFGR, RCC_IC9CFGR_IC9SEL | RCC_IC9CFGR_IC9INT,
24104c96:	4b1b      	ldr	r3, [pc, #108]	@ (24104d04 <HAL_RCCEx_PeriphCLKConfig+0x1e04>)
24104c98:	f8d3 30e4 	ldr.w	r3, [r3, #228]	@ 0xe4
24104c9c:	f023 5143 	bic.w	r1, r3, #817889280	@ 0x30c00000
24104ca0:	f421 117c 	bic.w	r1, r1, #4128768	@ 0x3f0000
24104ca4:	f8d7 31b4 	ldr.w	r3, [r7, #436]	@ 0x1b4
24104ca8:	6c9a      	ldr	r2, [r3, #72]	@ 0x48
24104caa:	f8d7 31b4 	ldr.w	r3, [r7, #436]	@ 0x1b4
24104cae:	6cdb      	ldr	r3, [r3, #76]	@ 0x4c
24104cb0:	3b01      	subs	r3, #1
24104cb2:	041b      	lsls	r3, r3, #16
24104cb4:	4313      	orrs	r3, r2
24104cb6:	4a13      	ldr	r2, [pc, #76]	@ (24104d04 <HAL_RCCEx_PeriphCLKConfig+0x1e04>)
24104cb8:	430b      	orrs	r3, r1
24104cba:	f8c2 30e4 	str.w	r3, [r2, #228]	@ 0xe4
                 PeriphClkInit->ICSelection[RCC_IC9].ClockSelection | \
                 ((PeriphClkInit->ICSelection[RCC_IC9].ClockDivider - 1U) << RCC_IC9CFGR_IC9INT_Pos));

      LL_RCC_IC9_Enable();
24104cbe:	f7fd fe3d 	bl	2410293c <LL_RCC_IC9_Enable>
24104cc2:	e042      	b.n	24104d4a <HAL_RCCEx_PeriphCLKConfig+0x1e4a>
    }
    else if (PeriphClkInit->Usart3ClockSelection == RCC_USART3CLKSOURCE_IC14)
24104cc4:	f8d7 31b4 	ldr.w	r3, [r7, #436]	@ 0x1b4
24104cc8:	f8d3 2158 	ldr.w	r2, [r3, #344]	@ 0x158
24104ccc:	4b19      	ldr	r3, [pc, #100]	@ (24104d34 <HAL_RCCEx_PeriphCLKConfig+0x1e34>)
24104cce:	429a      	cmp	r2, r3
24104cd0:	d132      	bne.n	24104d38 <HAL_RCCEx_PeriphCLKConfig+0x1e38>
      /* Check the parameters */
      assert_param(IS_RCC_ICCLKSOURCE(PeriphClkInit->ICSelection[RCC_IC14].ClockSelection));
      assert_param(IS_RCC_ICCLKDIVIDER(PeriphClkInit->ICSelection[RCC_IC14].ClockDivider));

      /* Set IC14 configuration */
      MODIFY_REG(RCC->IC14CFGR, RCC_IC14CFGR_IC14SEL | RCC_IC14CFGR_IC14INT,
24104cd2:	4b0c      	ldr	r3, [pc, #48]	@ (24104d04 <HAL_RCCEx_PeriphCLKConfig+0x1e04>)
24104cd4:	f8d3 30f8 	ldr.w	r3, [r3, #248]	@ 0xf8
24104cd8:	f023 5143 	bic.w	r1, r3, #817889280	@ 0x30c00000
24104cdc:	f421 117c 	bic.w	r1, r1, #4128768	@ 0x3f0000
24104ce0:	f8d7 31b4 	ldr.w	r3, [r7, #436]	@ 0x1b4
24104ce4:	6f1a      	ldr	r2, [r3, #112]	@ 0x70
24104ce6:	f8d7 31b4 	ldr.w	r3, [r7, #436]	@ 0x1b4
24104cea:	6f5b      	ldr	r3, [r3, #116]	@ 0x74
24104cec:	3b01      	subs	r3, #1
24104cee:	041b      	lsls	r3, r3, #16
24104cf0:	4313      	orrs	r3, r2
24104cf2:	4a04      	ldr	r2, [pc, #16]	@ (24104d04 <HAL_RCCEx_PeriphCLKConfig+0x1e04>)
24104cf4:	430b      	orrs	r3, r1
24104cf6:	f8c2 30f8 	str.w	r3, [r2, #248]	@ 0xf8
                 PeriphClkInit->ICSelection[RCC_IC14].ClockSelection | \
                 ((PeriphClkInit->ICSelection[RCC_IC14].ClockDivider - 1U) << RCC_IC14CFGR_IC14INT_Pos));

      LL_RCC_IC14_Enable();
24104cfa:	f7fd ff1f 	bl	24102b3c <LL_RCC_IC14_Enable>
24104cfe:	e024      	b.n	24104d4a <HAL_RCCEx_PeriphCLKConfig+0x1e4a>
24104d00:	07031420 	.word	0x07031420
24104d04:	46028000 	.word	0x46028000
24104d08:	07011420 	.word	0x07011420
24104d0c:	07021820 	.word	0x07021820
24104d10:	07031820 	.word	0x07031820
24104d14:	07011820 	.word	0x07011820
24104d18:	07020030 	.word	0x07020030
24104d1c:	07030030 	.word	0x07030030
24104d20:	07010030 	.word	0x07010030
24104d24:	07020430 	.word	0x07020430
24104d28:	07030430 	.word	0x07030430
24104d2c:	07010430 	.word	0x07010430
24104d30:	07020830 	.word	0x07020830
24104d34:	07030830 	.word	0x07030830
    }
    else if (PeriphClkInit->Usart3ClockSelection == RCC_USART3CLKSOURCE_CLKP)
24104d38:	f8d7 31b4 	ldr.w	r3, [r7, #436]	@ 0x1b4
24104d3c:	f8d3 2158 	ldr.w	r2, [r3, #344]	@ 0x158
24104d40:	4bb3      	ldr	r3, [pc, #716]	@ (24105010 <HAL_RCCEx_PeriphCLKConfig+0x2110>)
24104d42:	429a      	cmp	r2, r3
24104d44:	d101      	bne.n	24104d4a <HAL_RCCEx_PeriphCLKConfig+0x1e4a>
    {
      LL_RCC_CLKP_Enable();
24104d46:	f7fe f8b9 	bl	24102ebc <LL_RCC_CLKP_Enable>
    {
      /* No specific enable to do on other sources */
    }

    /* Set the source of USART3 clock */
    __HAL_RCC_USART3_CONFIG(PeriphClkInit->Usart3ClockSelection);
24104d4a:	f8d7 31b4 	ldr.w	r3, [r7, #436]	@ 0x1b4
24104d4e:	f8d3 3158 	ldr.w	r3, [r3, #344]	@ 0x158
24104d52:	4618      	mov	r0, r3
24104d54:	f7fd f855 	bl	24101e02 <LL_RCC_SetUSARTClockSource>
  }

  /*-------------------------- UART4 configuration --------------------------*/
  if ((PeriphClkInit->PeriphClockSelection & RCC_PERIPHCLK_UART4) == RCC_PERIPHCLK_UART4)
24104d58:	f8d7 31b4 	ldr.w	r3, [r7, #436]	@ 0x1b4
24104d5c:	e9d3 2300 	ldrd	r2, r3, [r3]
24104d60:	2100      	movs	r1, #0
24104d62:	65b9      	str	r1, [r7, #88]	@ 0x58
24104d64:	f403 6300 	and.w	r3, r3, #2048	@ 0x800
24104d68:	65fb      	str	r3, [r7, #92]	@ 0x5c
24104d6a:	e9d7 0116 	ldrd	r0, r1, [r7, #88]	@ 0x58
24104d6e:	4603      	mov	r3, r0
24104d70:	460a      	mov	r2, r1
24104d72:	4313      	orrs	r3, r2
24104d74:	d04b      	beq.n	24104e0e <HAL_RCCEx_PeriphCLKConfig+0x1f0e>
  {
    /* Check the parameters */
    assert_param(IS_RCC_UART4CLKSOURCE(PeriphClkInit->Uart4ClockSelection));

    if (PeriphClkInit->Uart4ClockSelection == RCC_UART4CLKSOURCE_IC9)
24104d76:	f8d7 31b4 	ldr.w	r3, [r7, #436]	@ 0x1b4
24104d7a:	f8d3 215c 	ldr.w	r2, [r3, #348]	@ 0x15c
24104d7e:	4ba5      	ldr	r3, [pc, #660]	@ (24105014 <HAL_RCCEx_PeriphCLKConfig+0x2114>)
24104d80:	429a      	cmp	r2, r3
24104d82:	d116      	bne.n	24104db2 <HAL_RCCEx_PeriphCLKConfig+0x1eb2>
      /* Check the parameters */
      assert_param(IS_RCC_ICCLKSOURCE(PeriphClkInit->ICSelection[RCC_IC9].ClockSelection));
      assert_param(IS_RCC_ICCLKDIVIDER(PeriphClkInit->ICSelection[RCC_IC9].ClockDivider));

      /* Set IC9 configuration */
      MODIFY_REG(RCC->IC9CFGR, RCC_IC9CFGR_IC9SEL | RCC_IC9CFGR_IC9INT,
24104d84:	4ba4      	ldr	r3, [pc, #656]	@ (24105018 <HAL_RCCEx_PeriphCLKConfig+0x2118>)
24104d86:	f8d3 30e4 	ldr.w	r3, [r3, #228]	@ 0xe4
24104d8a:	f023 5143 	bic.w	r1, r3, #817889280	@ 0x30c00000
24104d8e:	f421 117c 	bic.w	r1, r1, #4128768	@ 0x3f0000
24104d92:	f8d7 31b4 	ldr.w	r3, [r7, #436]	@ 0x1b4
24104d96:	6c9a      	ldr	r2, [r3, #72]	@ 0x48
24104d98:	f8d7 31b4 	ldr.w	r3, [r7, #436]	@ 0x1b4
24104d9c:	6cdb      	ldr	r3, [r3, #76]	@ 0x4c
24104d9e:	3b01      	subs	r3, #1
24104da0:	041b      	lsls	r3, r3, #16
24104da2:	4313      	orrs	r3, r2
24104da4:	4a9c      	ldr	r2, [pc, #624]	@ (24105018 <HAL_RCCEx_PeriphCLKConfig+0x2118>)
24104da6:	430b      	orrs	r3, r1
24104da8:	f8c2 30e4 	str.w	r3, [r2, #228]	@ 0xe4
                 PeriphClkInit->ICSelection[RCC_IC9].ClockSelection | \
                 ((PeriphClkInit->ICSelection[RCC_IC9].ClockDivider - 1U) << RCC_IC9CFGR_IC9INT_Pos));

      LL_RCC_IC9_Enable();
24104dac:	f7fd fdc6 	bl	2410293c <LL_RCC_IC9_Enable>
24104db0:	e026      	b.n	24104e00 <HAL_RCCEx_PeriphCLKConfig+0x1f00>
    }
    else if (PeriphClkInit->Uart4ClockSelection == RCC_UART4CLKSOURCE_IC14)
24104db2:	f8d7 31b4 	ldr.w	r3, [r7, #436]	@ 0x1b4
24104db6:	f8d3 215c 	ldr.w	r2, [r3, #348]	@ 0x15c
24104dba:	4b98      	ldr	r3, [pc, #608]	@ (2410501c <HAL_RCCEx_PeriphCLKConfig+0x211c>)
24104dbc:	429a      	cmp	r2, r3
24104dbe:	d116      	bne.n	24104dee <HAL_RCCEx_PeriphCLKConfig+0x1eee>
      /* Check the parameters */
      assert_param(IS_RCC_ICCLKSOURCE(PeriphClkInit->ICSelection[RCC_IC14].ClockSelection));
      assert_param(IS_RCC_ICCLKDIVIDER(PeriphClkInit->ICSelection[RCC_IC14].ClockDivider));

      /* Set IC14 configuration */
      MODIFY_REG(RCC->IC14CFGR, RCC_IC14CFGR_IC14SEL | RCC_IC14CFGR_IC14INT,
24104dc0:	4b95      	ldr	r3, [pc, #596]	@ (24105018 <HAL_RCCEx_PeriphCLKConfig+0x2118>)
24104dc2:	f8d3 30f8 	ldr.w	r3, [r3, #248]	@ 0xf8
24104dc6:	f023 5143 	bic.w	r1, r3, #817889280	@ 0x30c00000
24104dca:	f421 117c 	bic.w	r1, r1, #4128768	@ 0x3f0000
24104dce:	f8d7 31b4 	ldr.w	r3, [r7, #436]	@ 0x1b4
24104dd2:	6f1a      	ldr	r2, [r3, #112]	@ 0x70
24104dd4:	f8d7 31b4 	ldr.w	r3, [r7, #436]	@ 0x1b4
24104dd8:	6f5b      	ldr	r3, [r3, #116]	@ 0x74
24104dda:	3b01      	subs	r3, #1
24104ddc:	041b      	lsls	r3, r3, #16
24104dde:	4313      	orrs	r3, r2
24104de0:	4a8d      	ldr	r2, [pc, #564]	@ (24105018 <HAL_RCCEx_PeriphCLKConfig+0x2118>)
24104de2:	430b      	orrs	r3, r1
24104de4:	f8c2 30f8 	str.w	r3, [r2, #248]	@ 0xf8
                 PeriphClkInit->ICSelection[RCC_IC14].ClockSelection | \
                 ((PeriphClkInit->ICSelection[RCC_IC14].ClockDivider - 1U) << RCC_IC14CFGR_IC14INT_Pos));

      LL_RCC_IC14_Enable();
24104de8:	f7fd fea8 	bl	24102b3c <LL_RCC_IC14_Enable>
24104dec:	e008      	b.n	24104e00 <HAL_RCCEx_PeriphCLKConfig+0x1f00>
    }
    else if (PeriphClkInit->Uart4ClockSelection == RCC_UART4CLKSOURCE_CLKP)
24104dee:	f8d7 31b4 	ldr.w	r3, [r7, #436]	@ 0x1b4
24104df2:	f8d3 215c 	ldr.w	r2, [r3, #348]	@ 0x15c
24104df6:	4b8a      	ldr	r3, [pc, #552]	@ (24105020 <HAL_RCCEx_PeriphCLKConfig+0x2120>)
24104df8:	429a      	cmp	r2, r3
24104dfa:	d101      	bne.n	24104e00 <HAL_RCCEx_PeriphCLKConfig+0x1f00>
    {
      LL_RCC_CLKP_Enable();
24104dfc:	f7fe f85e 	bl	24102ebc <LL_RCC_CLKP_Enable>
    {
      /* No specific enable to do on other sources */
    }

    /* Set the source of UART4 clock */
    __HAL_RCC_UART4_CONFIG(PeriphClkInit->Uart4ClockSelection);
24104e00:	f8d7 31b4 	ldr.w	r3, [r7, #436]	@ 0x1b4
24104e04:	f8d3 315c 	ldr.w	r3, [r3, #348]	@ 0x15c
24104e08:	4618      	mov	r0, r3
24104e0a:	f7fc fffa 	bl	24101e02 <LL_RCC_SetUSARTClockSource>
  }

  /*-------------------------- UART5 configuration --------------------------*/
  if ((PeriphClkInit->PeriphClockSelection & RCC_PERIPHCLK_UART5) == RCC_PERIPHCLK_UART5)
24104e0e:	f8d7 31b4 	ldr.w	r3, [r7, #436]	@ 0x1b4
24104e12:	e9d3 2300 	ldrd	r2, r3, [r3]
24104e16:	2100      	movs	r1, #0
24104e18:	6539      	str	r1, [r7, #80]	@ 0x50
24104e1a:	f403 5380 	and.w	r3, r3, #4096	@ 0x1000
24104e1e:	657b      	str	r3, [r7, #84]	@ 0x54
24104e20:	e9d7 0114 	ldrd	r0, r1, [r7, #80]	@ 0x50
24104e24:	4603      	mov	r3, r0
24104e26:	460a      	mov	r2, r1
24104e28:	4313      	orrs	r3, r2
24104e2a:	d04b      	beq.n	24104ec4 <HAL_RCCEx_PeriphCLKConfig+0x1fc4>
  {
    /* Check the parameters */
    assert_param(IS_RCC_UART5CLKSOURCE(PeriphClkInit->Uart5ClockSelection));

    if (PeriphClkInit->Uart5ClockSelection == RCC_UART5CLKSOURCE_IC9)
24104e2c:	f8d7 31b4 	ldr.w	r3, [r7, #436]	@ 0x1b4
24104e30:	f8d3 2160 	ldr.w	r2, [r3, #352]	@ 0x160
24104e34:	4b7b      	ldr	r3, [pc, #492]	@ (24105024 <HAL_RCCEx_PeriphCLKConfig+0x2124>)
24104e36:	429a      	cmp	r2, r3
24104e38:	d116      	bne.n	24104e68 <HAL_RCCEx_PeriphCLKConfig+0x1f68>
      /* Check the parameters */
      assert_param(IS_RCC_ICCLKSOURCE(PeriphClkInit->ICSelection[RCC_IC9].ClockSelection));
      assert_param(IS_RCC_ICCLKDIVIDER(PeriphClkInit->ICSelection[RCC_IC9].ClockDivider));

      /* Set IC9 configuration */
      MODIFY_REG(RCC->IC9CFGR, RCC_IC9CFGR_IC9SEL | RCC_IC9CFGR_IC9INT,
24104e3a:	4b77      	ldr	r3, [pc, #476]	@ (24105018 <HAL_RCCEx_PeriphCLKConfig+0x2118>)
24104e3c:	f8d3 30e4 	ldr.w	r3, [r3, #228]	@ 0xe4
24104e40:	f023 5143 	bic.w	r1, r3, #817889280	@ 0x30c00000
24104e44:	f421 117c 	bic.w	r1, r1, #4128768	@ 0x3f0000
24104e48:	f8d7 31b4 	ldr.w	r3, [r7, #436]	@ 0x1b4
24104e4c:	6c9a      	ldr	r2, [r3, #72]	@ 0x48
24104e4e:	f8d7 31b4 	ldr.w	r3, [r7, #436]	@ 0x1b4
24104e52:	6cdb      	ldr	r3, [r3, #76]	@ 0x4c
24104e54:	3b01      	subs	r3, #1
24104e56:	041b      	lsls	r3, r3, #16
24104e58:	4313      	orrs	r3, r2
24104e5a:	4a6f      	ldr	r2, [pc, #444]	@ (24105018 <HAL_RCCEx_PeriphCLKConfig+0x2118>)
24104e5c:	430b      	orrs	r3, r1
24104e5e:	f8c2 30e4 	str.w	r3, [r2, #228]	@ 0xe4
                 PeriphClkInit->ICSelection[RCC_IC9].ClockSelection | \
                 ((PeriphClkInit->ICSelection[RCC_IC9].ClockDivider - 1U) << RCC_IC9CFGR_IC9INT_Pos));

      LL_RCC_IC9_Enable();
24104e62:	f7fd fd6b 	bl	2410293c <LL_RCC_IC9_Enable>
24104e66:	e026      	b.n	24104eb6 <HAL_RCCEx_PeriphCLKConfig+0x1fb6>
    }
    else if (PeriphClkInit->Uart5ClockSelection == RCC_UART5CLKSOURCE_IC14)
24104e68:	f8d7 31b4 	ldr.w	r3, [r7, #436]	@ 0x1b4
24104e6c:	f8d3 2160 	ldr.w	r2, [r3, #352]	@ 0x160
24104e70:	4b6d      	ldr	r3, [pc, #436]	@ (24105028 <HAL_RCCEx_PeriphCLKConfig+0x2128>)
24104e72:	429a      	cmp	r2, r3
24104e74:	d116      	bne.n	24104ea4 <HAL_RCCEx_PeriphCLKConfig+0x1fa4>
      /* Check the parameters */
      assert_param(IS_RCC_ICCLKSOURCE(PeriphClkInit->ICSelection[RCC_IC14].ClockSelection));
      assert_param(IS_RCC_ICCLKDIVIDER(PeriphClkInit->ICSelection[RCC_IC14].ClockDivider));

      /* Set IC14 configuration */
      MODIFY_REG(RCC->IC14CFGR, RCC_IC14CFGR_IC14SEL | RCC_IC14CFGR_IC14INT,
24104e76:	4b68      	ldr	r3, [pc, #416]	@ (24105018 <HAL_RCCEx_PeriphCLKConfig+0x2118>)
24104e78:	f8d3 30f8 	ldr.w	r3, [r3, #248]	@ 0xf8
24104e7c:	f023 5143 	bic.w	r1, r3, #817889280	@ 0x30c00000
24104e80:	f421 117c 	bic.w	r1, r1, #4128768	@ 0x3f0000
24104e84:	f8d7 31b4 	ldr.w	r3, [r7, #436]	@ 0x1b4
24104e88:	6f1a      	ldr	r2, [r3, #112]	@ 0x70
24104e8a:	f8d7 31b4 	ldr.w	r3, [r7, #436]	@ 0x1b4
24104e8e:	6f5b      	ldr	r3, [r3, #116]	@ 0x74
24104e90:	3b01      	subs	r3, #1
24104e92:	041b      	lsls	r3, r3, #16
24104e94:	4313      	orrs	r3, r2
24104e96:	4a60      	ldr	r2, [pc, #384]	@ (24105018 <HAL_RCCEx_PeriphCLKConfig+0x2118>)
24104e98:	430b      	orrs	r3, r1
24104e9a:	f8c2 30f8 	str.w	r3, [r2, #248]	@ 0xf8
                 PeriphClkInit->ICSelection[RCC_IC14].ClockSelection | \
                 ((PeriphClkInit->ICSelection[RCC_IC14].ClockDivider - 1U) << RCC_IC14CFGR_IC14INT_Pos));

      LL_RCC_IC14_Enable();
24104e9e:	f7fd fe4d 	bl	24102b3c <LL_RCC_IC14_Enable>
24104ea2:	e008      	b.n	24104eb6 <HAL_RCCEx_PeriphCLKConfig+0x1fb6>
    }
    else if (PeriphClkInit->Uart5ClockSelection == RCC_UART5CLKSOURCE_CLKP)
24104ea4:	f8d7 31b4 	ldr.w	r3, [r7, #436]	@ 0x1b4
24104ea8:	f8d3 2160 	ldr.w	r2, [r3, #352]	@ 0x160
24104eac:	4b5f      	ldr	r3, [pc, #380]	@ (2410502c <HAL_RCCEx_PeriphCLKConfig+0x212c>)
24104eae:	429a      	cmp	r2, r3
24104eb0:	d101      	bne.n	24104eb6 <HAL_RCCEx_PeriphCLKConfig+0x1fb6>
    {
      LL_RCC_CLKP_Enable();
24104eb2:	f7fe f803 	bl	24102ebc <LL_RCC_CLKP_Enable>
    {
      /* No specific enable to do on other sources */
    }

    /* Set the source of UART5 clock */
    __HAL_RCC_UART5_CONFIG(PeriphClkInit->Uart5ClockSelection);
24104eb6:	f8d7 31b4 	ldr.w	r3, [r7, #436]	@ 0x1b4
24104eba:	f8d3 3160 	ldr.w	r3, [r3, #352]	@ 0x160
24104ebe:	4618      	mov	r0, r3
24104ec0:	f7fc ff9f 	bl	24101e02 <LL_RCC_SetUSARTClockSource>
  }

  /*-------------------------- USART6 configuration --------------------------*/
  if ((PeriphClkInit->PeriphClockSelection & RCC_PERIPHCLK_USART6) == RCC_PERIPHCLK_USART6)
24104ec4:	f8d7 31b4 	ldr.w	r3, [r7, #436]	@ 0x1b4
24104ec8:	e9d3 2300 	ldrd	r2, r3, [r3]
24104ecc:	2100      	movs	r1, #0
24104ece:	64b9      	str	r1, [r7, #72]	@ 0x48
24104ed0:	f403 5300 	and.w	r3, r3, #8192	@ 0x2000
24104ed4:	64fb      	str	r3, [r7, #76]	@ 0x4c
24104ed6:	e9d7 0112 	ldrd	r0, r1, [r7, #72]	@ 0x48
24104eda:	4603      	mov	r3, r0
24104edc:	460a      	mov	r2, r1
24104ede:	4313      	orrs	r3, r2
24104ee0:	d04b      	beq.n	24104f7a <HAL_RCCEx_PeriphCLKConfig+0x207a>
  {
    /* Check the parameters */
    assert_param(IS_RCC_USART6CLKSOURCE(PeriphClkInit->Usart6ClockSelection));

    if (PeriphClkInit->Usart6ClockSelection == RCC_USART6CLKSOURCE_IC9)
24104ee2:	f8d7 31b4 	ldr.w	r3, [r7, #436]	@ 0x1b4
24104ee6:	f8d3 2164 	ldr.w	r2, [r3, #356]	@ 0x164
24104eea:	4b51      	ldr	r3, [pc, #324]	@ (24105030 <HAL_RCCEx_PeriphCLKConfig+0x2130>)
24104eec:	429a      	cmp	r2, r3
24104eee:	d116      	bne.n	24104f1e <HAL_RCCEx_PeriphCLKConfig+0x201e>
      /* Check the parameters */
      assert_param(IS_RCC_ICCLKSOURCE(PeriphClkInit->ICSelection[RCC_IC9].ClockSelection));
      assert_param(IS_RCC_ICCLKDIVIDER(PeriphClkInit->ICSelection[RCC_IC9].ClockDivider));

      /* Set IC9 configuration */
      MODIFY_REG(RCC->IC9CFGR, RCC_IC9CFGR_IC9SEL | RCC_IC9CFGR_IC9INT,
24104ef0:	4b49      	ldr	r3, [pc, #292]	@ (24105018 <HAL_RCCEx_PeriphCLKConfig+0x2118>)
24104ef2:	f8d3 30e4 	ldr.w	r3, [r3, #228]	@ 0xe4
24104ef6:	f023 5143 	bic.w	r1, r3, #817889280	@ 0x30c00000
24104efa:	f421 117c 	bic.w	r1, r1, #4128768	@ 0x3f0000
24104efe:	f8d7 31b4 	ldr.w	r3, [r7, #436]	@ 0x1b4
24104f02:	6c9a      	ldr	r2, [r3, #72]	@ 0x48
24104f04:	f8d7 31b4 	ldr.w	r3, [r7, #436]	@ 0x1b4
24104f08:	6cdb      	ldr	r3, [r3, #76]	@ 0x4c
24104f0a:	3b01      	subs	r3, #1
24104f0c:	041b      	lsls	r3, r3, #16
24104f0e:	4313      	orrs	r3, r2
24104f10:	4a41      	ldr	r2, [pc, #260]	@ (24105018 <HAL_RCCEx_PeriphCLKConfig+0x2118>)
24104f12:	430b      	orrs	r3, r1
24104f14:	f8c2 30e4 	str.w	r3, [r2, #228]	@ 0xe4
                 PeriphClkInit->ICSelection[RCC_IC9].ClockSelection | \
                 ((PeriphClkInit->ICSelection[RCC_IC9].ClockDivider - 1U) << RCC_IC9CFGR_IC9INT_Pos));

      LL_RCC_IC9_Enable();
24104f18:	f7fd fd10 	bl	2410293c <LL_RCC_IC9_Enable>
24104f1c:	e026      	b.n	24104f6c <HAL_RCCEx_PeriphCLKConfig+0x206c>
    }
    else if (PeriphClkInit->Usart6ClockSelection == RCC_USART6CLKSOURCE_IC14)
24104f1e:	f8d7 31b4 	ldr.w	r3, [r7, #436]	@ 0x1b4
24104f22:	f8d3 2164 	ldr.w	r2, [r3, #356]	@ 0x164
24104f26:	4b43      	ldr	r3, [pc, #268]	@ (24105034 <HAL_RCCEx_PeriphCLKConfig+0x2134>)
24104f28:	429a      	cmp	r2, r3
24104f2a:	d116      	bne.n	24104f5a <HAL_RCCEx_PeriphCLKConfig+0x205a>
      /* Check the parameters */
      assert_param(IS_RCC_ICCLKSOURCE(PeriphClkInit->ICSelection[RCC_IC14].ClockSelection));
      assert_param(IS_RCC_ICCLKDIVIDER(PeriphClkInit->ICSelection[RCC_IC14].ClockDivider));

      /* Set IC14 configuration */
      MODIFY_REG(RCC->IC14CFGR, RCC_IC14CFGR_IC14SEL | RCC_IC14CFGR_IC14INT,
24104f2c:	4b3a      	ldr	r3, [pc, #232]	@ (24105018 <HAL_RCCEx_PeriphCLKConfig+0x2118>)
24104f2e:	f8d3 30f8 	ldr.w	r3, [r3, #248]	@ 0xf8
24104f32:	f023 5143 	bic.w	r1, r3, #817889280	@ 0x30c00000
24104f36:	f421 117c 	bic.w	r1, r1, #4128768	@ 0x3f0000
24104f3a:	f8d7 31b4 	ldr.w	r3, [r7, #436]	@ 0x1b4
24104f3e:	6f1a      	ldr	r2, [r3, #112]	@ 0x70
24104f40:	f8d7 31b4 	ldr.w	r3, [r7, #436]	@ 0x1b4
24104f44:	6f5b      	ldr	r3, [r3, #116]	@ 0x74
24104f46:	3b01      	subs	r3, #1
24104f48:	041b      	lsls	r3, r3, #16
24104f4a:	4313      	orrs	r3, r2
24104f4c:	4a32      	ldr	r2, [pc, #200]	@ (24105018 <HAL_RCCEx_PeriphCLKConfig+0x2118>)
24104f4e:	430b      	orrs	r3, r1
24104f50:	f8c2 30f8 	str.w	r3, [r2, #248]	@ 0xf8
                 PeriphClkInit->ICSelection[RCC_IC14].ClockSelection | \
                 ((PeriphClkInit->ICSelection[RCC_IC14].ClockDivider - 1U) << RCC_IC14CFGR_IC14INT_Pos));

      LL_RCC_IC14_Enable();
24104f54:	f7fd fdf2 	bl	24102b3c <LL_RCC_IC14_Enable>
24104f58:	e008      	b.n	24104f6c <HAL_RCCEx_PeriphCLKConfig+0x206c>
    }
    else if (PeriphClkInit->Usart6ClockSelection == RCC_USART6CLKSOURCE_CLKP)
24104f5a:	f8d7 31b4 	ldr.w	r3, [r7, #436]	@ 0x1b4
24104f5e:	f8d3 2164 	ldr.w	r2, [r3, #356]	@ 0x164
24104f62:	4b35      	ldr	r3, [pc, #212]	@ (24105038 <HAL_RCCEx_PeriphCLKConfig+0x2138>)
24104f64:	429a      	cmp	r2, r3
24104f66:	d101      	bne.n	24104f6c <HAL_RCCEx_PeriphCLKConfig+0x206c>
    {
      LL_RCC_CLKP_Enable();
24104f68:	f7fd ffa8 	bl	24102ebc <LL_RCC_CLKP_Enable>
    {
      /* No specific enable to do on other sources */
    }

    /* Set the source of USART6 clock */
    __HAL_RCC_USART6_CONFIG(PeriphClkInit->Usart6ClockSelection);
24104f6c:	f8d7 31b4 	ldr.w	r3, [r7, #436]	@ 0x1b4
24104f70:	f8d3 3164 	ldr.w	r3, [r3, #356]	@ 0x164
24104f74:	4618      	mov	r0, r3
24104f76:	f7fc ff44 	bl	24101e02 <LL_RCC_SetUSARTClockSource>
  }

  /*-------------------------- UART7 configuration --------------------------*/
  if ((PeriphClkInit->PeriphClockSelection & RCC_PERIPHCLK_UART7) == RCC_PERIPHCLK_UART7)
24104f7a:	f8d7 31b4 	ldr.w	r3, [r7, #436]	@ 0x1b4
24104f7e:	e9d3 2300 	ldrd	r2, r3, [r3]
24104f82:	2100      	movs	r1, #0
24104f84:	6439      	str	r1, [r7, #64]	@ 0x40
24104f86:	f403 4380 	and.w	r3, r3, #16384	@ 0x4000
24104f8a:	647b      	str	r3, [r7, #68]	@ 0x44
24104f8c:	e9d7 0110 	ldrd	r0, r1, [r7, #64]	@ 0x40
24104f90:	4603      	mov	r3, r0
24104f92:	460a      	mov	r2, r1
24104f94:	4313      	orrs	r3, r2
24104f96:	d065      	beq.n	24105064 <HAL_RCCEx_PeriphCLKConfig+0x2164>
  {
    /* Check the parameters */
    assert_param(IS_RCC_UART7CLKSOURCE(PeriphClkInit->Uart7ClockSelection));

    if (PeriphClkInit->Uart7ClockSelection == RCC_UART7CLKSOURCE_IC9)
24104f98:	f8d7 31b4 	ldr.w	r3, [r7, #436]	@ 0x1b4
24104f9c:	f8d3 2168 	ldr.w	r2, [r3, #360]	@ 0x168
24104fa0:	4b26      	ldr	r3, [pc, #152]	@ (2410503c <HAL_RCCEx_PeriphCLKConfig+0x213c>)
24104fa2:	429a      	cmp	r2, r3
24104fa4:	d116      	bne.n	24104fd4 <HAL_RCCEx_PeriphCLKConfig+0x20d4>
      /* Check the parameters */
      assert_param(IS_RCC_ICCLKSOURCE(PeriphClkInit->ICSelection[RCC_IC9].ClockSelection));
      assert_param(IS_RCC_ICCLKDIVIDER(PeriphClkInit->ICSelection[RCC_IC9].ClockDivider));

      /* Set IC9 configuration */
      MODIFY_REG(RCC->IC9CFGR, RCC_IC9CFGR_IC9SEL | RCC_IC9CFGR_IC9INT,
24104fa6:	4b1c      	ldr	r3, [pc, #112]	@ (24105018 <HAL_RCCEx_PeriphCLKConfig+0x2118>)
24104fa8:	f8d3 30e4 	ldr.w	r3, [r3, #228]	@ 0xe4
24104fac:	f023 5143 	bic.w	r1, r3, #817889280	@ 0x30c00000
24104fb0:	f421 117c 	bic.w	r1, r1, #4128768	@ 0x3f0000
24104fb4:	f8d7 31b4 	ldr.w	r3, [r7, #436]	@ 0x1b4
24104fb8:	6c9a      	ldr	r2, [r3, #72]	@ 0x48
24104fba:	f8d7 31b4 	ldr.w	r3, [r7, #436]	@ 0x1b4
24104fbe:	6cdb      	ldr	r3, [r3, #76]	@ 0x4c
24104fc0:	3b01      	subs	r3, #1
24104fc2:	041b      	lsls	r3, r3, #16
24104fc4:	4313      	orrs	r3, r2
24104fc6:	4a14      	ldr	r2, [pc, #80]	@ (24105018 <HAL_RCCEx_PeriphCLKConfig+0x2118>)
24104fc8:	430b      	orrs	r3, r1
24104fca:	f8c2 30e4 	str.w	r3, [r2, #228]	@ 0xe4
                 PeriphClkInit->ICSelection[RCC_IC9].ClockSelection | \
                 ((PeriphClkInit->ICSelection[RCC_IC9].ClockDivider - 1U) << RCC_IC9CFGR_IC9INT_Pos));

      LL_RCC_IC9_Enable();
24104fce:	f7fd fcb5 	bl	2410293c <LL_RCC_IC9_Enable>
24104fd2:	e040      	b.n	24105056 <HAL_RCCEx_PeriphCLKConfig+0x2156>
    }
    else if (PeriphClkInit->Uart7ClockSelection == RCC_UART7CLKSOURCE_IC14)
24104fd4:	f8d7 31b4 	ldr.w	r3, [r7, #436]	@ 0x1b4
24104fd8:	f8d3 2168 	ldr.w	r2, [r3, #360]	@ 0x168
24104fdc:	4b18      	ldr	r3, [pc, #96]	@ (24105040 <HAL_RCCEx_PeriphCLKConfig+0x2140>)
24104fde:	429a      	cmp	r2, r3
24104fe0:	d130      	bne.n	24105044 <HAL_RCCEx_PeriphCLKConfig+0x2144>
      /* Check the parameters */
      assert_param(IS_RCC_ICCLKSOURCE(PeriphClkInit->ICSelection[RCC_IC14].ClockSelection));
      assert_param(IS_RCC_ICCLKDIVIDER(PeriphClkInit->ICSelection[RCC_IC14].ClockDivider));

      /* Set IC14 configuration */
      MODIFY_REG(RCC->IC14CFGR, RCC_IC14CFGR_IC14SEL | RCC_IC14CFGR_IC14INT,
24104fe2:	4b0d      	ldr	r3, [pc, #52]	@ (24105018 <HAL_RCCEx_PeriphCLKConfig+0x2118>)
24104fe4:	f8d3 30f8 	ldr.w	r3, [r3, #248]	@ 0xf8
24104fe8:	f023 5143 	bic.w	r1, r3, #817889280	@ 0x30c00000
24104fec:	f421 117c 	bic.w	r1, r1, #4128768	@ 0x3f0000
24104ff0:	f8d7 31b4 	ldr.w	r3, [r7, #436]	@ 0x1b4
24104ff4:	6f1a      	ldr	r2, [r3, #112]	@ 0x70
24104ff6:	f8d7 31b4 	ldr.w	r3, [r7, #436]	@ 0x1b4
24104ffa:	6f5b      	ldr	r3, [r3, #116]	@ 0x74
24104ffc:	3b01      	subs	r3, #1
24104ffe:	041b      	lsls	r3, r3, #16
24105000:	4313      	orrs	r3, r2
24105002:	4a05      	ldr	r2, [pc, #20]	@ (24105018 <HAL_RCCEx_PeriphCLKConfig+0x2118>)
24105004:	430b      	orrs	r3, r1
24105006:	f8c2 30f8 	str.w	r3, [r2, #248]	@ 0xf8
                 PeriphClkInit->ICSelection[RCC_IC14].ClockSelection | \
                 ((PeriphClkInit->ICSelection[RCC_IC14].ClockDivider - 1U) << RCC_IC14CFGR_IC14INT_Pos));

      LL_RCC_IC14_Enable();
2410500a:	f7fd fd97 	bl	24102b3c <LL_RCC_IC14_Enable>
2410500e:	e022      	b.n	24105056 <HAL_RCCEx_PeriphCLKConfig+0x2156>
24105010:	07010830 	.word	0x07010830
24105014:	07020c30 	.word	0x07020c30
24105018:	46028000 	.word	0x46028000
2410501c:	07030c30 	.word	0x07030c30
24105020:	07010c30 	.word	0x07010c30
24105024:	07021030 	.word	0x07021030
24105028:	07031030 	.word	0x07031030
2410502c:	07011030 	.word	0x07011030
24105030:	07021430 	.word	0x07021430
24105034:	07031430 	.word	0x07031430
24105038:	07011430 	.word	0x07011430
2410503c:	07021830 	.word	0x07021830
24105040:	07031830 	.word	0x07031830
    }
    else if (PeriphClkInit->Uart7ClockSelection == RCC_UART7CLKSOURCE_CLKP)
24105044:	f8d7 31b4 	ldr.w	r3, [r7, #436]	@ 0x1b4
24105048:	f8d3 2168 	ldr.w	r2, [r3, #360]	@ 0x168
2410504c:	4bca      	ldr	r3, [pc, #808]	@ (24105378 <HAL_RCCEx_PeriphCLKConfig+0x2478>)
2410504e:	429a      	cmp	r2, r3
24105050:	d101      	bne.n	24105056 <HAL_RCCEx_PeriphCLKConfig+0x2156>
    {
      LL_RCC_CLKP_Enable();
24105052:	f7fd ff33 	bl	24102ebc <LL_RCC_CLKP_Enable>
    {
      /* No specific enable to do on other sources */
    }

    /* Set the source of UART7 clock */
    __HAL_RCC_UART7_CONFIG(PeriphClkInit->Uart7ClockSelection);
24105056:	f8d7 31b4 	ldr.w	r3, [r7, #436]	@ 0x1b4
2410505a:	f8d3 3168 	ldr.w	r3, [r3, #360]	@ 0x168
2410505e:	4618      	mov	r0, r3
24105060:	f7fc fecf 	bl	24101e02 <LL_RCC_SetUSARTClockSource>
  }

  /*-------------------------- UART8 configuration --------------------------*/
  if ((PeriphClkInit->PeriphClockSelection & RCC_PERIPHCLK_UART8) == RCC_PERIPHCLK_UART8)
24105064:	f8d7 31b4 	ldr.w	r3, [r7, #436]	@ 0x1b4
24105068:	e9d3 2300 	ldrd	r2, r3, [r3]
2410506c:	2100      	movs	r1, #0
2410506e:	63b9      	str	r1, [r7, #56]	@ 0x38
24105070:	f403 4300 	and.w	r3, r3, #32768	@ 0x8000
24105074:	63fb      	str	r3, [r7, #60]	@ 0x3c
24105076:	e9d7 010e 	ldrd	r0, r1, [r7, #56]	@ 0x38
2410507a:	4603      	mov	r3, r0
2410507c:	460a      	mov	r2, r1
2410507e:	4313      	orrs	r3, r2
24105080:	d04b      	beq.n	2410511a <HAL_RCCEx_PeriphCLKConfig+0x221a>
  {
    /* Check the parameters */
    assert_param(IS_RCC_UART8CLKSOURCE(PeriphClkInit->Uart8ClockSelection));

    if (PeriphClkInit->Uart8ClockSelection == RCC_UART8CLKSOURCE_IC9)
24105082:	f8d7 31b4 	ldr.w	r3, [r7, #436]	@ 0x1b4
24105086:	f8d3 216c 	ldr.w	r2, [r3, #364]	@ 0x16c
2410508a:	4bbc      	ldr	r3, [pc, #752]	@ (2410537c <HAL_RCCEx_PeriphCLKConfig+0x247c>)
2410508c:	429a      	cmp	r2, r3
2410508e:	d116      	bne.n	241050be <HAL_RCCEx_PeriphCLKConfig+0x21be>
      /* Check the parameters */
      assert_param(IS_RCC_ICCLKSOURCE(PeriphClkInit->ICSelection[RCC_IC9].ClockSelection));
      assert_param(IS_RCC_ICCLKDIVIDER(PeriphClkInit->ICSelection[RCC_IC9].ClockDivider));

      /* Set IC9 configuration */
      MODIFY_REG(RCC->IC9CFGR, RCC_IC9CFGR_IC9SEL | RCC_IC9CFGR_IC9INT,
24105090:	4bbb      	ldr	r3, [pc, #748]	@ (24105380 <HAL_RCCEx_PeriphCLKConfig+0x2480>)
24105092:	f8d3 30e4 	ldr.w	r3, [r3, #228]	@ 0xe4
24105096:	f023 5143 	bic.w	r1, r3, #817889280	@ 0x30c00000
2410509a:	f421 117c 	bic.w	r1, r1, #4128768	@ 0x3f0000
2410509e:	f8d7 31b4 	ldr.w	r3, [r7, #436]	@ 0x1b4
241050a2:	6c9a      	ldr	r2, [r3, #72]	@ 0x48
241050a4:	f8d7 31b4 	ldr.w	r3, [r7, #436]	@ 0x1b4
241050a8:	6cdb      	ldr	r3, [r3, #76]	@ 0x4c
241050aa:	3b01      	subs	r3, #1
241050ac:	041b      	lsls	r3, r3, #16
241050ae:	4313      	orrs	r3, r2
241050b0:	4ab3      	ldr	r2, [pc, #716]	@ (24105380 <HAL_RCCEx_PeriphCLKConfig+0x2480>)
241050b2:	430b      	orrs	r3, r1
241050b4:	f8c2 30e4 	str.w	r3, [r2, #228]	@ 0xe4
                 PeriphClkInit->ICSelection[RCC_IC9].ClockSelection | \
                 ((PeriphClkInit->ICSelection[RCC_IC9].ClockDivider - 1U) << RCC_IC9CFGR_IC9INT_Pos));

      LL_RCC_IC9_Enable();
241050b8:	f7fd fc40 	bl	2410293c <LL_RCC_IC9_Enable>
241050bc:	e026      	b.n	2410510c <HAL_RCCEx_PeriphCLKConfig+0x220c>
    }
    else if (PeriphClkInit->Uart8ClockSelection == RCC_UART8CLKSOURCE_IC14)
241050be:	f8d7 31b4 	ldr.w	r3, [r7, #436]	@ 0x1b4
241050c2:	f8d3 216c 	ldr.w	r2, [r3, #364]	@ 0x16c
241050c6:	4baf      	ldr	r3, [pc, #700]	@ (24105384 <HAL_RCCEx_PeriphCLKConfig+0x2484>)
241050c8:	429a      	cmp	r2, r3
241050ca:	d116      	bne.n	241050fa <HAL_RCCEx_PeriphCLKConfig+0x21fa>
      /* Check the parameters */
      assert_param(IS_RCC_ICCLKSOURCE(PeriphClkInit->ICSelection[RCC_IC14].ClockSelection));
      assert_param(IS_RCC_ICCLKDIVIDER(PeriphClkInit->ICSelection[RCC_IC14].ClockDivider));

      /* Set IC14 configuration */
      MODIFY_REG(RCC->IC14CFGR, RCC_IC14CFGR_IC14SEL | RCC_IC14CFGR_IC14INT,
241050cc:	4bac      	ldr	r3, [pc, #688]	@ (24105380 <HAL_RCCEx_PeriphCLKConfig+0x2480>)
241050ce:	f8d3 30f8 	ldr.w	r3, [r3, #248]	@ 0xf8
241050d2:	f023 5143 	bic.w	r1, r3, #817889280	@ 0x30c00000
241050d6:	f421 117c 	bic.w	r1, r1, #4128768	@ 0x3f0000
241050da:	f8d7 31b4 	ldr.w	r3, [r7, #436]	@ 0x1b4
241050de:	6f1a      	ldr	r2, [r3, #112]	@ 0x70
241050e0:	f8d7 31b4 	ldr.w	r3, [r7, #436]	@ 0x1b4
241050e4:	6f5b      	ldr	r3, [r3, #116]	@ 0x74
241050e6:	3b01      	subs	r3, #1
241050e8:	041b      	lsls	r3, r3, #16
241050ea:	4313      	orrs	r3, r2
241050ec:	4aa4      	ldr	r2, [pc, #656]	@ (24105380 <HAL_RCCEx_PeriphCLKConfig+0x2480>)
241050ee:	430b      	orrs	r3, r1
241050f0:	f8c2 30f8 	str.w	r3, [r2, #248]	@ 0xf8
                 PeriphClkInit->ICSelection[RCC_IC14].ClockSelection | \
                 ((PeriphClkInit->ICSelection[RCC_IC14].ClockDivider - 1U) << RCC_IC14CFGR_IC14INT_Pos));

      LL_RCC_IC14_Enable();
241050f4:	f7fd fd22 	bl	24102b3c <LL_RCC_IC14_Enable>
241050f8:	e008      	b.n	2410510c <HAL_RCCEx_PeriphCLKConfig+0x220c>
    }
    else if (PeriphClkInit->Uart8ClockSelection == RCC_UART8CLKSOURCE_CLKP)
241050fa:	f8d7 31b4 	ldr.w	r3, [r7, #436]	@ 0x1b4
241050fe:	f8d3 216c 	ldr.w	r2, [r3, #364]	@ 0x16c
24105102:	4ba1      	ldr	r3, [pc, #644]	@ (24105388 <HAL_RCCEx_PeriphCLKConfig+0x2488>)
24105104:	429a      	cmp	r2, r3
24105106:	d101      	bne.n	2410510c <HAL_RCCEx_PeriphCLKConfig+0x220c>
    {
      LL_RCC_CLKP_Enable();
24105108:	f7fd fed8 	bl	24102ebc <LL_RCC_CLKP_Enable>
    {
      /* No specific enable to do on other sources */
    }

    /* Set the source of UART8 clock */
    __HAL_RCC_UART8_CONFIG(PeriphClkInit->Uart8ClockSelection);
2410510c:	f8d7 31b4 	ldr.w	r3, [r7, #436]	@ 0x1b4
24105110:	f8d3 316c 	ldr.w	r3, [r3, #364]	@ 0x16c
24105114:	4618      	mov	r0, r3
24105116:	f7fc fe74 	bl	24101e02 <LL_RCC_SetUSARTClockSource>
  }

  /*-------------------------- UART9 configuration --------------------------*/
  if ((PeriphClkInit->PeriphClockSelection & RCC_PERIPHCLK_UART9) == RCC_PERIPHCLK_UART9)
2410511a:	f8d7 31b4 	ldr.w	r3, [r7, #436]	@ 0x1b4
2410511e:	e9d3 2300 	ldrd	r2, r3, [r3]
24105122:	2100      	movs	r1, #0
24105124:	6339      	str	r1, [r7, #48]	@ 0x30
24105126:	f403 3380 	and.w	r3, r3, #65536	@ 0x10000
2410512a:	637b      	str	r3, [r7, #52]	@ 0x34
2410512c:	e9d7 010c 	ldrd	r0, r1, [r7, #48]	@ 0x30
24105130:	4603      	mov	r3, r0
24105132:	460a      	mov	r2, r1
24105134:	4313      	orrs	r3, r2
24105136:	d04b      	beq.n	241051d0 <HAL_RCCEx_PeriphCLKConfig+0x22d0>
  {
    /* Check the parameters */
    assert_param(IS_RCC_UART9CLKSOURCE(PeriphClkInit->Uart9ClockSelection));

    if (PeriphClkInit->Uart9ClockSelection == RCC_UART9CLKSOURCE_IC9)
24105138:	f8d7 31b4 	ldr.w	r3, [r7, #436]	@ 0x1b4
2410513c:	f8d3 3170 	ldr.w	r3, [r3, #368]	@ 0x170
24105140:	4a92      	ldr	r2, [pc, #584]	@ (2410538c <HAL_RCCEx_PeriphCLKConfig+0x248c>)
24105142:	4293      	cmp	r3, r2
24105144:	d116      	bne.n	24105174 <HAL_RCCEx_PeriphCLKConfig+0x2274>
      /* Check the parameters */
      assert_param(IS_RCC_ICCLKSOURCE(PeriphClkInit->ICSelection[RCC_IC9].ClockSelection));
      assert_param(IS_RCC_ICCLKDIVIDER(PeriphClkInit->ICSelection[RCC_IC9].ClockDivider));

      /* Set IC9 configuration */
      MODIFY_REG(RCC->IC9CFGR, RCC_IC9CFGR_IC9SEL | RCC_IC9CFGR_IC9INT,
24105146:	4b8e      	ldr	r3, [pc, #568]	@ (24105380 <HAL_RCCEx_PeriphCLKConfig+0x2480>)
24105148:	f8d3 30e4 	ldr.w	r3, [r3, #228]	@ 0xe4
2410514c:	f023 5143 	bic.w	r1, r3, #817889280	@ 0x30c00000
24105150:	f421 117c 	bic.w	r1, r1, #4128768	@ 0x3f0000
24105154:	f8d7 31b4 	ldr.w	r3, [r7, #436]	@ 0x1b4
24105158:	6c9a      	ldr	r2, [r3, #72]	@ 0x48
2410515a:	f8d7 31b4 	ldr.w	r3, [r7, #436]	@ 0x1b4
2410515e:	6cdb      	ldr	r3, [r3, #76]	@ 0x4c
24105160:	3b01      	subs	r3, #1
24105162:	041b      	lsls	r3, r3, #16
24105164:	4313      	orrs	r3, r2
24105166:	4a86      	ldr	r2, [pc, #536]	@ (24105380 <HAL_RCCEx_PeriphCLKConfig+0x2480>)
24105168:	430b      	orrs	r3, r1
2410516a:	f8c2 30e4 	str.w	r3, [r2, #228]	@ 0xe4
                 PeriphClkInit->ICSelection[RCC_IC9].ClockSelection | \
                 ((PeriphClkInit->ICSelection[RCC_IC9].ClockDivider - 1U) << RCC_IC9CFGR_IC9INT_Pos));

      LL_RCC_IC9_Enable();
2410516e:	f7fd fbe5 	bl	2410293c <LL_RCC_IC9_Enable>
24105172:	e026      	b.n	241051c2 <HAL_RCCEx_PeriphCLKConfig+0x22c2>
    }
    else if (PeriphClkInit->Uart9ClockSelection == RCC_UART9CLKSOURCE_IC14)
24105174:	f8d7 31b4 	ldr.w	r3, [r7, #436]	@ 0x1b4
24105178:	f8d3 3170 	ldr.w	r3, [r3, #368]	@ 0x170
2410517c:	4a84      	ldr	r2, [pc, #528]	@ (24105390 <HAL_RCCEx_PeriphCLKConfig+0x2490>)
2410517e:	4293      	cmp	r3, r2
24105180:	d116      	bne.n	241051b0 <HAL_RCCEx_PeriphCLKConfig+0x22b0>
      /* Check the parameters */
      assert_param(IS_RCC_ICCLKSOURCE(PeriphClkInit->ICSelection[RCC_IC14].ClockSelection));
      assert_param(IS_RCC_ICCLKDIVIDER(PeriphClkInit->ICSelection[RCC_IC14].ClockDivider));

      /* Set IC14 configuration */
      MODIFY_REG(RCC->IC14CFGR, RCC_IC14CFGR_IC14SEL | RCC_IC14CFGR_IC14INT,
24105182:	4b7f      	ldr	r3, [pc, #508]	@ (24105380 <HAL_RCCEx_PeriphCLKConfig+0x2480>)
24105184:	f8d3 30f8 	ldr.w	r3, [r3, #248]	@ 0xf8
24105188:	f023 5143 	bic.w	r1, r3, #817889280	@ 0x30c00000
2410518c:	f421 117c 	bic.w	r1, r1, #4128768	@ 0x3f0000
24105190:	f8d7 31b4 	ldr.w	r3, [r7, #436]	@ 0x1b4
24105194:	6f1a      	ldr	r2, [r3, #112]	@ 0x70
24105196:	f8d7 31b4 	ldr.w	r3, [r7, #436]	@ 0x1b4
2410519a:	6f5b      	ldr	r3, [r3, #116]	@ 0x74
2410519c:	3b01      	subs	r3, #1
2410519e:	041b      	lsls	r3, r3, #16
241051a0:	4313      	orrs	r3, r2
241051a2:	4a77      	ldr	r2, [pc, #476]	@ (24105380 <HAL_RCCEx_PeriphCLKConfig+0x2480>)
241051a4:	430b      	orrs	r3, r1
241051a6:	f8c2 30f8 	str.w	r3, [r2, #248]	@ 0xf8
                 PeriphClkInit->ICSelection[RCC_IC14].ClockSelection | \
                 ((PeriphClkInit->ICSelection[RCC_IC14].ClockDivider - 1U) << RCC_IC14CFGR_IC14INT_Pos));

      LL_RCC_IC14_Enable();
241051aa:	f7fd fcc7 	bl	24102b3c <LL_RCC_IC14_Enable>
241051ae:	e008      	b.n	241051c2 <HAL_RCCEx_PeriphCLKConfig+0x22c2>
    }
    else if (PeriphClkInit->Uart9ClockSelection == RCC_UART9CLKSOURCE_CLKP)
241051b0:	f8d7 31b4 	ldr.w	r3, [r7, #436]	@ 0x1b4
241051b4:	f8d3 3170 	ldr.w	r3, [r3, #368]	@ 0x170
241051b8:	4a76      	ldr	r2, [pc, #472]	@ (24105394 <HAL_RCCEx_PeriphCLKConfig+0x2494>)
241051ba:	4293      	cmp	r3, r2
241051bc:	d101      	bne.n	241051c2 <HAL_RCCEx_PeriphCLKConfig+0x22c2>
    {
      LL_RCC_CLKP_Enable();
241051be:	f7fd fe7d 	bl	24102ebc <LL_RCC_CLKP_Enable>
    {
      /* No specific enable to do on other sources */
    }

    /* Set the source of UART9 clock */
    __HAL_RCC_UART9_CONFIG(PeriphClkInit->Uart9ClockSelection);
241051c2:	f8d7 31b4 	ldr.w	r3, [r7, #436]	@ 0x1b4
241051c6:	f8d3 3170 	ldr.w	r3, [r3, #368]	@ 0x170
241051ca:	4618      	mov	r0, r3
241051cc:	f7fc fe19 	bl	24101e02 <LL_RCC_SetUSARTClockSource>
  }

  /*-------------------------- USART10 configuration --------------------------*/
  if ((PeriphClkInit->PeriphClockSelection & RCC_PERIPHCLK_USART10) == RCC_PERIPHCLK_USART10)
241051d0:	f8d7 31b4 	ldr.w	r3, [r7, #436]	@ 0x1b4
241051d4:	e9d3 2300 	ldrd	r2, r3, [r3]
241051d8:	2100      	movs	r1, #0
241051da:	62b9      	str	r1, [r7, #40]	@ 0x28
241051dc:	f403 3300 	and.w	r3, r3, #131072	@ 0x20000
241051e0:	62fb      	str	r3, [r7, #44]	@ 0x2c
241051e2:	e9d7 010a 	ldrd	r0, r1, [r7, #40]	@ 0x28
241051e6:	4603      	mov	r3, r0
241051e8:	460a      	mov	r2, r1
241051ea:	4313      	orrs	r3, r2
241051ec:	d04b      	beq.n	24105286 <HAL_RCCEx_PeriphCLKConfig+0x2386>
  {
    /* Check the parameters */
    assert_param(IS_RCC_USART10CLKSOURCE(PeriphClkInit->Usart10ClockSelection));

    if (PeriphClkInit->Usart10ClockSelection == RCC_USART10CLKSOURCE_IC9)
241051ee:	f8d7 31b4 	ldr.w	r3, [r7, #436]	@ 0x1b4
241051f2:	f8d3 3174 	ldr.w	r3, [r3, #372]	@ 0x174
241051f6:	4a68      	ldr	r2, [pc, #416]	@ (24105398 <HAL_RCCEx_PeriphCLKConfig+0x2498>)
241051f8:	4293      	cmp	r3, r2
241051fa:	d116      	bne.n	2410522a <HAL_RCCEx_PeriphCLKConfig+0x232a>
      /* Check the parameters */
      assert_param(IS_RCC_ICCLKSOURCE(PeriphClkInit->ICSelection[RCC_IC9].ClockSelection));
      assert_param(IS_RCC_ICCLKDIVIDER(PeriphClkInit->ICSelection[RCC_IC9].ClockDivider));

      /* Set IC9 configuration */
      MODIFY_REG(RCC->IC9CFGR, RCC_IC9CFGR_IC9SEL | RCC_IC9CFGR_IC9INT,
241051fc:	4b60      	ldr	r3, [pc, #384]	@ (24105380 <HAL_RCCEx_PeriphCLKConfig+0x2480>)
241051fe:	f8d3 30e4 	ldr.w	r3, [r3, #228]	@ 0xe4
24105202:	f023 5343 	bic.w	r3, r3, #817889280	@ 0x30c00000
24105206:	f423 137c 	bic.w	r3, r3, #4128768	@ 0x3f0000
2410520a:	f8d7 21b4 	ldr.w	r2, [r7, #436]	@ 0x1b4
2410520e:	6c91      	ldr	r1, [r2, #72]	@ 0x48
24105210:	f8d7 21b4 	ldr.w	r2, [r7, #436]	@ 0x1b4
24105214:	6cd2      	ldr	r2, [r2, #76]	@ 0x4c
24105216:	3a01      	subs	r2, #1
24105218:	0412      	lsls	r2, r2, #16
2410521a:	430a      	orrs	r2, r1
2410521c:	4958      	ldr	r1, [pc, #352]	@ (24105380 <HAL_RCCEx_PeriphCLKConfig+0x2480>)
2410521e:	4313      	orrs	r3, r2
24105220:	f8c1 30e4 	str.w	r3, [r1, #228]	@ 0xe4
                 PeriphClkInit->ICSelection[RCC_IC9].ClockSelection | \
                 ((PeriphClkInit->ICSelection[RCC_IC9].ClockDivider - 1U) << RCC_IC9CFGR_IC9INT_Pos));

      LL_RCC_IC9_Enable();
24105224:	f7fd fb8a 	bl	2410293c <LL_RCC_IC9_Enable>
24105228:	e026      	b.n	24105278 <HAL_RCCEx_PeriphCLKConfig+0x2378>
    }
    else if (PeriphClkInit->Usart10ClockSelection == RCC_USART10CLKSOURCE_IC14)
2410522a:	f8d7 31b4 	ldr.w	r3, [r7, #436]	@ 0x1b4
2410522e:	f8d3 3174 	ldr.w	r3, [r3, #372]	@ 0x174
24105232:	4a5a      	ldr	r2, [pc, #360]	@ (2410539c <HAL_RCCEx_PeriphCLKConfig+0x249c>)
24105234:	4293      	cmp	r3, r2
24105236:	d116      	bne.n	24105266 <HAL_RCCEx_PeriphCLKConfig+0x2366>
      /* Check the parameters */
      assert_param(IS_RCC_ICCLKSOURCE(PeriphClkInit->ICSelection[RCC_IC14].ClockSelection));
      assert_param(IS_RCC_ICCLKDIVIDER(PeriphClkInit->ICSelection[RCC_IC14].ClockDivider));

      /* Set IC14 configuration */
      MODIFY_REG(RCC->IC14CFGR, RCC_IC14CFGR_IC14SEL | RCC_IC14CFGR_IC14INT,
24105238:	4b51      	ldr	r3, [pc, #324]	@ (24105380 <HAL_RCCEx_PeriphCLKConfig+0x2480>)
2410523a:	f8d3 30f8 	ldr.w	r3, [r3, #248]	@ 0xf8
2410523e:	f023 5343 	bic.w	r3, r3, #817889280	@ 0x30c00000
24105242:	f423 137c 	bic.w	r3, r3, #4128768	@ 0x3f0000
24105246:	f8d7 21b4 	ldr.w	r2, [r7, #436]	@ 0x1b4
2410524a:	6f11      	ldr	r1, [r2, #112]	@ 0x70
2410524c:	f8d7 21b4 	ldr.w	r2, [r7, #436]	@ 0x1b4
24105250:	6f52      	ldr	r2, [r2, #116]	@ 0x74
24105252:	3a01      	subs	r2, #1
24105254:	0412      	lsls	r2, r2, #16
24105256:	430a      	orrs	r2, r1
24105258:	4949      	ldr	r1, [pc, #292]	@ (24105380 <HAL_RCCEx_PeriphCLKConfig+0x2480>)
2410525a:	4313      	orrs	r3, r2
2410525c:	f8c1 30f8 	str.w	r3, [r1, #248]	@ 0xf8
                 PeriphClkInit->ICSelection[RCC_IC14].ClockSelection | \
                 ((PeriphClkInit->ICSelection[RCC_IC14].ClockDivider - 1U) << RCC_IC14CFGR_IC14INT_Pos));

      LL_RCC_IC14_Enable();
24105260:	f7fd fc6c 	bl	24102b3c <LL_RCC_IC14_Enable>
24105264:	e008      	b.n	24105278 <HAL_RCCEx_PeriphCLKConfig+0x2378>
    }
    else if (PeriphClkInit->Usart10ClockSelection == RCC_USART10CLKSOURCE_CLKP)
24105266:	f8d7 31b4 	ldr.w	r3, [r7, #436]	@ 0x1b4
2410526a:	f8d3 3174 	ldr.w	r3, [r3, #372]	@ 0x174
2410526e:	4a4c      	ldr	r2, [pc, #304]	@ (241053a0 <HAL_RCCEx_PeriphCLKConfig+0x24a0>)
24105270:	4293      	cmp	r3, r2
24105272:	d101      	bne.n	24105278 <HAL_RCCEx_PeriphCLKConfig+0x2378>
    {
      LL_RCC_CLKP_Enable();
24105274:	f7fd fe22 	bl	24102ebc <LL_RCC_CLKP_Enable>
    {
      /* No specific enable to do on other sources */
    }

    /* Set the source of USART10 clock */
    __HAL_RCC_USART10_CONFIG(PeriphClkInit->Usart10ClockSelection);
24105278:	f8d7 31b4 	ldr.w	r3, [r7, #436]	@ 0x1b4
2410527c:	f8d3 3174 	ldr.w	r3, [r3, #372]	@ 0x174
24105280:	4618      	mov	r0, r3
24105282:	f7fc fdbe 	bl	24101e02 <LL_RCC_SetUSARTClockSource>
  }

  /*------------------------------ USBPHY1 Configuration ---------------------*/
  if ((PeriphClkInit->PeriphClockSelection & RCC_PERIPHCLK_USBPHY1) == RCC_PERIPHCLK_USBPHY1)
24105286:	f8d7 31b4 	ldr.w	r3, [r7, #436]	@ 0x1b4
2410528a:	e9d3 2300 	ldrd	r2, r3, [r3]
2410528e:	2100      	movs	r1, #0
24105290:	6239      	str	r1, [r7, #32]
24105292:	f403 2380 	and.w	r3, r3, #262144	@ 0x40000
24105296:	627b      	str	r3, [r7, #36]	@ 0x24
24105298:	e9d7 0108 	ldrd	r0, r1, [r7, #32]
2410529c:	4603      	mov	r3, r0
2410529e:	460a      	mov	r2, r1
241052a0:	4313      	orrs	r3, r2
241052a2:	d03b      	beq.n	2410531c <HAL_RCCEx_PeriphCLKConfig+0x241c>
  {
    /* Check the parameters */
    assert_param(IS_RCC_USBPHY1CLKSOURCE(PeriphClkInit->UsbPhy1ClockSelection));

    if (PeriphClkInit->UsbPhy1ClockSelection == RCC_USBPHY1CLKSOURCE_IC15)
241052a4:	f8d7 31b4 	ldr.w	r3, [r7, #436]	@ 0x1b4
241052a8:	f8d3 3178 	ldr.w	r3, [r3, #376]	@ 0x178
241052ac:	4a3d      	ldr	r2, [pc, #244]	@ (241053a4 <HAL_RCCEx_PeriphCLKConfig+0x24a4>)
241052ae:	4293      	cmp	r3, r2
241052b0:	d116      	bne.n	241052e0 <HAL_RCCEx_PeriphCLKConfig+0x23e0>
      /* Check the parameters */
      assert_param(IS_RCC_ICCLKSOURCE(PeriphClkInit->ICSelection[RCC_IC15].ClockSelection));
      assert_param(IS_RCC_ICCLKDIVIDER(PeriphClkInit->ICSelection[RCC_IC15].ClockDivider));

      /* Set IC15 configuration */
      MODIFY_REG(RCC->IC15CFGR, RCC_IC15CFGR_IC15SEL | RCC_IC15CFGR_IC15INT,
241052b2:	4b33      	ldr	r3, [pc, #204]	@ (24105380 <HAL_RCCEx_PeriphCLKConfig+0x2480>)
241052b4:	f8d3 30fc 	ldr.w	r3, [r3, #252]	@ 0xfc
241052b8:	f023 5343 	bic.w	r3, r3, #817889280	@ 0x30c00000
241052bc:	f423 137c 	bic.w	r3, r3, #4128768	@ 0x3f0000
241052c0:	f8d7 21b4 	ldr.w	r2, [r7, #436]	@ 0x1b4
241052c4:	6f91      	ldr	r1, [r2, #120]	@ 0x78
241052c6:	f8d7 21b4 	ldr.w	r2, [r7, #436]	@ 0x1b4
241052ca:	6fd2      	ldr	r2, [r2, #124]	@ 0x7c
241052cc:	3a01      	subs	r2, #1
241052ce:	0412      	lsls	r2, r2, #16
241052d0:	430a      	orrs	r2, r1
241052d2:	492b      	ldr	r1, [pc, #172]	@ (24105380 <HAL_RCCEx_PeriphCLKConfig+0x2480>)
241052d4:	4313      	orrs	r3, r2
241052d6:	f8c1 30fc 	str.w	r3, [r1, #252]	@ 0xfc
                 PeriphClkInit->ICSelection[RCC_IC15].ClockSelection | \
                 ((PeriphClkInit->ICSelection[RCC_IC15].ClockDivider - 1U) << RCC_IC15CFGR_IC15INT_Pos));

      LL_RCC_IC15_Enable();
241052da:	f7fd fc6f 	bl	24102bbc <LL_RCC_IC15_Enable>
241052de:	e008      	b.n	241052f2 <HAL_RCCEx_PeriphCLKConfig+0x23f2>
    }
    else if (PeriphClkInit->UsbPhy1ClockSelection == RCC_USBPHY1CLKSOURCE_CLKP)
241052e0:	f8d7 31b4 	ldr.w	r3, [r7, #436]	@ 0x1b4
241052e4:	f8d3 3178 	ldr.w	r3, [r3, #376]	@ 0x178
241052e8:	4a2f      	ldr	r2, [pc, #188]	@ (241053a8 <HAL_RCCEx_PeriphCLKConfig+0x24a8>)
241052ea:	4293      	cmp	r3, r2
241052ec:	d101      	bne.n	241052f2 <HAL_RCCEx_PeriphCLKConfig+0x23f2>
    {
      LL_RCC_CLKP_Enable();
241052ee:	f7fd fde5 	bl	24102ebc <LL_RCC_CLKP_Enable>
    {
      /* No specific enable to do on other sources */
    }

    /* Set the source of USBPHY1 clock*/
    __HAL_RCC_USBPHY1_CONFIG(PeriphClkInit->UsbPhy1ClockSelection);
241052f2:	f8d7 31b4 	ldr.w	r3, [r7, #436]	@ 0x1b4
241052f6:	f8d3 3178 	ldr.w	r3, [r3, #376]	@ 0x178
241052fa:	f023 4300 	bic.w	r3, r3, #2147483648	@ 0x80000000
241052fe:	4618      	mov	r0, r3
24105300:	f7fc fd1c 	bl	24101d3c <LL_RCC_SetOTGPHYClockSource>
24105304:	f8d7 31b4 	ldr.w	r3, [r7, #436]	@ 0x1b4
24105308:	f8d3 3178 	ldr.w	r3, [r3, #376]	@ 0x178
2410530c:	0fdb      	lsrs	r3, r3, #31
2410530e:	2b01      	cmp	r3, #1
24105310:	d102      	bne.n	24105318 <HAL_RCCEx_PeriphCLKConfig+0x2418>
24105312:	f7fc fac9 	bl	241018a8 <LL_RCC_HSE_SelectHSEDiv2AsDiv2Clock>
24105316:	e001      	b.n	2410531c <HAL_RCCEx_PeriphCLKConfig+0x241c>
24105318:	f7fc fab6 	bl	24101888 <LL_RCC_HSE_SelectHSEAsDiv2Clock>
  }

  /*------------------------------ USBPHY2 Configuration ---------------------*/
  if ((PeriphClkInit->PeriphClockSelection & RCC_PERIPHCLK_USBPHY2) == RCC_PERIPHCLK_USBPHY2)
2410531c:	f8d7 31b4 	ldr.w	r3, [r7, #436]	@ 0x1b4
24105320:	e9d3 2300 	ldrd	r2, r3, [r3]
24105324:	2100      	movs	r1, #0
24105326:	61b9      	str	r1, [r7, #24]
24105328:	f403 1380 	and.w	r3, r3, #1048576	@ 0x100000
2410532c:	61fb      	str	r3, [r7, #28]
2410532e:	e9d7 0106 	ldrd	r0, r1, [r7, #24]
24105332:	4603      	mov	r3, r0
24105334:	460a      	mov	r2, r1
24105336:	4313      	orrs	r3, r2
24105338:	d058      	beq.n	241053ec <HAL_RCCEx_PeriphCLKConfig+0x24ec>
  {
    /* Check the parameters */
    assert_param(IS_RCC_USBPHY2CLKSOURCE(PeriphClkInit->UsbPhy2ClockSelection));

    if (PeriphClkInit->UsbPhy2ClockSelection == RCC_USBPHY2CLKSOURCE_IC15)
2410533a:	f8d7 31b4 	ldr.w	r3, [r7, #436]	@ 0x1b4
2410533e:	f8d3 3180 	ldr.w	r3, [r3, #384]	@ 0x180
24105342:	4a1a      	ldr	r2, [pc, #104]	@ (241053ac <HAL_RCCEx_PeriphCLKConfig+0x24ac>)
24105344:	4293      	cmp	r3, r2
24105346:	d133      	bne.n	241053b0 <HAL_RCCEx_PeriphCLKConfig+0x24b0>
      /* Check the parameters */
      assert_param(IS_RCC_ICCLKSOURCE(PeriphClkInit->ICSelection[RCC_IC15].ClockSelection));
      assert_param(IS_RCC_ICCLKDIVIDER(PeriphClkInit->ICSelection[RCC_IC15].ClockDivider));

      /* Set IC15 configuration */
      MODIFY_REG(RCC->IC15CFGR, RCC_IC15CFGR_IC15SEL | RCC_IC15CFGR_IC15INT,
24105348:	4b0d      	ldr	r3, [pc, #52]	@ (24105380 <HAL_RCCEx_PeriphCLKConfig+0x2480>)
2410534a:	f8d3 30fc 	ldr.w	r3, [r3, #252]	@ 0xfc
2410534e:	f023 5343 	bic.w	r3, r3, #817889280	@ 0x30c00000
24105352:	f423 137c 	bic.w	r3, r3, #4128768	@ 0x3f0000
24105356:	f8d7 21b4 	ldr.w	r2, [r7, #436]	@ 0x1b4
2410535a:	6f91      	ldr	r1, [r2, #120]	@ 0x78
2410535c:	f8d7 21b4 	ldr.w	r2, [r7, #436]	@ 0x1b4
24105360:	6fd2      	ldr	r2, [r2, #124]	@ 0x7c
24105362:	3a01      	subs	r2, #1
24105364:	0412      	lsls	r2, r2, #16
24105366:	430a      	orrs	r2, r1
24105368:	4905      	ldr	r1, [pc, #20]	@ (24105380 <HAL_RCCEx_PeriphCLKConfig+0x2480>)
2410536a:	4313      	orrs	r3, r2
2410536c:	f8c1 30fc 	str.w	r3, [r1, #252]	@ 0xfc
                 PeriphClkInit->ICSelection[RCC_IC15].ClockSelection | \
                 ((PeriphClkInit->ICSelection[RCC_IC15].ClockDivider - 1U) << RCC_IC15CFGR_IC15INT_Pos));

      LL_RCC_IC15_Enable();
24105370:	f7fd fc24 	bl	24102bbc <LL_RCC_IC15_Enable>
24105374:	e025      	b.n	241053c2 <HAL_RCCEx_PeriphCLKConfig+0x24c2>
24105376:	bf00      	nop
24105378:	07011830 	.word	0x07011830
2410537c:	07021c30 	.word	0x07021c30
24105380:	46028000 	.word	0x46028000
24105384:	07031c30 	.word	0x07031c30
24105388:	07011c30 	.word	0x07011c30
2410538c:	07020034 	.word	0x07020034
24105390:	07030034 	.word	0x07030034
24105394:	07010034 	.word	0x07010034
24105398:	07020434 	.word	0x07020434
2410539c:	07030434 	.word	0x07030434
241053a0:	07010434 	.word	0x07010434
241053a4:	03020c14 	.word	0x03020c14
241053a8:	03010c14 	.word	0x03010c14
241053ac:	03021414 	.word	0x03021414
    }
    else if (PeriphClkInit->UsbPhy2ClockSelection == RCC_USBPHY2CLKSOURCE_CLKP)
241053b0:	f8d7 31b4 	ldr.w	r3, [r7, #436]	@ 0x1b4
241053b4:	f8d3 3180 	ldr.w	r3, [r3, #384]	@ 0x180
241053b8:	4a42      	ldr	r2, [pc, #264]	@ (241054c4 <HAL_RCCEx_PeriphCLKConfig+0x25c4>)
241053ba:	4293      	cmp	r3, r2
241053bc:	d101      	bne.n	241053c2 <HAL_RCCEx_PeriphCLKConfig+0x24c2>
    {
      LL_RCC_CLKP_Enable();
241053be:	f7fd fd7d 	bl	24102ebc <LL_RCC_CLKP_Enable>
    {
      /* No specific enable to do on other sources */
    }

    /* Set the source of USBPHY2 clock*/
    __HAL_RCC_USBPHY2_CONFIG(PeriphClkInit->UsbPhy2ClockSelection);
241053c2:	f8d7 31b4 	ldr.w	r3, [r7, #436]	@ 0x1b4
241053c6:	f8d3 3180 	ldr.w	r3, [r3, #384]	@ 0x180
241053ca:	f023 4300 	bic.w	r3, r3, #2147483648	@ 0x80000000
241053ce:	4618      	mov	r0, r3
241053d0:	f7fc fcb4 	bl	24101d3c <LL_RCC_SetOTGPHYClockSource>
241053d4:	f8d7 31b4 	ldr.w	r3, [r7, #436]	@ 0x1b4
241053d8:	f8d3 3180 	ldr.w	r3, [r3, #384]	@ 0x180
241053dc:	0fdb      	lsrs	r3, r3, #31
241053de:	2b01      	cmp	r3, #1
241053e0:	d102      	bne.n	241053e8 <HAL_RCCEx_PeriphCLKConfig+0x24e8>
241053e2:	f7fc fa61 	bl	241018a8 <LL_RCC_HSE_SelectHSEDiv2AsDiv2Clock>
241053e6:	e001      	b.n	241053ec <HAL_RCCEx_PeriphCLKConfig+0x24ec>
241053e8:	f7fc fa4e 	bl	24101888 <LL_RCC_HSE_SelectHSEAsDiv2Clock>
  }

  /*------------------------------ USBOTGHS1 Configuration -------------------*/
  if ((PeriphClkInit->PeriphClockSelection & RCC_PERIPHCLK_USBOTGHS1) == RCC_PERIPHCLK_USBOTGHS1)
241053ec:	f8d7 31b4 	ldr.w	r3, [r7, #436]	@ 0x1b4
241053f0:	e9d3 2300 	ldrd	r2, r3, [r3]
241053f4:	2100      	movs	r1, #0
241053f6:	6139      	str	r1, [r7, #16]
241053f8:	f403 2300 	and.w	r3, r3, #524288	@ 0x80000
241053fc:	617b      	str	r3, [r7, #20]
241053fe:	e9d7 0104 	ldrd	r0, r1, [r7, #16]
24105402:	4603      	mov	r3, r0
24105404:	460a      	mov	r2, r1
24105406:	4313      	orrs	r3, r2
24105408:	d014      	beq.n	24105434 <HAL_RCCEx_PeriphCLKConfig+0x2534>
  {
    /* Check the parameters */
    assert_param(IS_RCC_USBOTGHS1CLKSOURCE(PeriphClkInit->UsbOtgHs1ClockSelection));

    /* Set the source of USBOTGHS1 clock */
    __HAL_RCC_USBOTGHS1_CONFIG(PeriphClkInit->UsbOtgHs1ClockSelection);
2410540a:	f8d7 31b4 	ldr.w	r3, [r7, #436]	@ 0x1b4
2410540e:	f8d3 317c 	ldr.w	r3, [r3, #380]	@ 0x17c
24105412:	f023 4300 	bic.w	r3, r3, #2147483648	@ 0x80000000
24105416:	4618      	mov	r0, r3
24105418:	f7fc fc9b 	bl	24101d52 <LL_RCC_SetOTGPHYCKREFClockSource>
2410541c:	f8d7 31b4 	ldr.w	r3, [r7, #436]	@ 0x1b4
24105420:	f8d3 317c 	ldr.w	r3, [r3, #380]	@ 0x17c
24105424:	0fdb      	lsrs	r3, r3, #31
24105426:	2b01      	cmp	r3, #1
24105428:	d102      	bne.n	24105430 <HAL_RCCEx_PeriphCLKConfig+0x2530>
2410542a:	f7fc fa3d 	bl	241018a8 <LL_RCC_HSE_SelectHSEDiv2AsDiv2Clock>
2410542e:	e001      	b.n	24105434 <HAL_RCCEx_PeriphCLKConfig+0x2534>
24105430:	f7fc fa2a 	bl	24101888 <LL_RCC_HSE_SelectHSEAsDiv2Clock>
  }

  /*------------------------------ USBOTGHS2 Configuration -------------------*/
  if ((PeriphClkInit->PeriphClockSelection & RCC_PERIPHCLK_USBOTGHS2) == RCC_PERIPHCLK_USBOTGHS2)
24105434:	f8d7 31b4 	ldr.w	r3, [r7, #436]	@ 0x1b4
24105438:	e9d3 2300 	ldrd	r2, r3, [r3]
2410543c:	2100      	movs	r1, #0
2410543e:	60b9      	str	r1, [r7, #8]
24105440:	f403 1300 	and.w	r3, r3, #2097152	@ 0x200000
24105444:	60fb      	str	r3, [r7, #12]
24105446:	e9d7 0102 	ldrd	r0, r1, [r7, #8]
2410544a:	4603      	mov	r3, r0
2410544c:	460a      	mov	r2, r1
2410544e:	4313      	orrs	r3, r2
24105450:	d014      	beq.n	2410547c <HAL_RCCEx_PeriphCLKConfig+0x257c>
  {
    /* Check the parameters */
    assert_param(IS_RCC_USBOTGHS2CLKSOURCE(PeriphClkInit->UsbOtgHs2ClockSelection));

    /* Set the source of USBOTGHS2 clock */
    __HAL_RCC_USBOTGHS2_CONFIG(PeriphClkInit->UsbOtgHs2ClockSelection);
24105452:	f8d7 31b4 	ldr.w	r3, [r7, #436]	@ 0x1b4
24105456:	f8d3 3184 	ldr.w	r3, [r3, #388]	@ 0x184
2410545a:	f023 4300 	bic.w	r3, r3, #2147483648	@ 0x80000000
2410545e:	4618      	mov	r0, r3
24105460:	f7fc fc77 	bl	24101d52 <LL_RCC_SetOTGPHYCKREFClockSource>
24105464:	f8d7 31b4 	ldr.w	r3, [r7, #436]	@ 0x1b4
24105468:	f8d3 3184 	ldr.w	r3, [r3, #388]	@ 0x184
2410546c:	0fdb      	lsrs	r3, r3, #31
2410546e:	2b01      	cmp	r3, #1
24105470:	d102      	bne.n	24105478 <HAL_RCCEx_PeriphCLKConfig+0x2578>
24105472:	f7fc fa19 	bl	241018a8 <LL_RCC_HSE_SelectHSEDiv2AsDiv2Clock>
24105476:	e001      	b.n	2410547c <HAL_RCCEx_PeriphCLKConfig+0x257c>
24105478:	f7fc fa06 	bl	24101888 <LL_RCC_HSE_SelectHSEAsDiv2Clock>
  }

  /*------------------------------------ TIM configuration --------------------------------------*/
  if ((PeriphClkInit->PeriphClockSelection & RCC_PERIPHCLK_TIM) == RCC_PERIPHCLK_TIM)
2410547c:	f8d7 31b4 	ldr.w	r3, [r7, #436]	@ 0x1b4
24105480:	e9d3 2300 	ldrd	r2, r3, [r3]
24105484:	2100      	movs	r1, #0
24105486:	6039      	str	r1, [r7, #0]
24105488:	f003 0380 	and.w	r3, r3, #128	@ 0x80
2410548c:	607b      	str	r3, [r7, #4]
2410548e:	e9d7 0100 	ldrd	r0, r1, [r7]
24105492:	4603      	mov	r3, r0
24105494:	460a      	mov	r2, r1
24105496:	4313      	orrs	r3, r2
24105498:	d006      	beq.n	241054a8 <HAL_RCCEx_PeriphCLKConfig+0x25a8>
  {
    /* Check the parameters */
    assert_param(IS_RCC_TIMPRES(PeriphClkInit->TIMPresSelection));

    /* Configure Timer Prescaler */
    __HAL_RCC_TIMCLKPRESCALER_CONFIG(PeriphClkInit->TIMPresSelection);
2410549a:	f8d7 31b4 	ldr.w	r3, [r7, #436]	@ 0x1b4
2410549e:	f8d3 318c 	ldr.w	r3, [r3, #396]	@ 0x18c
241054a2:	4618      	mov	r0, r3
241054a4:	f7fc fe86 	bl	241021b4 <LL_RCC_SetTIMPrescaler>
  }

  if (status == HAL_OK)
241054a8:	f897 31c6 	ldrb.w	r3, [r7, #454]	@ 0x1c6
241054ac:	2b00      	cmp	r3, #0
241054ae:	d101      	bne.n	241054b4 <HAL_RCCEx_PeriphCLKConfig+0x25b4>
  {
    return HAL_OK;
241054b0:	2300      	movs	r3, #0
241054b2:	e000      	b.n	241054b6 <HAL_RCCEx_PeriphCLKConfig+0x25b6>
  }
  return HAL_ERROR;
241054b4:	2301      	movs	r3, #1
}
241054b6:	4618      	mov	r0, r3
241054b8:	f507 77e4 	add.w	r7, r7, #456	@ 0x1c8
241054bc:	46bd      	mov	sp, r7
241054be:	e8bd 8fb0 	ldmia.w	sp!, {r4, r5, r7, r8, r9, sl, fp, pc}
241054c2:	bf00      	nop
241054c4:	03011414 	.word	0x03011414

241054c8 <HAL_RCCEx_GetPeriphCLKFreq>:
  *            @arg RCC_PERIPHCLK_XSPI2    : XSPI2 peripheral clock
  *            @arg RCC_PERIPHCLK_XSPI3    : XSPI3 peripheral clock
  * @retval Frequency in Hz
  */
uint32_t HAL_RCCEx_GetPeriphCLKFreq(uint64_t PeriphClk)
{
241054c8:	b590      	push	{r4, r7, lr}
241054ca:	b085      	sub	sp, #20
241054cc:	af00      	add	r7, sp, #0
241054ce:	e9c7 0100 	strd	r0, r1, [r7]
  uint32_t frequency = 0;   /* Set to 0 for returned value if no source clock */
241054d2:	2100      	movs	r1, #0
241054d4:	60f9      	str	r1, [r7, #12]

  switch (PeriphClk)
241054d6:	e9d7 0100 	ldrd	r0, r1, [r7]
241054da:	f101 447f 	add.w	r4, r1, #4278190080	@ 0xff000000
241054de:	ea50 0104 	orrs.w	r1, r0, r4
241054e2:	f000 8436 	beq.w	24105d52 <HAL_RCCEx_GetPeriphCLKFreq+0x88a>
241054e6:	e9d7 0100 	ldrd	r0, r1, [r7]
241054ea:	2801      	cmp	r0, #1
241054ec:	f171 7180 	sbcs.w	r1, r1, #16777216	@ 0x1000000
241054f0:	f080 8434 	bcs.w	24105d5c <HAL_RCCEx_GetPeriphCLKFreq+0x894>
241054f4:	e9d7 0100 	ldrd	r0, r1, [r7]
241054f8:	f5a1 0400 	sub.w	r4, r1, #8388608	@ 0x800000
241054fc:	ea50 0104 	orrs.w	r1, r0, r4
24105500:	f000 8422 	beq.w	24105d48 <HAL_RCCEx_GetPeriphCLKFreq+0x880>
24105504:	e9d7 0100 	ldrd	r0, r1, [r7]
24105508:	2801      	cmp	r0, #1
2410550a:	f571 0100 	sbcs.w	r1, r1, #8388608	@ 0x800000
2410550e:	f080 8425 	bcs.w	24105d5c <HAL_RCCEx_GetPeriphCLKFreq+0x894>
24105512:	e9d7 0100 	ldrd	r0, r1, [r7]
24105516:	f5a1 0480 	sub.w	r4, r1, #4194304	@ 0x400000
2410551a:	ea50 0104 	orrs.w	r1, r0, r4
2410551e:	f000 840e 	beq.w	24105d3e <HAL_RCCEx_GetPeriphCLKFreq+0x876>
24105522:	e9d7 0100 	ldrd	r0, r1, [r7]
24105526:	2801      	cmp	r0, #1
24105528:	f571 0180 	sbcs.w	r1, r1, #4194304	@ 0x400000
2410552c:	f080 8416 	bcs.w	24105d5c <HAL_RCCEx_GetPeriphCLKFreq+0x894>
24105530:	e9d7 0100 	ldrd	r0, r1, [r7]
24105534:	f5a1 1400 	sub.w	r4, r1, #2097152	@ 0x200000
24105538:	ea50 0104 	orrs.w	r1, r0, r4
2410553c:	f000 83fa 	beq.w	24105d34 <HAL_RCCEx_GetPeriphCLKFreq+0x86c>
24105540:	e9d7 0100 	ldrd	r0, r1, [r7]
24105544:	2801      	cmp	r0, #1
24105546:	f571 1100 	sbcs.w	r1, r1, #2097152	@ 0x200000
2410554a:	f080 8407 	bcs.w	24105d5c <HAL_RCCEx_GetPeriphCLKFreq+0x894>
2410554e:	e9d7 0100 	ldrd	r0, r1, [r7]
24105552:	f5a1 1480 	sub.w	r4, r1, #1048576	@ 0x100000
24105556:	ea50 0104 	orrs.w	r1, r0, r4
2410555a:	f000 83e6 	beq.w	24105d2a <HAL_RCCEx_GetPeriphCLKFreq+0x862>
2410555e:	e9d7 0100 	ldrd	r0, r1, [r7]
24105562:	2801      	cmp	r0, #1
24105564:	f571 1180 	sbcs.w	r1, r1, #1048576	@ 0x100000
24105568:	f080 83f8 	bcs.w	24105d5c <HAL_RCCEx_GetPeriphCLKFreq+0x894>
2410556c:	e9d7 0100 	ldrd	r0, r1, [r7]
24105570:	f5a1 2400 	sub.w	r4, r1, #524288	@ 0x80000
24105574:	ea50 0104 	orrs.w	r1, r0, r4
24105578:	f000 83d2 	beq.w	24105d20 <HAL_RCCEx_GetPeriphCLKFreq+0x858>
2410557c:	e9d7 0100 	ldrd	r0, r1, [r7]
24105580:	2801      	cmp	r0, #1
24105582:	f571 2100 	sbcs.w	r1, r1, #524288	@ 0x80000
24105586:	f080 83e9 	bcs.w	24105d5c <HAL_RCCEx_GetPeriphCLKFreq+0x894>
2410558a:	e9d7 0100 	ldrd	r0, r1, [r7]
2410558e:	f5a1 2480 	sub.w	r4, r1, #262144	@ 0x40000
24105592:	ea50 0104 	orrs.w	r1, r0, r4
24105596:	f000 83be 	beq.w	24105d16 <HAL_RCCEx_GetPeriphCLKFreq+0x84e>
2410559a:	e9d7 0100 	ldrd	r0, r1, [r7]
2410559e:	2801      	cmp	r0, #1
241055a0:	f571 2180 	sbcs.w	r1, r1, #262144	@ 0x40000
241055a4:	f080 83da 	bcs.w	24105d5c <HAL_RCCEx_GetPeriphCLKFreq+0x894>
241055a8:	e9d7 0100 	ldrd	r0, r1, [r7]
241055ac:	f5a1 3400 	sub.w	r4, r1, #131072	@ 0x20000
241055b0:	ea50 0104 	orrs.w	r1, r0, r4
241055b4:	f000 83aa 	beq.w	24105d0c <HAL_RCCEx_GetPeriphCLKFreq+0x844>
241055b8:	e9d7 0100 	ldrd	r0, r1, [r7]
241055bc:	2801      	cmp	r0, #1
241055be:	f571 3100 	sbcs.w	r1, r1, #131072	@ 0x20000
241055c2:	f080 83cb 	bcs.w	24105d5c <HAL_RCCEx_GetPeriphCLKFreq+0x894>
241055c6:	e9d7 0100 	ldrd	r0, r1, [r7]
241055ca:	f5a1 3480 	sub.w	r4, r1, #65536	@ 0x10000
241055ce:	ea50 0104 	orrs.w	r1, r0, r4
241055d2:	f000 8396 	beq.w	24105d02 <HAL_RCCEx_GetPeriphCLKFreq+0x83a>
241055d6:	e9d7 0100 	ldrd	r0, r1, [r7]
241055da:	2801      	cmp	r0, #1
241055dc:	f571 3180 	sbcs.w	r1, r1, #65536	@ 0x10000
241055e0:	f080 83bc 	bcs.w	24105d5c <HAL_RCCEx_GetPeriphCLKFreq+0x894>
241055e4:	e9d7 0100 	ldrd	r0, r1, [r7]
241055e8:	f5a1 4400 	sub.w	r4, r1, #32768	@ 0x8000
241055ec:	ea50 0104 	orrs.w	r1, r0, r4
241055f0:	f000 8382 	beq.w	24105cf8 <HAL_RCCEx_GetPeriphCLKFreq+0x830>
241055f4:	e9d7 0100 	ldrd	r0, r1, [r7]
241055f8:	2801      	cmp	r0, #1
241055fa:	f571 4100 	sbcs.w	r1, r1, #32768	@ 0x8000
241055fe:	f080 83ad 	bcs.w	24105d5c <HAL_RCCEx_GetPeriphCLKFreq+0x894>
24105602:	e9d7 0100 	ldrd	r0, r1, [r7]
24105606:	f5a1 4480 	sub.w	r4, r1, #16384	@ 0x4000
2410560a:	ea50 0104 	orrs.w	r1, r0, r4
2410560e:	f000 836e 	beq.w	24105cee <HAL_RCCEx_GetPeriphCLKFreq+0x826>
24105612:	e9d7 0100 	ldrd	r0, r1, [r7]
24105616:	2801      	cmp	r0, #1
24105618:	f571 4180 	sbcs.w	r1, r1, #16384	@ 0x4000
2410561c:	f080 839e 	bcs.w	24105d5c <HAL_RCCEx_GetPeriphCLKFreq+0x894>
24105620:	e9d7 0100 	ldrd	r0, r1, [r7]
24105624:	f5a1 5400 	sub.w	r4, r1, #8192	@ 0x2000
24105628:	ea50 0104 	orrs.w	r1, r0, r4
2410562c:	f000 835a 	beq.w	24105ce4 <HAL_RCCEx_GetPeriphCLKFreq+0x81c>
24105630:	e9d7 0100 	ldrd	r0, r1, [r7]
24105634:	2801      	cmp	r0, #1
24105636:	f571 5100 	sbcs.w	r1, r1, #8192	@ 0x2000
2410563a:	f080 838f 	bcs.w	24105d5c <HAL_RCCEx_GetPeriphCLKFreq+0x894>
2410563e:	e9d7 0100 	ldrd	r0, r1, [r7]
24105642:	f5a1 5480 	sub.w	r4, r1, #4096	@ 0x1000
24105646:	ea50 0104 	orrs.w	r1, r0, r4
2410564a:	f000 8346 	beq.w	24105cda <HAL_RCCEx_GetPeriphCLKFreq+0x812>
2410564e:	e9d7 0100 	ldrd	r0, r1, [r7]
24105652:	2801      	cmp	r0, #1
24105654:	f571 5180 	sbcs.w	r1, r1, #4096	@ 0x1000
24105658:	f080 8380 	bcs.w	24105d5c <HAL_RCCEx_GetPeriphCLKFreq+0x894>
2410565c:	e9d7 0100 	ldrd	r0, r1, [r7]
24105660:	f5a1 6400 	sub.w	r4, r1, #2048	@ 0x800
24105664:	ea50 0104 	orrs.w	r1, r0, r4
24105668:	f000 8332 	beq.w	24105cd0 <HAL_RCCEx_GetPeriphCLKFreq+0x808>
2410566c:	e9d7 0100 	ldrd	r0, r1, [r7]
24105670:	2801      	cmp	r0, #1
24105672:	f571 6100 	sbcs.w	r1, r1, #2048	@ 0x800
24105676:	f080 8371 	bcs.w	24105d5c <HAL_RCCEx_GetPeriphCLKFreq+0x894>
2410567a:	e9d7 0100 	ldrd	r0, r1, [r7]
2410567e:	f5a1 6480 	sub.w	r4, r1, #1024	@ 0x400
24105682:	ea50 0104 	orrs.w	r1, r0, r4
24105686:	f000 831e 	beq.w	24105cc6 <HAL_RCCEx_GetPeriphCLKFreq+0x7fe>
2410568a:	e9d7 0100 	ldrd	r0, r1, [r7]
2410568e:	2801      	cmp	r0, #1
24105690:	f571 6180 	sbcs.w	r1, r1, #1024	@ 0x400
24105694:	f080 8362 	bcs.w	24105d5c <HAL_RCCEx_GetPeriphCLKFreq+0x894>
24105698:	e9d7 0100 	ldrd	r0, r1, [r7]
2410569c:	f5a1 7400 	sub.w	r4, r1, #512	@ 0x200
241056a0:	ea50 0104 	orrs.w	r1, r0, r4
241056a4:	f000 830a 	beq.w	24105cbc <HAL_RCCEx_GetPeriphCLKFreq+0x7f4>
241056a8:	e9d7 0100 	ldrd	r0, r1, [r7]
241056ac:	2801      	cmp	r0, #1
241056ae:	f571 7100 	sbcs.w	r1, r1, #512	@ 0x200
241056b2:	f080 8353 	bcs.w	24105d5c <HAL_RCCEx_GetPeriphCLKFreq+0x894>
241056b6:	e9d7 0100 	ldrd	r0, r1, [r7]
241056ba:	f5a1 7480 	sub.w	r4, r1, #256	@ 0x100
241056be:	ea50 0104 	orrs.w	r1, r0, r4
241056c2:	f000 82f6 	beq.w	24105cb2 <HAL_RCCEx_GetPeriphCLKFreq+0x7ea>
241056c6:	e9d7 0100 	ldrd	r0, r1, [r7]
241056ca:	2801      	cmp	r0, #1
241056cc:	f571 7180 	sbcs.w	r1, r1, #256	@ 0x100
241056d0:	f080 8344 	bcs.w	24105d5c <HAL_RCCEx_GetPeriphCLKFreq+0x894>
241056d4:	e9d7 0100 	ldrd	r0, r1, [r7]
241056d8:	f1a1 0440 	sub.w	r4, r1, #64	@ 0x40
241056dc:	ea50 0104 	orrs.w	r1, r0, r4
241056e0:	f000 82e2 	beq.w	24105ca8 <HAL_RCCEx_GetPeriphCLKFreq+0x7e0>
241056e4:	e9d7 0100 	ldrd	r0, r1, [r7]
241056e8:	2801      	cmp	r0, #1
241056ea:	f171 0140 	sbcs.w	r1, r1, #64	@ 0x40
241056ee:	f080 8335 	bcs.w	24105d5c <HAL_RCCEx_GetPeriphCLKFreq+0x894>
241056f2:	e9d7 0100 	ldrd	r0, r1, [r7]
241056f6:	f1a1 0420 	sub.w	r4, r1, #32
241056fa:	ea50 0104 	orrs.w	r1, r0, r4
241056fe:	f000 82ce 	beq.w	24105c9e <HAL_RCCEx_GetPeriphCLKFreq+0x7d6>
24105702:	e9d7 0100 	ldrd	r0, r1, [r7]
24105706:	2801      	cmp	r0, #1
24105708:	f171 0120 	sbcs.w	r1, r1, #32
2410570c:	f080 8326 	bcs.w	24105d5c <HAL_RCCEx_GetPeriphCLKFreq+0x894>
24105710:	e9d7 0100 	ldrd	r0, r1, [r7]
24105714:	f1a1 0410 	sub.w	r4, r1, #16
24105718:	ea50 0104 	orrs.w	r1, r0, r4
2410571c:	f000 82ba 	beq.w	24105c94 <HAL_RCCEx_GetPeriphCLKFreq+0x7cc>
24105720:	e9d7 0100 	ldrd	r0, r1, [r7]
24105724:	2801      	cmp	r0, #1
24105726:	f171 0110 	sbcs.w	r1, r1, #16
2410572a:	f080 8317 	bcs.w	24105d5c <HAL_RCCEx_GetPeriphCLKFreq+0x894>
2410572e:	e9d7 0100 	ldrd	r0, r1, [r7]
24105732:	f1a1 0408 	sub.w	r4, r1, #8
24105736:	ea50 0104 	orrs.w	r1, r0, r4
2410573a:	f000 82a6 	beq.w	24105c8a <HAL_RCCEx_GetPeriphCLKFreq+0x7c2>
2410573e:	e9d7 0100 	ldrd	r0, r1, [r7]
24105742:	2801      	cmp	r0, #1
24105744:	f171 0108 	sbcs.w	r1, r1, #8
24105748:	f080 8308 	bcs.w	24105d5c <HAL_RCCEx_GetPeriphCLKFreq+0x894>
2410574c:	e9d7 0100 	ldrd	r0, r1, [r7]
24105750:	1f0c      	subs	r4, r1, #4
24105752:	ea50 0104 	orrs.w	r1, r0, r4
24105756:	f000 8293 	beq.w	24105c80 <HAL_RCCEx_GetPeriphCLKFreq+0x7b8>
2410575a:	e9d7 0100 	ldrd	r0, r1, [r7]
2410575e:	2801      	cmp	r0, #1
24105760:	f171 0104 	sbcs.w	r1, r1, #4
24105764:	f080 82fa 	bcs.w	24105d5c <HAL_RCCEx_GetPeriphCLKFreq+0x894>
24105768:	e9d7 0100 	ldrd	r0, r1, [r7]
2410576c:	1e8c      	subs	r4, r1, #2
2410576e:	ea50 0104 	orrs.w	r1, r0, r4
24105772:	f000 8280 	beq.w	24105c76 <HAL_RCCEx_GetPeriphCLKFreq+0x7ae>
24105776:	e9d7 0100 	ldrd	r0, r1, [r7]
2410577a:	2801      	cmp	r0, #1
2410577c:	f171 0102 	sbcs.w	r1, r1, #2
24105780:	f080 82ec 	bcs.w	24105d5c <HAL_RCCEx_GetPeriphCLKFreq+0x894>
24105784:	e9d7 0100 	ldrd	r0, r1, [r7]
24105788:	1e4c      	subs	r4, r1, #1
2410578a:	ea50 0104 	orrs.w	r1, r0, r4
2410578e:	f000 826d 	beq.w	24105c6c <HAL_RCCEx_GetPeriphCLKFreq+0x7a4>
24105792:	e9d7 0100 	ldrd	r0, r1, [r7]
24105796:	2801      	cmp	r0, #1
24105798:	f171 0101 	sbcs.w	r1, r1, #1
2410579c:	f080 82de 	bcs.w	24105d5c <HAL_RCCEx_GetPeriphCLKFreq+0x894>
241057a0:	e9d7 0100 	ldrd	r0, r1, [r7]
241057a4:	f100 4400 	add.w	r4, r0, #2147483648	@ 0x80000000
241057a8:	4321      	orrs	r1, r4
241057aa:	f000 825a 	beq.w	24105c62 <HAL_RCCEx_GetPeriphCLKFreq+0x79a>
241057ae:	e9d7 0100 	ldrd	r0, r1, [r7]
241057b2:	4cda      	ldr	r4, [pc, #872]	@ (24105b1c <HAL_RCCEx_GetPeriphCLKFreq+0x654>)
241057b4:	42a0      	cmp	r0, r4
241057b6:	f171 0100 	sbcs.w	r1, r1, #0
241057ba:	f080 82cf 	bcs.w	24105d5c <HAL_RCCEx_GetPeriphCLKFreq+0x894>
241057be:	e9d7 0100 	ldrd	r0, r1, [r7]
241057c2:	f100 4440 	add.w	r4, r0, #3221225472	@ 0xc0000000
241057c6:	4321      	orrs	r1, r4
241057c8:	f000 8246 	beq.w	24105c58 <HAL_RCCEx_GetPeriphCLKFreq+0x790>
241057cc:	e9d7 0100 	ldrd	r0, r1, [r7]
241057d0:	4cd3      	ldr	r4, [pc, #844]	@ (24105b20 <HAL_RCCEx_GetPeriphCLKFreq+0x658>)
241057d2:	42a0      	cmp	r0, r4
241057d4:	f171 0100 	sbcs.w	r1, r1, #0
241057d8:	f080 82c0 	bcs.w	24105d5c <HAL_RCCEx_GetPeriphCLKFreq+0x894>
241057dc:	e9d7 0100 	ldrd	r0, r1, [r7]
241057e0:	f100 4460 	add.w	r4, r0, #3758096384	@ 0xe0000000
241057e4:	4321      	orrs	r1, r4
241057e6:	f000 8232 	beq.w	24105c4e <HAL_RCCEx_GetPeriphCLKFreq+0x786>
241057ea:	e9d7 0100 	ldrd	r0, r1, [r7]
241057ee:	4ccd      	ldr	r4, [pc, #820]	@ (24105b24 <HAL_RCCEx_GetPeriphCLKFreq+0x65c>)
241057f0:	42a0      	cmp	r0, r4
241057f2:	f171 0100 	sbcs.w	r1, r1, #0
241057f6:	f080 82b1 	bcs.w	24105d5c <HAL_RCCEx_GetPeriphCLKFreq+0x894>
241057fa:	e9d7 0100 	ldrd	r0, r1, [r7]
241057fe:	f100 4470 	add.w	r4, r0, #4026531840	@ 0xf0000000
24105802:	4321      	orrs	r1, r4
24105804:	f000 821e 	beq.w	24105c44 <HAL_RCCEx_GetPeriphCLKFreq+0x77c>
24105808:	e9d7 0100 	ldrd	r0, r1, [r7]
2410580c:	4cc6      	ldr	r4, [pc, #792]	@ (24105b28 <HAL_RCCEx_GetPeriphCLKFreq+0x660>)
2410580e:	42a0      	cmp	r0, r4
24105810:	f171 0100 	sbcs.w	r1, r1, #0
24105814:	f080 82a2 	bcs.w	24105d5c <HAL_RCCEx_GetPeriphCLKFreq+0x894>
24105818:	e9d7 0100 	ldrd	r0, r1, [r7]
2410581c:	f100 4478 	add.w	r4, r0, #4160749568	@ 0xf8000000
24105820:	4321      	orrs	r1, r4
24105822:	f000 820b 	beq.w	24105c3c <HAL_RCCEx_GetPeriphCLKFreq+0x774>
24105826:	e9d7 0100 	ldrd	r0, r1, [r7]
2410582a:	4cc0      	ldr	r4, [pc, #768]	@ (24105b2c <HAL_RCCEx_GetPeriphCLKFreq+0x664>)
2410582c:	42a0      	cmp	r0, r4
2410582e:	f171 0100 	sbcs.w	r1, r1, #0
24105832:	f080 8293 	bcs.w	24105d5c <HAL_RCCEx_GetPeriphCLKFreq+0x894>
24105836:	e9d7 0100 	ldrd	r0, r1, [r7]
2410583a:	f100 447c 	add.w	r4, r0, #4227858432	@ 0xfc000000
2410583e:	4321      	orrs	r1, r4
24105840:	f000 81f7 	beq.w	24105c32 <HAL_RCCEx_GetPeriphCLKFreq+0x76a>
24105844:	e9d7 0100 	ldrd	r0, r1, [r7]
24105848:	4cb9      	ldr	r4, [pc, #740]	@ (24105b30 <HAL_RCCEx_GetPeriphCLKFreq+0x668>)
2410584a:	42a0      	cmp	r0, r4
2410584c:	f171 0100 	sbcs.w	r1, r1, #0
24105850:	f080 8284 	bcs.w	24105d5c <HAL_RCCEx_GetPeriphCLKFreq+0x894>
24105854:	e9d7 0100 	ldrd	r0, r1, [r7]
24105858:	f100 447e 	add.w	r4, r0, #4261412864	@ 0xfe000000
2410585c:	4321      	orrs	r1, r4
2410585e:	f000 81e2 	beq.w	24105c26 <HAL_RCCEx_GetPeriphCLKFreq+0x75e>
24105862:	e9d7 0100 	ldrd	r0, r1, [r7]
24105866:	4cb3      	ldr	r4, [pc, #716]	@ (24105b34 <HAL_RCCEx_GetPeriphCLKFreq+0x66c>)
24105868:	42a0      	cmp	r0, r4
2410586a:	f171 0100 	sbcs.w	r1, r1, #0
2410586e:	f080 8275 	bcs.w	24105d5c <HAL_RCCEx_GetPeriphCLKFreq+0x894>
24105872:	e9d7 0100 	ldrd	r0, r1, [r7]
24105876:	f100 447f 	add.w	r4, r0, #4278190080	@ 0xff000000
2410587a:	4321      	orrs	r1, r4
2410587c:	f000 81cd 	beq.w	24105c1a <HAL_RCCEx_GetPeriphCLKFreq+0x752>
24105880:	e9d7 0100 	ldrd	r0, r1, [r7]
24105884:	4cac      	ldr	r4, [pc, #688]	@ (24105b38 <HAL_RCCEx_GetPeriphCLKFreq+0x670>)
24105886:	42a0      	cmp	r0, r4
24105888:	f171 0100 	sbcs.w	r1, r1, #0
2410588c:	f080 8266 	bcs.w	24105d5c <HAL_RCCEx_GetPeriphCLKFreq+0x894>
24105890:	e9d7 0100 	ldrd	r0, r1, [r7]
24105894:	f5a0 0400 	sub.w	r4, r0, #8388608	@ 0x800000
24105898:	4321      	orrs	r1, r4
2410589a:	f000 81b8 	beq.w	24105c0e <HAL_RCCEx_GetPeriphCLKFreq+0x746>
2410589e:	e9d7 0100 	ldrd	r0, r1, [r7]
241058a2:	4ca6      	ldr	r4, [pc, #664]	@ (24105b3c <HAL_RCCEx_GetPeriphCLKFreq+0x674>)
241058a4:	42a0      	cmp	r0, r4
241058a6:	f171 0100 	sbcs.w	r1, r1, #0
241058aa:	f080 8257 	bcs.w	24105d5c <HAL_RCCEx_GetPeriphCLKFreq+0x894>
241058ae:	e9d7 0100 	ldrd	r0, r1, [r7]
241058b2:	f5a0 0480 	sub.w	r4, r0, #4194304	@ 0x400000
241058b6:	4321      	orrs	r1, r4
241058b8:	f000 81a4 	beq.w	24105c04 <HAL_RCCEx_GetPeriphCLKFreq+0x73c>
241058bc:	e9d7 0100 	ldrd	r0, r1, [r7]
241058c0:	4c9f      	ldr	r4, [pc, #636]	@ (24105b40 <HAL_RCCEx_GetPeriphCLKFreq+0x678>)
241058c2:	42a0      	cmp	r0, r4
241058c4:	f171 0100 	sbcs.w	r1, r1, #0
241058c8:	f080 8248 	bcs.w	24105d5c <HAL_RCCEx_GetPeriphCLKFreq+0x894>
241058cc:	e9d7 0100 	ldrd	r0, r1, [r7]
241058d0:	f5a0 1400 	sub.w	r4, r0, #2097152	@ 0x200000
241058d4:	4321      	orrs	r1, r4
241058d6:	f000 8190 	beq.w	24105bfa <HAL_RCCEx_GetPeriphCLKFreq+0x732>
241058da:	e9d7 0100 	ldrd	r0, r1, [r7]
241058de:	4c99      	ldr	r4, [pc, #612]	@ (24105b44 <HAL_RCCEx_GetPeriphCLKFreq+0x67c>)
241058e0:	42a0      	cmp	r0, r4
241058e2:	f171 0100 	sbcs.w	r1, r1, #0
241058e6:	f080 8239 	bcs.w	24105d5c <HAL_RCCEx_GetPeriphCLKFreq+0x894>
241058ea:	e9d7 0100 	ldrd	r0, r1, [r7]
241058ee:	f5a0 1480 	sub.w	r4, r0, #1048576	@ 0x100000
241058f2:	4321      	orrs	r1, r4
241058f4:	f000 817c 	beq.w	24105bf0 <HAL_RCCEx_GetPeriphCLKFreq+0x728>
241058f8:	e9d7 0100 	ldrd	r0, r1, [r7]
241058fc:	4c92      	ldr	r4, [pc, #584]	@ (24105b48 <HAL_RCCEx_GetPeriphCLKFreq+0x680>)
241058fe:	42a0      	cmp	r0, r4
24105900:	f171 0100 	sbcs.w	r1, r1, #0
24105904:	f080 822a 	bcs.w	24105d5c <HAL_RCCEx_GetPeriphCLKFreq+0x894>
24105908:	e9d7 0100 	ldrd	r0, r1, [r7]
2410590c:	f5a0 2400 	sub.w	r4, r0, #524288	@ 0x80000
24105910:	4321      	orrs	r1, r4
24105912:	f000 8168 	beq.w	24105be6 <HAL_RCCEx_GetPeriphCLKFreq+0x71e>
24105916:	e9d7 0100 	ldrd	r0, r1, [r7]
2410591a:	4c8c      	ldr	r4, [pc, #560]	@ (24105b4c <HAL_RCCEx_GetPeriphCLKFreq+0x684>)
2410591c:	42a0      	cmp	r0, r4
2410591e:	f171 0100 	sbcs.w	r1, r1, #0
24105922:	f080 821b 	bcs.w	24105d5c <HAL_RCCEx_GetPeriphCLKFreq+0x894>
24105926:	e9d7 0100 	ldrd	r0, r1, [r7]
2410592a:	f5a0 2480 	sub.w	r4, r0, #262144	@ 0x40000
2410592e:	4321      	orrs	r1, r4
24105930:	f000 8154 	beq.w	24105bdc <HAL_RCCEx_GetPeriphCLKFreq+0x714>
24105934:	e9d7 0100 	ldrd	r0, r1, [r7]
24105938:	4c85      	ldr	r4, [pc, #532]	@ (24105b50 <HAL_RCCEx_GetPeriphCLKFreq+0x688>)
2410593a:	42a0      	cmp	r0, r4
2410593c:	f171 0100 	sbcs.w	r1, r1, #0
24105940:	f080 820c 	bcs.w	24105d5c <HAL_RCCEx_GetPeriphCLKFreq+0x894>
24105944:	e9d7 0100 	ldrd	r0, r1, [r7]
24105948:	f5a0 3400 	sub.w	r4, r0, #131072	@ 0x20000
2410594c:	4321      	orrs	r1, r4
2410594e:	f000 8140 	beq.w	24105bd2 <HAL_RCCEx_GetPeriphCLKFreq+0x70a>
24105952:	e9d7 0100 	ldrd	r0, r1, [r7]
24105956:	4c7f      	ldr	r4, [pc, #508]	@ (24105b54 <HAL_RCCEx_GetPeriphCLKFreq+0x68c>)
24105958:	42a0      	cmp	r0, r4
2410595a:	f171 0100 	sbcs.w	r1, r1, #0
2410595e:	f080 81fd 	bcs.w	24105d5c <HAL_RCCEx_GetPeriphCLKFreq+0x894>
24105962:	e9d7 0100 	ldrd	r0, r1, [r7]
24105966:	f5a0 3480 	sub.w	r4, r0, #65536	@ 0x10000
2410596a:	4321      	orrs	r1, r4
2410596c:	f000 812c 	beq.w	24105bc8 <HAL_RCCEx_GetPeriphCLKFreq+0x700>
24105970:	e9d7 0100 	ldrd	r0, r1, [r7]
24105974:	f1b0 1f01 	cmp.w	r0, #65537	@ 0x10001
24105978:	f171 0100 	sbcs.w	r1, r1, #0
2410597c:	f080 81ee 	bcs.w	24105d5c <HAL_RCCEx_GetPeriphCLKFreq+0x894>
24105980:	e9d7 0100 	ldrd	r0, r1, [r7]
24105984:	f5a0 4400 	sub.w	r4, r0, #32768	@ 0x8000
24105988:	4321      	orrs	r1, r4
2410598a:	f000 8118 	beq.w	24105bbe <HAL_RCCEx_GetPeriphCLKFreq+0x6f6>
2410598e:	e9d7 0100 	ldrd	r0, r1, [r7]
24105992:	f248 0401 	movw	r4, #32769	@ 0x8001
24105996:	42a0      	cmp	r0, r4
24105998:	f171 0100 	sbcs.w	r1, r1, #0
2410599c:	f080 81de 	bcs.w	24105d5c <HAL_RCCEx_GetPeriphCLKFreq+0x894>
241059a0:	e9d7 0100 	ldrd	r0, r1, [r7]
241059a4:	f5a0 4480 	sub.w	r4, r0, #16384	@ 0x4000
241059a8:	4321      	orrs	r1, r4
241059aa:	f000 8103 	beq.w	24105bb4 <HAL_RCCEx_GetPeriphCLKFreq+0x6ec>
241059ae:	e9d7 0100 	ldrd	r0, r1, [r7]
241059b2:	f244 0401 	movw	r4, #16385	@ 0x4001
241059b6:	42a0      	cmp	r0, r4
241059b8:	f171 0100 	sbcs.w	r1, r1, #0
241059bc:	f080 81ce 	bcs.w	24105d5c <HAL_RCCEx_GetPeriphCLKFreq+0x894>
241059c0:	e9d7 0100 	ldrd	r0, r1, [r7]
241059c4:	f5a0 5400 	sub.w	r4, r0, #8192	@ 0x2000
241059c8:	4321      	orrs	r1, r4
241059ca:	f000 80ee 	beq.w	24105baa <HAL_RCCEx_GetPeriphCLKFreq+0x6e2>
241059ce:	e9d7 0100 	ldrd	r0, r1, [r7]
241059d2:	f242 0401 	movw	r4, #8193	@ 0x2001
241059d6:	42a0      	cmp	r0, r4
241059d8:	f171 0100 	sbcs.w	r1, r1, #0
241059dc:	f080 81be 	bcs.w	24105d5c <HAL_RCCEx_GetPeriphCLKFreq+0x894>
241059e0:	e9d7 0100 	ldrd	r0, r1, [r7]
241059e4:	f5a0 5480 	sub.w	r4, r0, #4096	@ 0x1000
241059e8:	4321      	orrs	r1, r4
241059ea:	f000 80d9 	beq.w	24105ba0 <HAL_RCCEx_GetPeriphCLKFreq+0x6d8>
241059ee:	e9d7 0100 	ldrd	r0, r1, [r7]
241059f2:	f241 0401 	movw	r4, #4097	@ 0x1001
241059f6:	42a0      	cmp	r0, r4
241059f8:	f171 0100 	sbcs.w	r1, r1, #0
241059fc:	f080 81ae 	bcs.w	24105d5c <HAL_RCCEx_GetPeriphCLKFreq+0x894>
24105a00:	e9d7 0100 	ldrd	r0, r1, [r7]
24105a04:	f5a0 6400 	sub.w	r4, r0, #2048	@ 0x800
24105a08:	4321      	orrs	r1, r4
24105a0a:	f000 80c4 	beq.w	24105b96 <HAL_RCCEx_GetPeriphCLKFreq+0x6ce>
24105a0e:	e9d7 0100 	ldrd	r0, r1, [r7]
24105a12:	f640 0401 	movw	r4, #2049	@ 0x801
24105a16:	42a0      	cmp	r0, r4
24105a18:	f171 0100 	sbcs.w	r1, r1, #0
24105a1c:	f080 819e 	bcs.w	24105d5c <HAL_RCCEx_GetPeriphCLKFreq+0x894>
24105a20:	e9d7 0100 	ldrd	r0, r1, [r7]
24105a24:	f5a0 6480 	sub.w	r4, r0, #1024	@ 0x400
24105a28:	4321      	orrs	r1, r4
24105a2a:	f000 80af 	beq.w	24105b8c <HAL_RCCEx_GetPeriphCLKFreq+0x6c4>
24105a2e:	e9d7 0100 	ldrd	r0, r1, [r7]
24105a32:	f240 4401 	movw	r4, #1025	@ 0x401
24105a36:	42a0      	cmp	r0, r4
24105a38:	f171 0100 	sbcs.w	r1, r1, #0
24105a3c:	f080 818e 	bcs.w	24105d5c <HAL_RCCEx_GetPeriphCLKFreq+0x894>
24105a40:	e9d7 0100 	ldrd	r0, r1, [r7]
24105a44:	2821      	cmp	r0, #33	@ 0x21
24105a46:	f171 0100 	sbcs.w	r1, r1, #0
24105a4a:	d255      	bcs.n	24105af8 <HAL_RCCEx_GetPeriphCLKFreq+0x630>
24105a4c:	e9d7 0100 	ldrd	r0, r1, [r7]
24105a50:	4301      	orrs	r1, r0
24105a52:	f000 8183 	beq.w	24105d5c <HAL_RCCEx_GetPeriphCLKFreq+0x894>
24105a56:	e9d7 0100 	ldrd	r0, r1, [r7]
24105a5a:	1e42      	subs	r2, r0, #1
24105a5c:	f141 33ff 	adc.w	r3, r1, #4294967295	@ 0xffffffff
24105a60:	2a20      	cmp	r2, #32
24105a62:	f173 0100 	sbcs.w	r1, r3, #0
24105a66:	f080 8179 	bcs.w	24105d5c <HAL_RCCEx_GetPeriphCLKFreq+0x894>
24105a6a:	2a1f      	cmp	r2, #31
24105a6c:	f200 8176 	bhi.w	24105d5c <HAL_RCCEx_GetPeriphCLKFreq+0x894>
24105a70:	a101      	add	r1, pc, #4	@ (adr r1, 24105a78 <HAL_RCCEx_GetPeriphCLKFreq+0x5b0>)
24105a72:	f851 f022 	ldr.w	pc, [r1, r2, lsl #2]
24105a76:	bf00      	nop
24105a78:	24105b07 	.word	0x24105b07
24105a7c:	24105b11 	.word	0x24105b11
24105a80:	24105d5d 	.word	0x24105d5d
24105a84:	24105b61 	.word	0x24105b61
24105a88:	24105d5d 	.word	0x24105d5d
24105a8c:	24105d5d 	.word	0x24105d5d
24105a90:	24105d5d 	.word	0x24105d5d
24105a94:	24105b59 	.word	0x24105b59
24105a98:	24105d5d 	.word	0x24105d5d
24105a9c:	24105d5d 	.word	0x24105d5d
24105aa0:	24105d5d 	.word	0x24105d5d
24105aa4:	24105d5d 	.word	0x24105d5d
24105aa8:	24105d5d 	.word	0x24105d5d
24105aac:	24105d5d 	.word	0x24105d5d
24105ab0:	24105d5d 	.word	0x24105d5d
24105ab4:	24105b6b 	.word	0x24105b6b
24105ab8:	24105d5d 	.word	0x24105d5d
24105abc:	24105d5d 	.word	0x24105d5d
24105ac0:	24105d5d 	.word	0x24105d5d
24105ac4:	24105d5d 	.word	0x24105d5d
24105ac8:	24105d5d 	.word	0x24105d5d
24105acc:	24105d5d 	.word	0x24105d5d
24105ad0:	24105d5d 	.word	0x24105d5d
24105ad4:	24105d5d 	.word	0x24105d5d
24105ad8:	24105d5d 	.word	0x24105d5d
24105adc:	24105d5d 	.word	0x24105d5d
24105ae0:	24105d5d 	.word	0x24105d5d
24105ae4:	24105d5d 	.word	0x24105d5d
24105ae8:	24105d5d 	.word	0x24105d5d
24105aec:	24105d5d 	.word	0x24105d5d
24105af0:	24105d5d 	.word	0x24105d5d
24105af4:	24105b77 	.word	0x24105b77
24105af8:	e9d7 2300 	ldrd	r2, r3, [r7]
24105afc:	f5a2 7100 	sub.w	r1, r2, #512	@ 0x200
24105b00:	430b      	orrs	r3, r1
24105b02:	d03e      	beq.n	24105b82 <HAL_RCCEx_GetPeriphCLKFreq+0x6ba>
      frequency = RCCEx_GetXSPICLKFreq(LL_RCC_XSPI3_CLKSOURCE);
      break;

    default:
      /* Unexpected case, frequency is by default set to 0 */
      break;
24105b04:	e12a      	b.n	24105d5c <HAL_RCCEx_GetPeriphCLKFreq+0x894>
      frequency = RCCEx_GetADCCLKFreq(LL_RCC_ADC_CLKSOURCE);
24105b06:	2070      	movs	r0, #112	@ 0x70
24105b08:	f000 fb90 	bl	2410622c <RCCEx_GetADCCLKFreq>
24105b0c:	60f8      	str	r0, [r7, #12]
      break;
24105b0e:	e126      	b.n	24105d5e <HAL_RCCEx_GetPeriphCLKFreq+0x896>
      frequency = RCCEx_GetADFCLKFreq(LL_RCC_ADF1_CLKSOURCE);
24105b10:	2007      	movs	r0, #7
24105b12:	f000 fc8d 	bl	24106430 <RCCEx_GetADFCLKFreq>
24105b16:	60f8      	str	r0, [r7, #12]
      break;
24105b18:	e121      	b.n	24105d5e <HAL_RCCEx_GetPeriphCLKFreq+0x896>
24105b1a:	bf00      	nop
24105b1c:	80000001 	.word	0x80000001
24105b20:	40000001 	.word	0x40000001
24105b24:	20000001 	.word	0x20000001
24105b28:	10000001 	.word	0x10000001
24105b2c:	08000001 	.word	0x08000001
24105b30:	04000001 	.word	0x04000001
24105b34:	02000001 	.word	0x02000001
24105b38:	01000001 	.word	0x01000001
24105b3c:	00800001 	.word	0x00800001
24105b40:	00400001 	.word	0x00400001
24105b44:	00200001 	.word	0x00200001
24105b48:	00100001 	.word	0x00100001
24105b4c:	00080001 	.word	0x00080001
24105b50:	00040001 	.word	0x00040001
24105b54:	00020001 	.word	0x00020001
      frequency = RCCEx_GetCSICLKFreq();
24105b58:	f000 ff0c 	bl	24106974 <RCCEx_GetCSICLKFreq>
24105b5c:	60f8      	str	r0, [r7, #12]
      break;
24105b5e:	e0fe      	b.n	24105d5e <HAL_RCCEx_GetPeriphCLKFreq+0x896>
      frequency = RCCEx_GetCLKPCLKFreq(LL_RCC_CLKP_CLKSOURCE);
24105b60:	2007      	movs	r0, #7
24105b62:	f000 fd51 	bl	24106608 <RCCEx_GetCLKPCLKFreq>
24105b66:	60f8      	str	r0, [r7, #12]
      break;
24105b68:	e0f9      	b.n	24105d5e <HAL_RCCEx_GetPeriphCLKFreq+0x896>
      frequency = RCCEx_GetDCMIPPCLKFreq(LL_RCC_DCMIPP_CLKSOURCE);
24105b6a:	f44f 1040 	mov.w	r0, #3145728	@ 0x300000
24105b6e:	f000 ff4d 	bl	24106a0c <RCCEx_GetDCMIPPCLKFreq>
24105b72:	60f8      	str	r0, [r7, #12]
      break;
24105b74:	e0f3      	b.n	24105d5e <HAL_RCCEx_GetPeriphCLKFreq+0x896>
      frequency = RCCEx_GetETH1CLKFreq(LL_RCC_ETH1_CLKSOURCE);
24105b76:	f44f 5040 	mov.w	r0, #12288	@ 0x3000
24105b7a:	f000 ffd1 	bl	24106b20 <RCCEx_GetETH1CLKFreq>
24105b7e:	60f8      	str	r0, [r7, #12]
      break;
24105b80:	e0ed      	b.n	24105d5e <HAL_RCCEx_GetPeriphCLKFreq+0x896>
      frequency = RCCEx_GetETH1PTPCLKFreq(LL_RCC_ETH1PTP_CLKSOURCE);
24105b82:	2003      	movs	r0, #3
24105b84:	f001 f84c 	bl	24106c20 <RCCEx_GetETH1PTPCLKFreq>
24105b88:	60f8      	str	r0, [r7, #12]
      break;
24105b8a:	e0e8      	b.n	24105d5e <HAL_RCCEx_GetPeriphCLKFreq+0x896>
      frequency = RCCEx_GetFDCANCLKFreq(LL_RCC_FDCAN_CLKSOURCE);
24105b8c:	2003      	movs	r0, #3
24105b8e:	f001 f8cb 	bl	24106d28 <RCCEx_GetFDCANCLKFreq>
24105b92:	60f8      	str	r0, [r7, #12]
      break;
24105b94:	e0e3      	b.n	24105d5e <HAL_RCCEx_GetPeriphCLKFreq+0x896>
      frequency = RCCEx_GetFMCCLKFreq(LL_RCC_FMC_CLKSOURCE);
24105b96:	2030      	movs	r0, #48	@ 0x30
24105b98:	f001 f946 	bl	24106e28 <RCCEx_GetFMCCLKFreq>
24105b9c:	60f8      	str	r0, [r7, #12]
      break;
24105b9e:	e0de      	b.n	24105d5e <HAL_RCCEx_GetPeriphCLKFreq+0x896>
      frequency = RCCEx_GetI2CCLKFreq(LL_RCC_I2C1_CLKSOURCE);
24105ba0:	4871      	ldr	r0, [pc, #452]	@ (24105d68 <HAL_RCCEx_GetPeriphCLKFreq+0x8a0>)
24105ba2:	f001 f9f9 	bl	24106f98 <RCCEx_GetI2CCLKFreq>
24105ba6:	60f8      	str	r0, [r7, #12]
      break;
24105ba8:	e0d9      	b.n	24105d5e <HAL_RCCEx_GetPeriphCLKFreq+0x896>
      frequency = RCCEx_GetI2CCLKFreq(LL_RCC_I2C2_CLKSOURCE);
24105baa:	4870      	ldr	r0, [pc, #448]	@ (24105d6c <HAL_RCCEx_GetPeriphCLKFreq+0x8a4>)
24105bac:	f001 f9f4 	bl	24106f98 <RCCEx_GetI2CCLKFreq>
24105bb0:	60f8      	str	r0, [r7, #12]
      break;
24105bb2:	e0d4      	b.n	24105d5e <HAL_RCCEx_GetPeriphCLKFreq+0x896>
      frequency = RCCEx_GetI2CCLKFreq(LL_RCC_I2C3_CLKSOURCE);
24105bb4:	486e      	ldr	r0, [pc, #440]	@ (24105d70 <HAL_RCCEx_GetPeriphCLKFreq+0x8a8>)
24105bb6:	f001 f9ef 	bl	24106f98 <RCCEx_GetI2CCLKFreq>
24105bba:	60f8      	str	r0, [r7, #12]
      break;
24105bbc:	e0cf      	b.n	24105d5e <HAL_RCCEx_GetPeriphCLKFreq+0x896>
      frequency = RCCEx_GetI2CCLKFreq(LL_RCC_I2C4_CLKSOURCE);
24105bbe:	486d      	ldr	r0, [pc, #436]	@ (24105d74 <HAL_RCCEx_GetPeriphCLKFreq+0x8ac>)
24105bc0:	f001 f9ea 	bl	24106f98 <RCCEx_GetI2CCLKFreq>
24105bc4:	60f8      	str	r0, [r7, #12]
      break;
24105bc6:	e0ca      	b.n	24105d5e <HAL_RCCEx_GetPeriphCLKFreq+0x896>
      frequency = RCCEx_GetI3CCLKFreq(LL_RCC_I3C1_CLKSOURCE);
24105bc8:	486b      	ldr	r0, [pc, #428]	@ (24105d78 <HAL_RCCEx_GetPeriphCLKFreq+0x8b0>)
24105bca:	f001 fb8d 	bl	241072e8 <RCCEx_GetI3CCLKFreq>
24105bce:	60f8      	str	r0, [r7, #12]
      break;
24105bd0:	e0c5      	b.n	24105d5e <HAL_RCCEx_GetPeriphCLKFreq+0x896>
      frequency = RCCEx_GetI3CCLKFreq(LL_RCC_I3C2_CLKSOURCE);
24105bd2:	486a      	ldr	r0, [pc, #424]	@ (24105d7c <HAL_RCCEx_GetPeriphCLKFreq+0x8b4>)
24105bd4:	f001 fb88 	bl	241072e8 <RCCEx_GetI3CCLKFreq>
24105bd8:	60f8      	str	r0, [r7, #12]
      break;
24105bda:	e0c0      	b.n	24105d5e <HAL_RCCEx_GetPeriphCLKFreq+0x896>
      frequency = RCCEx_GetLPTIMCLKFreq(LL_RCC_LPTIM1_CLKSOURCE);
24105bdc:	4868      	ldr	r0, [pc, #416]	@ (24105d80 <HAL_RCCEx_GetPeriphCLKFreq+0x8b8>)
24105bde:	f001 fcb7 	bl	24107550 <RCCEx_GetLPTIMCLKFreq>
24105be2:	60f8      	str	r0, [r7, #12]
      break;
24105be4:	e0bb      	b.n	24105d5e <HAL_RCCEx_GetPeriphCLKFreq+0x896>
      frequency = RCCEx_GetLPTIMCLKFreq(LL_RCC_LPTIM2_CLKSOURCE);
24105be6:	4867      	ldr	r0, [pc, #412]	@ (24105d84 <HAL_RCCEx_GetPeriphCLKFreq+0x8bc>)
24105be8:	f001 fcb2 	bl	24107550 <RCCEx_GetLPTIMCLKFreq>
24105bec:	60f8      	str	r0, [r7, #12]
      break;
24105bee:	e0b6      	b.n	24105d5e <HAL_RCCEx_GetPeriphCLKFreq+0x896>
      frequency = RCCEx_GetLPTIMCLKFreq(LL_RCC_LPTIM3_CLKSOURCE);
24105bf0:	4865      	ldr	r0, [pc, #404]	@ (24105d88 <HAL_RCCEx_GetPeriphCLKFreq+0x8c0>)
24105bf2:	f001 fcad 	bl	24107550 <RCCEx_GetLPTIMCLKFreq>
24105bf6:	60f8      	str	r0, [r7, #12]
      break;
24105bf8:	e0b1      	b.n	24105d5e <HAL_RCCEx_GetPeriphCLKFreq+0x896>
      frequency = RCCEx_GetLPTIMCLKFreq(LL_RCC_LPTIM4_CLKSOURCE);
24105bfa:	4864      	ldr	r0, [pc, #400]	@ (24105d8c <HAL_RCCEx_GetPeriphCLKFreq+0x8c4>)
24105bfc:	f001 fca8 	bl	24107550 <RCCEx_GetLPTIMCLKFreq>
24105c00:	60f8      	str	r0, [r7, #12]
      break;
24105c02:	e0ac      	b.n	24105d5e <HAL_RCCEx_GetPeriphCLKFreq+0x896>
      frequency = RCCEx_GetLPTIMCLKFreq(LL_RCC_LPTIM5_CLKSOURCE);
24105c04:	4862      	ldr	r0, [pc, #392]	@ (24105d90 <HAL_RCCEx_GetPeriphCLKFreq+0x8c8>)
24105c06:	f001 fca3 	bl	24107550 <RCCEx_GetLPTIMCLKFreq>
24105c0a:	60f8      	str	r0, [r7, #12]
      break;
24105c0c:	e0a7      	b.n	24105d5e <HAL_RCCEx_GetPeriphCLKFreq+0x896>
      frequency = RCCEx_GetLPUARTCLKFreq(LL_RCC_LPUART1_CLKSOURCE);
24105c0e:	f44f 60e0 	mov.w	r0, #1792	@ 0x700
24105c12:	f001 fe47 	bl	241078a4 <RCCEx_GetLPUARTCLKFreq>
24105c16:	60f8      	str	r0, [r7, #12]
      break;
24105c18:	e0a1      	b.n	24105d5e <HAL_RCCEx_GetPeriphCLKFreq+0x896>
      frequency = RCCEx_GetLTDCCLKFreq(LL_RCC_LTDC_CLKSOURCE);
24105c1a:	f04f 7040 	mov.w	r0, #50331648	@ 0x3000000
24105c1e:	f001 ff43 	bl	24107aa8 <RCCEx_GetLTDCCLKFreq>
24105c22:	60f8      	str	r0, [r7, #12]
      break;
24105c24:	e09b      	b.n	24105d5e <HAL_RCCEx_GetPeriphCLKFreq+0x896>
      frequency = RCCEx_GetMDFCLKFreq(LL_RCC_MDF1_CLKSOURCE);
24105c26:	f44f 20e0 	mov.w	r0, #458752	@ 0x70000
24105c2a:	f001 ffc7 	bl	24107bbc <RCCEx_GetMDFCLKFreq>
24105c2e:	60f8      	str	r0, [r7, #12]
      break;
24105c30:	e095      	b.n	24105d5e <HAL_RCCEx_GetPeriphCLKFreq+0x896>
      frequency = RCCEx_GetPSSICLKFreq(LL_RCC_PSSI_CLKSOURCE);
24105c32:	2030      	movs	r0, #48	@ 0x30
24105c34:	f002 f8cc 	bl	24107dd0 <RCCEx_GetPSSICLKFreq>
24105c38:	60f8      	str	r0, [r7, #12]
      break;
24105c3a:	e090      	b.n	24105d5e <HAL_RCCEx_GetPeriphCLKFreq+0x896>
      frequency = RCCEx_GetRTCCLKFreq();
24105c3c:	f002 f94a 	bl	24107ed4 <RCCEx_GetRTCCLKFreq>
24105c40:	60f8      	str	r0, [r7, #12]
      break;
24105c42:	e08c      	b.n	24105d5e <HAL_RCCEx_GetPeriphCLKFreq+0x896>
      frequency = RCCEx_GetSAICLKFreq(LL_RCC_SAI1_CLKSOURCE);
24105c44:	4853      	ldr	r0, [pc, #332]	@ (24105d94 <HAL_RCCEx_GetPeriphCLKFreq+0x8cc>)
24105c46:	f002 f997 	bl	24107f78 <RCCEx_GetSAICLKFreq>
24105c4a:	60f8      	str	r0, [r7, #12]
      break;
24105c4c:	e087      	b.n	24105d5e <HAL_RCCEx_GetPeriphCLKFreq+0x896>
      frequency = RCCEx_GetSAICLKFreq(LL_RCC_SAI2_CLKSOURCE);
24105c4e:	4852      	ldr	r0, [pc, #328]	@ (24105d98 <HAL_RCCEx_GetPeriphCLKFreq+0x8d0>)
24105c50:	f002 f992 	bl	24107f78 <RCCEx_GetSAICLKFreq>
24105c54:	60f8      	str	r0, [r7, #12]
      break;
24105c56:	e082      	b.n	24105d5e <HAL_RCCEx_GetPeriphCLKFreq+0x896>
      frequency = RCCEx_GetSDMMCCLKFreq(LL_RCC_SDMMC1_CLKSOURCE);
24105c58:	4850      	ldr	r0, [pc, #320]	@ (24105d9c <HAL_RCCEx_GetPeriphCLKFreq+0x8d4>)
24105c5a:	f002 faf3 	bl	24108244 <RCCEx_GetSDMMCCLKFreq>
24105c5e:	60f8      	str	r0, [r7, #12]
      break;
24105c60:	e07d      	b.n	24105d5e <HAL_RCCEx_GetPeriphCLKFreq+0x896>
      frequency = RCCEx_GetSDMMCCLKFreq(LL_RCC_SDMMC2_CLKSOURCE);
24105c62:	484f      	ldr	r0, [pc, #316]	@ (24105da0 <HAL_RCCEx_GetPeriphCLKFreq+0x8d8>)
24105c64:	f002 faee 	bl	24108244 <RCCEx_GetSDMMCCLKFreq>
24105c68:	60f8      	str	r0, [r7, #12]
      break;
24105c6a:	e078      	b.n	24105d5e <HAL_RCCEx_GetPeriphCLKFreq+0x896>
      frequency = RCCEx_GetSPDIFRXCLKFreq(LL_RCC_SPDIFRX1_CLKSOURCE);
24105c6c:	2007      	movs	r0, #7
24105c6e:	f002 fbd3 	bl	24108418 <RCCEx_GetSPDIFRXCLKFreq>
24105c72:	60f8      	str	r0, [r7, #12]
      break;
24105c74:	e073      	b.n	24105d5e <HAL_RCCEx_GetPeriphCLKFreq+0x896>
      frequency = RCCEx_GetSPICLKFreq(LL_RCC_SPI1_CLKSOURCE);
24105c76:	484b      	ldr	r0, [pc, #300]	@ (24105da4 <HAL_RCCEx_GetPeriphCLKFreq+0x8dc>)
24105c78:	f002 fcb2 	bl	241085e0 <RCCEx_GetSPICLKFreq>
24105c7c:	60f8      	str	r0, [r7, #12]
      break;
24105c7e:	e06e      	b.n	24105d5e <HAL_RCCEx_GetPeriphCLKFreq+0x896>
      frequency = RCCEx_GetSPICLKFreq(LL_RCC_SPI2_CLKSOURCE);
24105c80:	4849      	ldr	r0, [pc, #292]	@ (24105da8 <HAL_RCCEx_GetPeriphCLKFreq+0x8e0>)
24105c82:	f002 fcad 	bl	241085e0 <RCCEx_GetSPICLKFreq>
24105c86:	60f8      	str	r0, [r7, #12]
      break;
24105c88:	e069      	b.n	24105d5e <HAL_RCCEx_GetPeriphCLKFreq+0x896>
      frequency = RCCEx_GetSPICLKFreq(LL_RCC_SPI3_CLKSOURCE);
24105c8a:	4848      	ldr	r0, [pc, #288]	@ (24105dac <HAL_RCCEx_GetPeriphCLKFreq+0x8e4>)
24105c8c:	f002 fca8 	bl	241085e0 <RCCEx_GetSPICLKFreq>
24105c90:	60f8      	str	r0, [r7, #12]
      break;
24105c92:	e064      	b.n	24105d5e <HAL_RCCEx_GetPeriphCLKFreq+0x896>
      frequency = RCCEx_GetSPICLKFreq(LL_RCC_SPI4_CLKSOURCE);
24105c94:	4846      	ldr	r0, [pc, #280]	@ (24105db0 <HAL_RCCEx_GetPeriphCLKFreq+0x8e8>)
24105c96:	f002 fca3 	bl	241085e0 <RCCEx_GetSPICLKFreq>
24105c9a:	60f8      	str	r0, [r7, #12]
      break;
24105c9c:	e05f      	b.n	24105d5e <HAL_RCCEx_GetPeriphCLKFreq+0x896>
      frequency = RCCEx_GetSPICLKFreq(LL_RCC_SPI5_CLKSOURCE);
24105c9e:	4845      	ldr	r0, [pc, #276]	@ (24105db4 <HAL_RCCEx_GetPeriphCLKFreq+0x8ec>)
24105ca0:	f002 fc9e 	bl	241085e0 <RCCEx_GetSPICLKFreq>
24105ca4:	60f8      	str	r0, [r7, #12]
      break;
24105ca6:	e05a      	b.n	24105d5e <HAL_RCCEx_GetPeriphCLKFreq+0x896>
      frequency = RCCEx_GetSPICLKFreq(LL_RCC_SPI6_CLKSOURCE);
24105ca8:	4843      	ldr	r0, [pc, #268]	@ (24105db8 <HAL_RCCEx_GetPeriphCLKFreq+0x8f0>)
24105caa:	f002 fc99 	bl	241085e0 <RCCEx_GetSPICLKFreq>
24105cae:	60f8      	str	r0, [r7, #12]
      break;
24105cb0:	e055      	b.n	24105d5e <HAL_RCCEx_GetPeriphCLKFreq+0x896>
      frequency = RCCEx_GetUSARTCLKFreq(LL_RCC_USART1_CLKSOURCE);
24105cb2:	4842      	ldr	r0, [pc, #264]	@ (24105dbc <HAL_RCCEx_GetPeriphCLKFreq+0x8f4>)
24105cb4:	f003 f990 	bl	24108fd8 <RCCEx_GetUSARTCLKFreq>
24105cb8:	60f8      	str	r0, [r7, #12]
      break;
24105cba:	e050      	b.n	24105d5e <HAL_RCCEx_GetPeriphCLKFreq+0x896>
      frequency = RCCEx_GetUSARTCLKFreq(LL_RCC_USART2_CLKSOURCE);
24105cbc:	4840      	ldr	r0, [pc, #256]	@ (24105dc0 <HAL_RCCEx_GetPeriphCLKFreq+0x8f8>)
24105cbe:	f003 f98b 	bl	24108fd8 <RCCEx_GetUSARTCLKFreq>
24105cc2:	60f8      	str	r0, [r7, #12]
      break;
24105cc4:	e04b      	b.n	24105d5e <HAL_RCCEx_GetPeriphCLKFreq+0x896>
      frequency = RCCEx_GetUSARTCLKFreq(LL_RCC_USART3_CLKSOURCE);
24105cc6:	483f      	ldr	r0, [pc, #252]	@ (24105dc4 <HAL_RCCEx_GetPeriphCLKFreq+0x8fc>)
24105cc8:	f003 f986 	bl	24108fd8 <RCCEx_GetUSARTCLKFreq>
24105ccc:	60f8      	str	r0, [r7, #12]
      break;
24105cce:	e046      	b.n	24105d5e <HAL_RCCEx_GetPeriphCLKFreq+0x896>
      frequency = RCCEx_GetUARTCLKFreq(LL_RCC_UART4_CLKSOURCE);
24105cd0:	483d      	ldr	r0, [pc, #244]	@ (24105dc8 <HAL_RCCEx_GetPeriphCLKFreq+0x900>)
24105cd2:	f002 ff57 	bl	24108b84 <RCCEx_GetUARTCLKFreq>
24105cd6:	60f8      	str	r0, [r7, #12]
      break;
24105cd8:	e041      	b.n	24105d5e <HAL_RCCEx_GetPeriphCLKFreq+0x896>
      frequency = RCCEx_GetUARTCLKFreq(LL_RCC_UART5_CLKSOURCE);
24105cda:	483c      	ldr	r0, [pc, #240]	@ (24105dcc <HAL_RCCEx_GetPeriphCLKFreq+0x904>)
24105cdc:	f002 ff52 	bl	24108b84 <RCCEx_GetUARTCLKFreq>
24105ce0:	60f8      	str	r0, [r7, #12]
      break;
24105ce2:	e03c      	b.n	24105d5e <HAL_RCCEx_GetPeriphCLKFreq+0x896>
      frequency = RCCEx_GetUSARTCLKFreq(LL_RCC_USART6_CLKSOURCE);
24105ce4:	483a      	ldr	r0, [pc, #232]	@ (24105dd0 <HAL_RCCEx_GetPeriphCLKFreq+0x908>)
24105ce6:	f003 f977 	bl	24108fd8 <RCCEx_GetUSARTCLKFreq>
24105cea:	60f8      	str	r0, [r7, #12]
      break;
24105cec:	e037      	b.n	24105d5e <HAL_RCCEx_GetPeriphCLKFreq+0x896>
      frequency = RCCEx_GetUARTCLKFreq(LL_RCC_UART7_CLKSOURCE);
24105cee:	4839      	ldr	r0, [pc, #228]	@ (24105dd4 <HAL_RCCEx_GetPeriphCLKFreq+0x90c>)
24105cf0:	f002 ff48 	bl	24108b84 <RCCEx_GetUARTCLKFreq>
24105cf4:	60f8      	str	r0, [r7, #12]
      break;
24105cf6:	e032      	b.n	24105d5e <HAL_RCCEx_GetPeriphCLKFreq+0x896>
      frequency = RCCEx_GetUARTCLKFreq(LL_RCC_UART8_CLKSOURCE);
24105cf8:	4837      	ldr	r0, [pc, #220]	@ (24105dd8 <HAL_RCCEx_GetPeriphCLKFreq+0x910>)
24105cfa:	f002 ff43 	bl	24108b84 <RCCEx_GetUARTCLKFreq>
24105cfe:	60f8      	str	r0, [r7, #12]
      break;
24105d00:	e02d      	b.n	24105d5e <HAL_RCCEx_GetPeriphCLKFreq+0x896>
      frequency = RCCEx_GetUARTCLKFreq(LL_RCC_UART9_CLKSOURCE);
24105d02:	4836      	ldr	r0, [pc, #216]	@ (24105ddc <HAL_RCCEx_GetPeriphCLKFreq+0x914>)
24105d04:	f002 ff3e 	bl	24108b84 <RCCEx_GetUARTCLKFreq>
24105d08:	60f8      	str	r0, [r7, #12]
      break;
24105d0a:	e028      	b.n	24105d5e <HAL_RCCEx_GetPeriphCLKFreq+0x896>
      frequency = RCCEx_GetUSARTCLKFreq(LL_RCC_USART10_CLKSOURCE);
24105d0c:	4834      	ldr	r0, [pc, #208]	@ (24105de0 <HAL_RCCEx_GetPeriphCLKFreq+0x918>)
24105d0e:	f003 f963 	bl	24108fd8 <RCCEx_GetUSARTCLKFreq>
24105d12:	60f8      	str	r0, [r7, #12]
      break;
24105d14:	e023      	b.n	24105d5e <HAL_RCCEx_GetPeriphCLKFreq+0x896>
      frequency = RCCEx_GetOTGPHYCLKFreq(LL_RCC_OTGPHY1_CLKSOURCE);
24105d16:	4833      	ldr	r0, [pc, #204]	@ (24105de4 <HAL_RCCEx_GetPeriphCLKFreq+0x91c>)
24105d18:	f003 fb88 	bl	2410942c <RCCEx_GetOTGPHYCLKFreq>
24105d1c:	60f8      	str	r0, [r7, #12]
      break;
24105d1e:	e01e      	b.n	24105d5e <HAL_RCCEx_GetPeriphCLKFreq+0x896>
      frequency = RCCEx_GetOTGPHYCKREFCLKFreq(LL_RCC_OTGPHY1CKREF_CLKSOURCE);
24105d20:	4831      	ldr	r0, [pc, #196]	@ (24105de8 <HAL_RCCEx_GetPeriphCLKFreq+0x920>)
24105d22:	f003 fc39 	bl	24109598 <RCCEx_GetOTGPHYCKREFCLKFreq>
24105d26:	60f8      	str	r0, [r7, #12]
      break;
24105d28:	e019      	b.n	24105d5e <HAL_RCCEx_GetPeriphCLKFreq+0x896>
      frequency = RCCEx_GetOTGPHYCLKFreq(LL_RCC_OTGPHY2_CLKSOURCE);
24105d2a:	4830      	ldr	r0, [pc, #192]	@ (24105dec <HAL_RCCEx_GetPeriphCLKFreq+0x924>)
24105d2c:	f003 fb7e 	bl	2410942c <RCCEx_GetOTGPHYCLKFreq>
24105d30:	60f8      	str	r0, [r7, #12]
      break;
24105d32:	e014      	b.n	24105d5e <HAL_RCCEx_GetPeriphCLKFreq+0x896>
      frequency = RCCEx_GetOTGPHYCKREFCLKFreq(LL_RCC_OTGPHY2CKREF_CLKSOURCE);
24105d34:	482e      	ldr	r0, [pc, #184]	@ (24105df0 <HAL_RCCEx_GetPeriphCLKFreq+0x928>)
24105d36:	f003 fc2f 	bl	24109598 <RCCEx_GetOTGPHYCKREFCLKFreq>
24105d3a:	60f8      	str	r0, [r7, #12]
      break;
24105d3c:	e00f      	b.n	24105d5e <HAL_RCCEx_GetPeriphCLKFreq+0x896>
      frequency = RCCEx_GetXSPICLKFreq(LL_RCC_XSPI1_CLKSOURCE);
24105d3e:	482d      	ldr	r0, [pc, #180]	@ (24105df4 <HAL_RCCEx_GetPeriphCLKFreq+0x92c>)
24105d40:	f003 fc7a 	bl	24109638 <RCCEx_GetXSPICLKFreq>
24105d44:	60f8      	str	r0, [r7, #12]
      break;
24105d46:	e00a      	b.n	24105d5e <HAL_RCCEx_GetPeriphCLKFreq+0x896>
      frequency = RCCEx_GetXSPICLKFreq(LL_RCC_XSPI2_CLKSOURCE);
24105d48:	482b      	ldr	r0, [pc, #172]	@ (24105df8 <HAL_RCCEx_GetPeriphCLKFreq+0x930>)
24105d4a:	f003 fc75 	bl	24109638 <RCCEx_GetXSPICLKFreq>
24105d4e:	60f8      	str	r0, [r7, #12]
      break;
24105d50:	e005      	b.n	24105d5e <HAL_RCCEx_GetPeriphCLKFreq+0x896>
      frequency = RCCEx_GetXSPICLKFreq(LL_RCC_XSPI3_CLKSOURCE);
24105d52:	482a      	ldr	r0, [pc, #168]	@ (24105dfc <HAL_RCCEx_GetPeriphCLKFreq+0x934>)
24105d54:	f003 fc70 	bl	24109638 <RCCEx_GetXSPICLKFreq>
24105d58:	60f8      	str	r0, [r7, #12]
      break;
24105d5a:	e000      	b.n	24105d5e <HAL_RCCEx_GetPeriphCLKFreq+0x896>
      break;
24105d5c:	bf00      	nop
  }

  return frequency;
24105d5e:	68fb      	ldr	r3, [r7, #12]
}
24105d60:	4618      	mov	r0, r3
24105d62:	3714      	adds	r7, #20
24105d64:	46bd      	mov	sp, r7
24105d66:	bd90      	pop	{r4, r7, pc}
24105d68:	0700000c 	.word	0x0700000c
24105d6c:	0700040c 	.word	0x0700040c
24105d70:	0700080c 	.word	0x0700080c
24105d74:	07000c0c 	.word	0x07000c0c
24105d78:	0700100c 	.word	0x0700100c
24105d7c:	0700140c 	.word	0x0700140c
24105d80:	0700082c 	.word	0x0700082c
24105d84:	07000c2c 	.word	0x07000c2c
24105d88:	0700102c 	.word	0x0700102c
24105d8c:	0700142c 	.word	0x0700142c
24105d90:	0700182c 	.word	0x0700182c
24105d94:	07001418 	.word	0x07001418
24105d98:	07001818 	.word	0x07001818
24105d9c:	0300001c 	.word	0x0300001c
24105da0:	0300041c 	.word	0x0300041c
24105da4:	07000420 	.word	0x07000420
24105da8:	07000820 	.word	0x07000820
24105dac:	07000c20 	.word	0x07000c20
24105db0:	07001020 	.word	0x07001020
24105db4:	07001420 	.word	0x07001420
24105db8:	07001820 	.word	0x07001820
24105dbc:	07000030 	.word	0x07000030
24105dc0:	07000430 	.word	0x07000430
24105dc4:	07000830 	.word	0x07000830
24105dc8:	07000c30 	.word	0x07000c30
24105dcc:	07001030 	.word	0x07001030
24105dd0:	07001430 	.word	0x07001430
24105dd4:	07001830 	.word	0x07001830
24105dd8:	07001c30 	.word	0x07001c30
24105ddc:	07000034 	.word	0x07000034
24105de0:	07000434 	.word	0x07000434
24105de4:	03000c14 	.word	0x03000c14
24105de8:	01001014 	.word	0x01001014
24105dec:	03001414 	.word	0x03001414
24105df0:	01001814 	.word	0x01001814
24105df4:	03000014 	.word	0x03000014
24105df8:	03000414 	.word	0x03000414
24105dfc:	03000814 	.word	0x03000814

24105e00 <HAL_RCCEx_GetPLL1CLKFreq>:
  * @brief  Return PLL1 clock frequency
  * @note   RCC_PERIPH_FREQUENCY_NO returned for non activated output or oscillator not ready
  * @retval PLL1 output clock frequency
  */
uint32_t HAL_RCCEx_GetPLL1CLKFreq(void)
{
24105e00:	b5f0      	push	{r4, r5, r6, r7, lr}
24105e02:	b087      	sub	sp, #28
24105e04:	af02      	add	r7, sp, #8
  uint32_t plloutputfreq = RCC_PERIPH_FREQUENCY_NO;
24105e06:	2300      	movs	r3, #0
24105e08:	60fb      	str	r3, [r7, #12]
  uint32_t divm;

  /* PLL_VCO = (HSE_VALUE, MSI_VALUE or HSI_VALUE/HSIDIV) / PLLM * (PLLN + FRACN)
     SYSCLK = PLL_VCO / PLLP1 / PLLP2
  */
  if (LL_RCC_PLL1_IsReady() != 0U)
24105e0a:	f7fc fa05 	bl	24102218 <LL_RCC_PLL1_IsReady>
24105e0e:	4603      	mov	r3, r0
24105e10:	2b00      	cmp	r3, #0
24105e12:	d02a      	beq.n	24105e6a <HAL_RCCEx_GetPLL1CLKFreq+0x6a>
  {
    if (LL_RCC_PLL1P_IsEnabled() != 0U)
24105e14:	f7fc fa68 	bl	241022e8 <LL_RCC_PLL1P_IsEnabled>
24105e18:	4603      	mov	r3, r0
24105e1a:	2b00      	cmp	r3, #0
24105e1c:	d031      	beq.n	24105e82 <HAL_RCCEx_GetPLL1CLKFreq+0x82>
    {
      uint32_t pllinputfreq = RCCEx_GetPLLSourceFreq(LL_RCC_PLL1_GetSource());
24105e1e:	f7fc f9ed 	bl	241021fc <LL_RCC_PLL1_GetSource>
24105e22:	4603      	mov	r3, r0
24105e24:	4618      	mov	r0, r3
24105e26:	f000 f957 	bl	241060d8 <RCCEx_GetPLLSourceFreq>
24105e2a:	60b8      	str	r0, [r7, #8]

      if (pllinputfreq != RCC_PERIPH_FREQUENCY_NO)
24105e2c:	68bb      	ldr	r3, [r7, #8]
24105e2e:	2b00      	cmp	r3, #0
24105e30:	d027      	beq.n	24105e82 <HAL_RCCEx_GetPLL1CLKFreq+0x82>
      {
        divm = LL_RCC_PLL1_GetM();
24105e32:	f7fc fa29 	bl	24102288 <LL_RCC_PLL1_GetM>
24105e36:	6078      	str	r0, [r7, #4]

        if (divm != 0U)
24105e38:	687b      	ldr	r3, [r7, #4]
24105e3a:	2b00      	cmp	r3, #0
24105e3c:	d021      	beq.n	24105e82 <HAL_RCCEx_GetPLL1CLKFreq+0x82>
        {
          plloutputfreq = RCCEx_CalcPLLFreq(pllinputfreq, divm, LL_RCC_PLL1_GetN(), LL_RCC_PLL1_GetFRACN(), \
24105e3e:	f7fc fa13 	bl	24102268 <LL_RCC_PLL1_GetN>
24105e42:	4605      	mov	r5, r0
24105e44:	f7fc fa64 	bl	24102310 <LL_RCC_PLL1_GetFRACN>
24105e48:	4606      	mov	r6, r0
24105e4a:	f7fc fa2d 	bl	241022a8 <LL_RCC_PLL1_GetP1>
24105e4e:	4604      	mov	r4, r0
24105e50:	f7fc fa3a 	bl	241022c8 <LL_RCC_PLL1_GetP2>
24105e54:	4603      	mov	r3, r0
24105e56:	9301      	str	r3, [sp, #4]
24105e58:	9400      	str	r4, [sp, #0]
24105e5a:	4633      	mov	r3, r6
24105e5c:	462a      	mov	r2, r5
24105e5e:	6879      	ldr	r1, [r7, #4]
24105e60:	68b8      	ldr	r0, [r7, #8]
24105e62:	f000 f997 	bl	24106194 <RCCEx_CalcPLLFreq>
24105e66:	60f8      	str	r0, [r7, #12]
24105e68:	e00b      	b.n	24105e82 <HAL_RCCEx_GetPLL1CLKFreq+0x82>
                                            LL_RCC_PLL1_GetP1(), LL_RCC_PLL1_GetP2());
        }
      }
    }
  }
  else if (LL_RCC_PLL1_IsEnabledBypass() != 0U)
24105e6a:	f7fc f9e9 	bl	24102240 <LL_RCC_PLL1_IsEnabledBypass>
24105e6e:	4603      	mov	r3, r0
24105e70:	2b00      	cmp	r3, #0
24105e72:	d006      	beq.n	24105e82 <HAL_RCCEx_GetPLL1CLKFreq+0x82>
  {
    plloutputfreq = RCCEx_GetPLLSourceFreq(LL_RCC_PLL1_GetSource());
24105e74:	f7fc f9c2 	bl	241021fc <LL_RCC_PLL1_GetSource>
24105e78:	4603      	mov	r3, r0
24105e7a:	4618      	mov	r0, r3
24105e7c:	f000 f92c 	bl	241060d8 <RCCEx_GetPLLSourceFreq>
24105e80:	60f8      	str	r0, [r7, #12]
  else
  {
    /* Nothing to do */
  }

  return plloutputfreq;
24105e82:	68fb      	ldr	r3, [r7, #12]
}
24105e84:	4618      	mov	r0, r3
24105e86:	3714      	adds	r7, #20
24105e88:	46bd      	mov	sp, r7
24105e8a:	bdf0      	pop	{r4, r5, r6, r7, pc}

24105e8c <HAL_RCCEx_GetPLL2CLKFreq>:
  * @brief  Return PLL2 clock frequency
  * @note   RCC_PERIPH_FREQUENCY_NO returned for non activated output or oscillator not ready
  * @retval PLL2 output clock frequency
  */
uint32_t HAL_RCCEx_GetPLL2CLKFreq(void)
{
24105e8c:	b5f0      	push	{r4, r5, r6, r7, lr}
24105e8e:	b087      	sub	sp, #28
24105e90:	af02      	add	r7, sp, #8
  uint32_t plloutputfreq = RCC_PERIPH_FREQUENCY_NO;
24105e92:	2300      	movs	r3, #0
24105e94:	60fb      	str	r3, [r7, #12]
  uint32_t divm;

  /* PLL_VCO = (HSE_VALUE, MSI_VALUE or HSI_VALUE/HSIDIV) / PLLM * (PLLN + FRACN)
     SYSCLK = PLL_VCO / PLLP1 / PLLP2
  */
  if (LL_RCC_PLL2_IsReady() != 0U)
24105e96:	f7fc fa57 	bl	24102348 <LL_RCC_PLL2_IsReady>
24105e9a:	4603      	mov	r3, r0
24105e9c:	2b00      	cmp	r3, #0
24105e9e:	d02a      	beq.n	24105ef6 <HAL_RCCEx_GetPLL2CLKFreq+0x6a>
  {
    if (LL_RCC_PLL2P_IsEnabled() != 0U)
24105ea0:	f7fc faba 	bl	24102418 <LL_RCC_PLL2P_IsEnabled>
24105ea4:	4603      	mov	r3, r0
24105ea6:	2b00      	cmp	r3, #0
24105ea8:	d031      	beq.n	24105f0e <HAL_RCCEx_GetPLL2CLKFreq+0x82>
    {
      uint32_t pllinputfreq = RCCEx_GetPLLSourceFreq(LL_RCC_PLL2_GetSource());
24105eaa:	f7fc fa3f 	bl	2410232c <LL_RCC_PLL2_GetSource>
24105eae:	4603      	mov	r3, r0
24105eb0:	4618      	mov	r0, r3
24105eb2:	f000 f911 	bl	241060d8 <RCCEx_GetPLLSourceFreq>
24105eb6:	60b8      	str	r0, [r7, #8]

      if (pllinputfreq != RCC_PERIPH_FREQUENCY_NO)
24105eb8:	68bb      	ldr	r3, [r7, #8]
24105eba:	2b00      	cmp	r3, #0
24105ebc:	d027      	beq.n	24105f0e <HAL_RCCEx_GetPLL2CLKFreq+0x82>
      {

        divm = LL_RCC_PLL2_GetM();
24105ebe:	f7fc fa7b 	bl	241023b8 <LL_RCC_PLL2_GetM>
24105ec2:	6078      	str	r0, [r7, #4]

        if (divm != 0U)
24105ec4:	687b      	ldr	r3, [r7, #4]
24105ec6:	2b00      	cmp	r3, #0
24105ec8:	d021      	beq.n	24105f0e <HAL_RCCEx_GetPLL2CLKFreq+0x82>
        {
          plloutputfreq = RCCEx_CalcPLLFreq(pllinputfreq, divm, LL_RCC_PLL2_GetN(), LL_RCC_PLL2_GetFRACN(), \
24105eca:	f7fc fa65 	bl	24102398 <LL_RCC_PLL2_GetN>
24105ece:	4605      	mov	r5, r0
24105ed0:	f7fc fab6 	bl	24102440 <LL_RCC_PLL2_GetFRACN>
24105ed4:	4606      	mov	r6, r0
24105ed6:	f7fc fa7f 	bl	241023d8 <LL_RCC_PLL2_GetP1>
24105eda:	4604      	mov	r4, r0
24105edc:	f7fc fa8c 	bl	241023f8 <LL_RCC_PLL2_GetP2>
24105ee0:	4603      	mov	r3, r0
24105ee2:	9301      	str	r3, [sp, #4]
24105ee4:	9400      	str	r4, [sp, #0]
24105ee6:	4633      	mov	r3, r6
24105ee8:	462a      	mov	r2, r5
24105eea:	6879      	ldr	r1, [r7, #4]
24105eec:	68b8      	ldr	r0, [r7, #8]
24105eee:	f000 f951 	bl	24106194 <RCCEx_CalcPLLFreq>
24105ef2:	60f8      	str	r0, [r7, #12]
24105ef4:	e00b      	b.n	24105f0e <HAL_RCCEx_GetPLL2CLKFreq+0x82>
                                            LL_RCC_PLL2_GetP1(), LL_RCC_PLL2_GetP2());
        }
      }
    }
  }
  else if (LL_RCC_PLL2_IsEnabledBypass() != 0U)
24105ef6:	f7fc fa3b 	bl	24102370 <LL_RCC_PLL2_IsEnabledBypass>
24105efa:	4603      	mov	r3, r0
24105efc:	2b00      	cmp	r3, #0
24105efe:	d006      	beq.n	24105f0e <HAL_RCCEx_GetPLL2CLKFreq+0x82>
  {
    plloutputfreq = RCCEx_GetPLLSourceFreq(LL_RCC_PLL2_GetSource());
24105f00:	f7fc fa14 	bl	2410232c <LL_RCC_PLL2_GetSource>
24105f04:	4603      	mov	r3, r0
24105f06:	4618      	mov	r0, r3
24105f08:	f000 f8e6 	bl	241060d8 <RCCEx_GetPLLSourceFreq>
24105f0c:	60f8      	str	r0, [r7, #12]
  else
  {
    /* Nothing to do */
  }

  return plloutputfreq;
24105f0e:	68fb      	ldr	r3, [r7, #12]
}
24105f10:	4618      	mov	r0, r3
24105f12:	3714      	adds	r7, #20
24105f14:	46bd      	mov	sp, r7
24105f16:	bdf0      	pop	{r4, r5, r6, r7, pc}

24105f18 <HAL_RCCEx_GetPLL3CLKFreq>:
  * @brief  Return PLL3 clock frequency
  * @note   RCC_PERIPH_FREQUENCY_NO returned for non activated output or oscillator not ready
  * @retval PLL3 output clock frequency
  */
uint32_t HAL_RCCEx_GetPLL3CLKFreq(void)
{
24105f18:	b5f0      	push	{r4, r5, r6, r7, lr}
24105f1a:	b087      	sub	sp, #28
24105f1c:	af02      	add	r7, sp, #8
  uint32_t plloutputfreq = RCC_PERIPH_FREQUENCY_NO;
24105f1e:	2300      	movs	r3, #0
24105f20:	60fb      	str	r3, [r7, #12]
  uint32_t divm;

  /* PLL_VCO = (HSE_VALUE, MSI_VALUE or HSI_VALUE/HSIDIV) / PLLM * (PLLN + FRACN)
     SYSCLK = PLL_VCO / PLLP1 / PLLP2
  */
  if (LL_RCC_PLL3_IsReady() != 0U)
24105f22:	f7fc faa9 	bl	24102478 <LL_RCC_PLL3_IsReady>
24105f26:	4603      	mov	r3, r0
24105f28:	2b00      	cmp	r3, #0
24105f2a:	d02a      	beq.n	24105f82 <HAL_RCCEx_GetPLL3CLKFreq+0x6a>
  {
    if (LL_RCC_PLL3P_IsEnabled() != 0U)
24105f2c:	f7fc fb0c 	bl	24102548 <LL_RCC_PLL3P_IsEnabled>
24105f30:	4603      	mov	r3, r0
24105f32:	2b00      	cmp	r3, #0
24105f34:	d031      	beq.n	24105f9a <HAL_RCCEx_GetPLL3CLKFreq+0x82>
    {
      uint32_t pllinputfreq = RCCEx_GetPLLSourceFreq(LL_RCC_PLL3_GetSource());
24105f36:	f7fc fa91 	bl	2410245c <LL_RCC_PLL3_GetSource>
24105f3a:	4603      	mov	r3, r0
24105f3c:	4618      	mov	r0, r3
24105f3e:	f000 f8cb 	bl	241060d8 <RCCEx_GetPLLSourceFreq>
24105f42:	60b8      	str	r0, [r7, #8]

      if (pllinputfreq != RCC_PERIPH_FREQUENCY_NO)
24105f44:	68bb      	ldr	r3, [r7, #8]
24105f46:	2b00      	cmp	r3, #0
24105f48:	d027      	beq.n	24105f9a <HAL_RCCEx_GetPLL3CLKFreq+0x82>
      {
        divm = LL_RCC_PLL3_GetM();
24105f4a:	f7fc facd 	bl	241024e8 <LL_RCC_PLL3_GetM>
24105f4e:	6078      	str	r0, [r7, #4]

        if (divm != 0U)
24105f50:	687b      	ldr	r3, [r7, #4]
24105f52:	2b00      	cmp	r3, #0
24105f54:	d021      	beq.n	24105f9a <HAL_RCCEx_GetPLL3CLKFreq+0x82>
        {
          plloutputfreq = RCCEx_CalcPLLFreq(pllinputfreq, divm, LL_RCC_PLL3_GetN(), LL_RCC_PLL3_GetFRACN(), \
24105f56:	f7fc fab7 	bl	241024c8 <LL_RCC_PLL3_GetN>
24105f5a:	4605      	mov	r5, r0
24105f5c:	f7fc fb08 	bl	24102570 <LL_RCC_PLL3_GetFRACN>
24105f60:	4606      	mov	r6, r0
24105f62:	f7fc fad1 	bl	24102508 <LL_RCC_PLL3_GetP1>
24105f66:	4604      	mov	r4, r0
24105f68:	f7fc fade 	bl	24102528 <LL_RCC_PLL3_GetP2>
24105f6c:	4603      	mov	r3, r0
24105f6e:	9301      	str	r3, [sp, #4]
24105f70:	9400      	str	r4, [sp, #0]
24105f72:	4633      	mov	r3, r6
24105f74:	462a      	mov	r2, r5
24105f76:	6879      	ldr	r1, [r7, #4]
24105f78:	68b8      	ldr	r0, [r7, #8]
24105f7a:	f000 f90b 	bl	24106194 <RCCEx_CalcPLLFreq>
24105f7e:	60f8      	str	r0, [r7, #12]
24105f80:	e00b      	b.n	24105f9a <HAL_RCCEx_GetPLL3CLKFreq+0x82>
                                            LL_RCC_PLL3_GetP1(), LL_RCC_PLL3_GetP2());
        }
      }
    }
  }
  else if (LL_RCC_PLL3_IsEnabledBypass() != 0U)
24105f82:	f7fc fa8d 	bl	241024a0 <LL_RCC_PLL3_IsEnabledBypass>
24105f86:	4603      	mov	r3, r0
24105f88:	2b00      	cmp	r3, #0
24105f8a:	d006      	beq.n	24105f9a <HAL_RCCEx_GetPLL3CLKFreq+0x82>
  {
    plloutputfreq = RCCEx_GetPLLSourceFreq(LL_RCC_PLL3_GetSource());
24105f8c:	f7fc fa66 	bl	2410245c <LL_RCC_PLL3_GetSource>
24105f90:	4603      	mov	r3, r0
24105f92:	4618      	mov	r0, r3
24105f94:	f000 f8a0 	bl	241060d8 <RCCEx_GetPLLSourceFreq>
24105f98:	60f8      	str	r0, [r7, #12]
  else
  {
    /* Nothing to do */
  }

  return plloutputfreq;
24105f9a:	68fb      	ldr	r3, [r7, #12]
}
24105f9c:	4618      	mov	r0, r3
24105f9e:	3714      	adds	r7, #20
24105fa0:	46bd      	mov	sp, r7
24105fa2:	bdf0      	pop	{r4, r5, r6, r7, pc}

24105fa4 <HAL_RCCEx_GetPLL4CLKFreq>:
  * @brief  Return PLL4 clock frequency
  * @note   RCC_PERIPH_FREQUENCY_NO returned for non activated output or oscillator not ready
  * @retval PLL4 output clock frequency
  */
uint32_t HAL_RCCEx_GetPLL4CLKFreq(void)
{
24105fa4:	b5f0      	push	{r4, r5, r6, r7, lr}
24105fa6:	b087      	sub	sp, #28
24105fa8:	af02      	add	r7, sp, #8
  uint32_t plloutputfreq = RCC_PERIPH_FREQUENCY_NO;
24105faa:	2300      	movs	r3, #0
24105fac:	60fb      	str	r3, [r7, #12]
  uint32_t divm;

  /* PLL_VCO = (HSE_VALUE, MSI_VALUE or HSI_VALUE/HSIDIV) / PLLM * (PLLN + FRACN)
     SYSCLK = PLL_VCO / PLLP1 / PLLP2
  */
  if (LL_RCC_PLL4_IsReady() != 0U)
24105fae:	f7fc fafb 	bl	241025a8 <LL_RCC_PLL4_IsReady>
24105fb2:	4603      	mov	r3, r0
24105fb4:	2b00      	cmp	r3, #0
24105fb6:	d02a      	beq.n	2410600e <HAL_RCCEx_GetPLL4CLKFreq+0x6a>
  {
    if (LL_RCC_PLL4P_IsEnabled() != 0U)
24105fb8:	f7fc fb5e 	bl	24102678 <LL_RCC_PLL4P_IsEnabled>
24105fbc:	4603      	mov	r3, r0
24105fbe:	2b00      	cmp	r3, #0
24105fc0:	d031      	beq.n	24106026 <HAL_RCCEx_GetPLL4CLKFreq+0x82>
    {
      uint32_t pllinputfreq = RCCEx_GetPLLSourceFreq(LL_RCC_PLL4_GetSource());
24105fc2:	f7fc fae3 	bl	2410258c <LL_RCC_PLL4_GetSource>
24105fc6:	4603      	mov	r3, r0
24105fc8:	4618      	mov	r0, r3
24105fca:	f000 f885 	bl	241060d8 <RCCEx_GetPLLSourceFreq>
24105fce:	60b8      	str	r0, [r7, #8]

      if (pllinputfreq != RCC_PERIPH_FREQUENCY_NO)
24105fd0:	68bb      	ldr	r3, [r7, #8]
24105fd2:	2b00      	cmp	r3, #0
24105fd4:	d027      	beq.n	24106026 <HAL_RCCEx_GetPLL4CLKFreq+0x82>
      {

        divm = LL_RCC_PLL4_GetM();
24105fd6:	f7fc fb1f 	bl	24102618 <LL_RCC_PLL4_GetM>
24105fda:	6078      	str	r0, [r7, #4]

        if (divm != 0U)
24105fdc:	687b      	ldr	r3, [r7, #4]
24105fde:	2b00      	cmp	r3, #0
24105fe0:	d021      	beq.n	24106026 <HAL_RCCEx_GetPLL4CLKFreq+0x82>
        {
          plloutputfreq = RCCEx_CalcPLLFreq(pllinputfreq, divm, LL_RCC_PLL4_GetN(), LL_RCC_PLL4_GetFRACN(), \
24105fe2:	f7fc fb09 	bl	241025f8 <LL_RCC_PLL4_GetN>
24105fe6:	4605      	mov	r5, r0
24105fe8:	f7fc fb5a 	bl	241026a0 <LL_RCC_PLL4_GetFRACN>
24105fec:	4606      	mov	r6, r0
24105fee:	f7fc fb23 	bl	24102638 <LL_RCC_PLL4_GetP1>
24105ff2:	4604      	mov	r4, r0
24105ff4:	f7fc fb30 	bl	24102658 <LL_RCC_PLL4_GetP2>
24105ff8:	4603      	mov	r3, r0
24105ffa:	9301      	str	r3, [sp, #4]
24105ffc:	9400      	str	r4, [sp, #0]
24105ffe:	4633      	mov	r3, r6
24106000:	462a      	mov	r2, r5
24106002:	6879      	ldr	r1, [r7, #4]
24106004:	68b8      	ldr	r0, [r7, #8]
24106006:	f000 f8c5 	bl	24106194 <RCCEx_CalcPLLFreq>
2410600a:	60f8      	str	r0, [r7, #12]
2410600c:	e00b      	b.n	24106026 <HAL_RCCEx_GetPLL4CLKFreq+0x82>
                                            LL_RCC_PLL4_GetP1(), LL_RCC_PLL4_GetP2());
        }
      }
    }
  }
  else if (LL_RCC_PLL4_IsEnabledBypass() != 0U)
2410600e:	f7fc fadf 	bl	241025d0 <LL_RCC_PLL4_IsEnabledBypass>
24106012:	4603      	mov	r3, r0
24106014:	2b00      	cmp	r3, #0
24106016:	d006      	beq.n	24106026 <HAL_RCCEx_GetPLL4CLKFreq+0x82>
  {
    plloutputfreq = RCCEx_GetPLLSourceFreq(LL_RCC_PLL4_GetSource());
24106018:	f7fc fab8 	bl	2410258c <LL_RCC_PLL4_GetSource>
2410601c:	4603      	mov	r3, r0
2410601e:	4618      	mov	r0, r3
24106020:	f000 f85a 	bl	241060d8 <RCCEx_GetPLLSourceFreq>
24106024:	60f8      	str	r0, [r7, #12]
  else
  {
    /* Nothing to do */
  }

  return plloutputfreq;
24106026:	68fb      	ldr	r3, [r7, #12]
}
24106028:	4618      	mov	r0, r3
2410602a:	3714      	adds	r7, #20
2410602c:	46bd      	mov	sp, r7
2410602e:	bdf0      	pop	{r4, r5, r6, r7, pc}

24106030 <RCCEx_GetHCLKFreq>:
  * @brief  Return HCLK clock frequency
  * @param  SYSCLK_Frequency SYSCLK clock frequency
  * @retval HCLK clock frequency (in Hz)
  */
static uint32_t RCCEx_GetHCLKFreq(uint32_t SYSCLK_Frequency)
{
24106030:	b580      	push	{r7, lr}
24106032:	b082      	sub	sp, #8
24106034:	af00      	add	r7, sp, #0
24106036:	6078      	str	r0, [r7, #4]
  /* HCLK clock frequency */
  return LL_RCC_CALC_HCLK_FREQ(SYSCLK_Frequency, LL_RCC_GetAHBPrescaler());
24106038:	f7fb fcca 	bl	241019d0 <LL_RCC_GetAHBPrescaler>
2410603c:	4603      	mov	r3, r0
2410603e:	0d1b      	lsrs	r3, r3, #20
24106040:	f003 0307 	and.w	r3, r3, #7
24106044:	687a      	ldr	r2, [r7, #4]
24106046:	fa22 f303 	lsr.w	r3, r2, r3
}
2410604a:	4618      	mov	r0, r3
2410604c:	3708      	adds	r7, #8
2410604e:	46bd      	mov	sp, r7
24106050:	bd80      	pop	{r7, pc}

24106052 <RCCEx_GetPCLK1Freq>:
  * @brief  Return PCLK1 clock frequency
  * @param  HCLK_Frequency HCLK clock frequency
  * @retval PCLK1 clock frequency (in Hz)
  */
static uint32_t RCCEx_GetPCLK1Freq(uint32_t HCLK_Frequency)
{
24106052:	b580      	push	{r7, lr}
24106054:	b082      	sub	sp, #8
24106056:	af00      	add	r7, sp, #0
24106058:	6078      	str	r0, [r7, #4]
  /* PCLK1 clock frequency */
  return LL_RCC_CALC_PCLK1_FREQ(HCLK_Frequency, LL_RCC_GetAPB1Prescaler());
2410605a:	f7fb fcc7 	bl	241019ec <LL_RCC_GetAPB1Prescaler>
2410605e:	4603      	mov	r3, r0
24106060:	f003 0307 	and.w	r3, r3, #7
24106064:	687a      	ldr	r2, [r7, #4]
24106066:	fa22 f303 	lsr.w	r3, r2, r3
}
2410606a:	4618      	mov	r0, r3
2410606c:	3708      	adds	r7, #8
2410606e:	46bd      	mov	sp, r7
24106070:	bd80      	pop	{r7, pc}

24106072 <RCCEx_GetPCLK2Freq>:
  * @brief  Return PCLK2 clock frequency
  * @param  HCLK_Frequency HCLK clock frequency
  * @retval PCLK2 clock frequency (in Hz)
  */
static uint32_t RCCEx_GetPCLK2Freq(uint32_t HCLK_Frequency)
{
24106072:	b580      	push	{r7, lr}
24106074:	b082      	sub	sp, #8
24106076:	af00      	add	r7, sp, #0
24106078:	6078      	str	r0, [r7, #4]
  /* PCLK2 clock frequency */
  return LL_RCC_CALC_PCLK2_FREQ(HCLK_Frequency, LL_RCC_GetAPB2Prescaler());
2410607a:	f7fb fcc5 	bl	24101a08 <LL_RCC_GetAPB2Prescaler>
2410607e:	4603      	mov	r3, r0
24106080:	091b      	lsrs	r3, r3, #4
24106082:	f003 0307 	and.w	r3, r3, #7
24106086:	687a      	ldr	r2, [r7, #4]
24106088:	fa22 f303 	lsr.w	r3, r2, r3
}
2410608c:	4618      	mov	r0, r3
2410608e:	3708      	adds	r7, #8
24106090:	46bd      	mov	sp, r7
24106092:	bd80      	pop	{r7, pc}

24106094 <RCCEx_GetPCLK4Freq>:
  * @brief  Return PCLK4 clock frequency
  * @param  HCLK_Frequency HCLK clock frequency
  * @retval PCLK4 clock frequency (in Hz)
  */
static uint32_t RCCEx_GetPCLK4Freq(uint32_t HCLK_Frequency)
{
24106094:	b580      	push	{r7, lr}
24106096:	b082      	sub	sp, #8
24106098:	af00      	add	r7, sp, #0
2410609a:	6078      	str	r0, [r7, #4]
  /* PCLK4 clock frequency */
  return LL_RCC_CALC_PCLK4_FREQ(HCLK_Frequency, LL_RCC_GetAPB4Prescaler());
2410609c:	f7fb fcc2 	bl	24101a24 <LL_RCC_GetAPB4Prescaler>
241060a0:	4603      	mov	r3, r0
241060a2:	0b1b      	lsrs	r3, r3, #12
241060a4:	f003 0307 	and.w	r3, r3, #7
241060a8:	687a      	ldr	r2, [r7, #4]
241060aa:	fa22 f303 	lsr.w	r3, r2, r3
}
241060ae:	4618      	mov	r0, r3
241060b0:	3708      	adds	r7, #8
241060b2:	46bd      	mov	sp, r7
241060b4:	bd80      	pop	{r7, pc}

241060b6 <RCCEx_GetPCLK5Freq>:
  * @brief  Return PCLK5 clock frequency
  * @param  HCLK_Frequency HCLK clock frequency
  * @retval PCLK5 clock frequency (in Hz)
  */
static uint32_t RCCEx_GetPCLK5Freq(uint32_t HCLK_Frequency)
{
241060b6:	b580      	push	{r7, lr}
241060b8:	b082      	sub	sp, #8
241060ba:	af00      	add	r7, sp, #0
241060bc:	6078      	str	r0, [r7, #4]
  /* PCLK5 clock frequency */
  return LL_RCC_CALC_PCLK5_FREQ(HCLK_Frequency, LL_RCC_GetAPB5Prescaler());
241060be:	f7fb fcbf 	bl	24101a40 <LL_RCC_GetAPB5Prescaler>
241060c2:	4603      	mov	r3, r0
241060c4:	0c1b      	lsrs	r3, r3, #16
241060c6:	f003 0307 	and.w	r3, r3, #7
241060ca:	687a      	ldr	r2, [r7, #4]
241060cc:	fa22 f303 	lsr.w	r3, r2, r3
}
241060d0:	4618      	mov	r0, r3
241060d2:	3708      	adds	r7, #8
241060d4:	46bd      	mov	sp, r7
241060d6:	bd80      	pop	{r7, pc}

241060d8 <RCCEx_GetPLLSourceFreq>:
  * @brief  Return PLL source clock frequency
  * @param  PLLsource PLL source clock
  * @retval PLL source clock frequency (in Hz)
  */
static uint32_t RCCEx_GetPLLSourceFreq(uint32_t PLLsource)
{
241060d8:	b580      	push	{r7, lr}
241060da:	b084      	sub	sp, #16
241060dc:	af00      	add	r7, sp, #0
241060de:	6078      	str	r0, [r7, #4]
  uint32_t pllinputfreq = RCC_PERIPH_FREQUENCY_NO;
241060e0:	2300      	movs	r3, #0
241060e2:	60fb      	str	r3, [r7, #12]

  switch (PLLsource)
241060e4:	687b      	ldr	r3, [r7, #4]
241060e6:	f1b3 5f40 	cmp.w	r3, #805306368	@ 0x30000000
241060ea:	d039      	beq.n	24106160 <RCCEx_GetPLLSourceFreq+0x88>
241060ec:	687b      	ldr	r3, [r7, #4]
241060ee:	f1b3 5f40 	cmp.w	r3, #805306368	@ 0x30000000
241060f2:	d838      	bhi.n	24106166 <RCCEx_GetPLLSourceFreq+0x8e>
241060f4:	687b      	ldr	r3, [r7, #4]
241060f6:	f1b3 5f00 	cmp.w	r3, #536870912	@ 0x20000000
241060fa:	d029      	beq.n	24106150 <RCCEx_GetPLLSourceFreq+0x78>
241060fc:	687b      	ldr	r3, [r7, #4]
241060fe:	f1b3 5f00 	cmp.w	r3, #536870912	@ 0x20000000
24106102:	d830      	bhi.n	24106166 <RCCEx_GetPLLSourceFreq+0x8e>
24106104:	687b      	ldr	r3, [r7, #4]
24106106:	2b00      	cmp	r3, #0
24106108:	d004      	beq.n	24106114 <RCCEx_GetPLLSourceFreq+0x3c>
2410610a:	687b      	ldr	r3, [r7, #4]
2410610c:	f1b3 5f80 	cmp.w	r3, #268435456	@ 0x10000000
24106110:	d00e      	beq.n	24106130 <RCCEx_GetPLLSourceFreq+0x58>
      pllinputfreq = EXTERNAL_CLOCK_VALUE;
      break;

    default:
      /* unexpected case */
      break;
24106112:	e028      	b.n	24106166 <RCCEx_GetPLLSourceFreq+0x8e>
      if (LL_RCC_HSI_IsReady() != 0U)
24106114:	f7fb fbfc 	bl	24101910 <LL_RCC_HSI_IsReady>
24106118:	4603      	mov	r3, r0
2410611a:	2b00      	cmp	r3, #0
2410611c:	d025      	beq.n	2410616a <RCCEx_GetPLLSourceFreq+0x92>
        pllinputfreq = HSI_VALUE >> (LL_RCC_HSI_GetDivider() >> RCC_HSICFGR_HSIDIV_Pos);
2410611e:	f7fb fc09 	bl	24101934 <LL_RCC_HSI_GetDivider>
24106122:	4603      	mov	r3, r0
24106124:	09db      	lsrs	r3, r3, #7
24106126:	4a16      	ldr	r2, [pc, #88]	@ (24106180 <RCCEx_GetPLLSourceFreq+0xa8>)
24106128:	fa22 f303 	lsr.w	r3, r2, r3
2410612c:	60fb      	str	r3, [r7, #12]
      break;
2410612e:	e01c      	b.n	2410616a <RCCEx_GetPLLSourceFreq+0x92>
      if (LL_RCC_MSI_IsReady() != 0U)
24106130:	f7fb fc0e 	bl	24101950 <LL_RCC_MSI_IsReady>
24106134:	4603      	mov	r3, r0
24106136:	2b00      	cmp	r3, #0
24106138:	d019      	beq.n	2410616e <RCCEx_GetPLLSourceFreq+0x96>
        if (LL_RCC_MSI_GetFrequency() == LL_RCC_MSI_FREQ_4MHZ)
2410613a:	f7fb fc1b 	bl	24101974 <LL_RCC_MSI_GetFrequency>
2410613e:	4603      	mov	r3, r0
24106140:	2b00      	cmp	r3, #0
24106142:	d102      	bne.n	2410614a <RCCEx_GetPLLSourceFreq+0x72>
          pllinputfreq = MSI_VALUE;
24106144:	4b0f      	ldr	r3, [pc, #60]	@ (24106184 <RCCEx_GetPLLSourceFreq+0xac>)
24106146:	60fb      	str	r3, [r7, #12]
      break;
24106148:	e011      	b.n	2410616e <RCCEx_GetPLLSourceFreq+0x96>
          pllinputfreq = 16000000UL;
2410614a:	4b0f      	ldr	r3, [pc, #60]	@ (24106188 <RCCEx_GetPLLSourceFreq+0xb0>)
2410614c:	60fb      	str	r3, [r7, #12]
      break;
2410614e:	e00e      	b.n	2410616e <RCCEx_GetPLLSourceFreq+0x96>
      if (LL_RCC_HSE_IsReady() != 0U)
24106150:	f7fb fbcc 	bl	241018ec <LL_RCC_HSE_IsReady>
24106154:	4603      	mov	r3, r0
24106156:	2b00      	cmp	r3, #0
24106158:	d00b      	beq.n	24106172 <RCCEx_GetPLLSourceFreq+0x9a>
        pllinputfreq = HSE_VALUE;
2410615a:	4b0c      	ldr	r3, [pc, #48]	@ (2410618c <RCCEx_GetPLLSourceFreq+0xb4>)
2410615c:	60fb      	str	r3, [r7, #12]
      break;
2410615e:	e008      	b.n	24106172 <RCCEx_GetPLLSourceFreq+0x9a>
      pllinputfreq = EXTERNAL_CLOCK_VALUE;
24106160:	4b0b      	ldr	r3, [pc, #44]	@ (24106190 <RCCEx_GetPLLSourceFreq+0xb8>)
24106162:	60fb      	str	r3, [r7, #12]
      break;
24106164:	e006      	b.n	24106174 <RCCEx_GetPLLSourceFreq+0x9c>
      break;
24106166:	bf00      	nop
24106168:	e004      	b.n	24106174 <RCCEx_GetPLLSourceFreq+0x9c>
      break;
2410616a:	bf00      	nop
2410616c:	e002      	b.n	24106174 <RCCEx_GetPLLSourceFreq+0x9c>
      break;
2410616e:	bf00      	nop
24106170:	e000      	b.n	24106174 <RCCEx_GetPLLSourceFreq+0x9c>
      break;
24106172:	bf00      	nop
  }

  return pllinputfreq;
24106174:	68fb      	ldr	r3, [r7, #12]
}
24106176:	4618      	mov	r0, r3
24106178:	3710      	adds	r7, #16
2410617a:	46bd      	mov	sp, r7
2410617c:	bd80      	pop	{r7, pc}
2410617e:	bf00      	nop
24106180:	03d09000 	.word	0x03d09000
24106184:	003d0900 	.word	0x003d0900
24106188:	00f42400 	.word	0x00f42400
2410618c:	016e3600 	.word	0x016e3600
24106190:	00bb8000 	.word	0x00bb8000

24106194 <RCCEx_CalcPLLFreq>:
  * @param  P2     VCO output divider P2 between 1 and 7
  * @retval PLL clock frequency (in Hz)
  */
static uint32_t RCCEx_CalcPLLFreq(uint32_t PLLInputFreq, uint32_t M, uint32_t N, uint32_t FRACN, uint32_t P1,
                                  uint32_t P2)
{
24106194:	b480      	push	{r7}
24106196:	b087      	sub	sp, #28
24106198:	af00      	add	r7, sp, #0
2410619a:	60f8      	str	r0, [r7, #12]
2410619c:	60b9      	str	r1, [r7, #8]
2410619e:	607a      	str	r2, [r7, #4]
241061a0:	603b      	str	r3, [r7, #0]
  float_t freq;

  freq = ((float_t)PLLInputFreq * ((float_t)N + ((float_t)FRACN / (float_t)0x1000000))) / (float_t)M;
241061a2:	68fb      	ldr	r3, [r7, #12]
241061a4:	ee07 3a90 	vmov	s15, r3
241061a8:	eeb8 7a67 	vcvt.f32.u32	s14, s15
241061ac:	687b      	ldr	r3, [r7, #4]
241061ae:	ee07 3a90 	vmov	s15, r3
241061b2:	eef8 6a67 	vcvt.f32.u32	s13, s15
241061b6:	683b      	ldr	r3, [r7, #0]
241061b8:	ee07 3a90 	vmov	s15, r3
241061bc:	eeb8 6a67 	vcvt.f32.u32	s12, s15
241061c0:	eddf 5a19 	vldr	s11, [pc, #100]	@ 24106228 <RCCEx_CalcPLLFreq+0x94>
241061c4:	eec6 7a25 	vdiv.f32	s15, s12, s11
241061c8:	ee76 7aa7 	vadd.f32	s15, s13, s15
241061cc:	ee67 6a27 	vmul.f32	s13, s14, s15
241061d0:	68bb      	ldr	r3, [r7, #8]
241061d2:	ee07 3a90 	vmov	s15, r3
241061d6:	eeb8 7a67 	vcvt.f32.u32	s14, s15
241061da:	eec6 7a87 	vdiv.f32	s15, s13, s14
241061de:	edc7 7a05 	vstr	s15, [r7, #20]

  freq = freq / (float_t)P1;
241061e2:	6a3b      	ldr	r3, [r7, #32]
241061e4:	ee07 3a90 	vmov	s15, r3
241061e8:	eeb8 7a67 	vcvt.f32.u32	s14, s15
241061ec:	edd7 6a05 	vldr	s13, [r7, #20]
241061f0:	eec6 7a87 	vdiv.f32	s15, s13, s14
241061f4:	edc7 7a05 	vstr	s15, [r7, #20]
  freq = freq / (float_t)P2;
241061f8:	6a7b      	ldr	r3, [r7, #36]	@ 0x24
241061fa:	ee07 3a90 	vmov	s15, r3
241061fe:	eeb8 7a67 	vcvt.f32.u32	s14, s15
24106202:	edd7 6a05 	vldr	s13, [r7, #20]
24106206:	eec6 7a87 	vdiv.f32	s15, s13, s14
2410620a:	edc7 7a05 	vstr	s15, [r7, #20]

  return (uint32_t)freq;
2410620e:	edd7 7a05 	vldr	s15, [r7, #20]
24106212:	eefc 7ae7 	vcvt.u32.f32	s15, s15
24106216:	ee17 3a90 	vmov	r3, s15
}
2410621a:	4618      	mov	r0, r3
2410621c:	371c      	adds	r7, #28
2410621e:	46bd      	mov	sp, r7
24106220:	f85d 7b04 	ldr.w	r7, [sp], #4
24106224:	4770      	bx	lr
24106226:	bf00      	nop
24106228:	4b800000 	.word	0x4b800000

2410622c <RCCEx_GetADCCLKFreq>:
  *         @arg @ref RCCEx_ADC_Clock_Source
  * @retval ADC clock frequency (in Hz)
  *         - @ref  RCC_PERIPH_FREQUENCY_NO indicates that oscillator is not ready
  */
static uint32_t RCCEx_GetADCCLKFreq(uint32_t ADCxSource)
{
2410622c:	b590      	push	{r4, r7, lr}
2410622e:	b085      	sub	sp, #20
24106230:	af00      	add	r7, sp, #0
24106232:	6078      	str	r0, [r7, #4]
  uint32_t adc_frequency = RCC_PERIPH_FREQUENCY_NO;
24106234:	2300      	movs	r3, #0
24106236:	60fb      	str	r3, [r7, #12]
  uint32_t ic_divider;

  switch (LL_RCC_GetADCClockSource(ADCxSource))
24106238:	6878      	ldr	r0, [r7, #4]
2410623a:	f7fb fe1f 	bl	24101e7c <LL_RCC_GetADCClockSource>
2410623e:	4603      	mov	r3, r0
24106240:	2b70      	cmp	r3, #112	@ 0x70
24106242:	f000 80d1 	beq.w	241063e8 <RCCEx_GetADCCLKFreq+0x1bc>
24106246:	2b70      	cmp	r3, #112	@ 0x70
24106248:	f200 80d8 	bhi.w	241063fc <RCCEx_GetADCCLKFreq+0x1d0>
2410624c:	2b60      	cmp	r3, #96	@ 0x60
2410624e:	f000 80c8 	beq.w	241063e2 <RCCEx_GetADCCLKFreq+0x1b6>
24106252:	2b60      	cmp	r3, #96	@ 0x60
24106254:	f200 80d2 	bhi.w	241063fc <RCCEx_GetADCCLKFreq+0x1d0>
24106258:	2b50      	cmp	r3, #80	@ 0x50
2410625a:	f000 80ac 	beq.w	241063b6 <RCCEx_GetADCCLKFreq+0x18a>
2410625e:	2b50      	cmp	r3, #80	@ 0x50
24106260:	f200 80cc 	bhi.w	241063fc <RCCEx_GetADCCLKFreq+0x1d0>
24106264:	2b40      	cmp	r3, #64	@ 0x40
24106266:	f000 80b4 	beq.w	241063d2 <RCCEx_GetADCCLKFreq+0x1a6>
2410626a:	2b40      	cmp	r3, #64	@ 0x40
2410626c:	f200 80c6 	bhi.w	241063fc <RCCEx_GetADCCLKFreq+0x1d0>
24106270:	2b30      	cmp	r3, #48	@ 0x30
24106272:	d05d      	beq.n	24106330 <RCCEx_GetADCCLKFreq+0x104>
24106274:	2b30      	cmp	r3, #48	@ 0x30
24106276:	f200 80c1 	bhi.w	241063fc <RCCEx_GetADCCLKFreq+0x1d0>
2410627a:	2b20      	cmp	r3, #32
2410627c:	d014      	beq.n	241062a8 <RCCEx_GetADCCLKFreq+0x7c>
2410627e:	2b20      	cmp	r3, #32
24106280:	f200 80bc 	bhi.w	241063fc <RCCEx_GetADCCLKFreq+0x1d0>
24106284:	2b00      	cmp	r3, #0
24106286:	d002      	beq.n	2410628e <RCCEx_GetADCCLKFreq+0x62>
24106288:	2b10      	cmp	r3, #16
2410628a:	d008      	beq.n	2410629e <RCCEx_GetADCCLKFreq+0x72>
      adc_frequency = LL_RCC_CALC_TIMG_FREQ(HAL_RCC_GetSysClockFreq(), LL_RCC_GetTIMPrescaler());
      break;

    default:
      /* Unexpected case */
      break;
2410628c:	e0b6      	b.n	241063fc <RCCEx_GetADCCLKFreq+0x1d0>
      adc_frequency = RCCEx_GetHCLKFreq(HAL_RCC_GetSysClockFreq());
2410628e:	f7fb fa69 	bl	24101764 <HAL_RCC_GetSysClockFreq>
24106292:	4603      	mov	r3, r0
24106294:	4618      	mov	r0, r3
24106296:	f7ff fecb 	bl	24106030 <RCCEx_GetHCLKFreq>
2410629a:	60f8      	str	r0, [r7, #12]
      break;
2410629c:	e0b7      	b.n	2410640e <RCCEx_GetADCCLKFreq+0x1e2>
      adc_frequency = RCCEx_GetCLKPCLKFreq(LL_RCC_CLKP_CLKSOURCE);
2410629e:	2007      	movs	r0, #7
241062a0:	f000 f9b2 	bl	24106608 <RCCEx_GetCLKPCLKFreq>
241062a4:	60f8      	str	r0, [r7, #12]
      break;
241062a6:	e0b2      	b.n	2410640e <RCCEx_GetADCCLKFreq+0x1e2>
      if (LL_RCC_IC7_IsEnabled() != 0U)
241062a8:	f7fc fad6 	bl	24102858 <LL_RCC_IC7_IsEnabled>
241062ac:	4603      	mov	r3, r0
241062ae:	2b00      	cmp	r3, #0
241062b0:	f000 80a6 	beq.w	24106400 <RCCEx_GetADCCLKFreq+0x1d4>
        ic_divider = LL_RCC_IC7_GetDivider();
241062b4:	f7fc faf2 	bl	2410289c <LL_RCC_IC7_GetDivider>
241062b8:	60b8      	str	r0, [r7, #8]
        switch (LL_RCC_IC7_GetSource())
241062ba:	f7fc fae1 	bl	24102880 <LL_RCC_IC7_GetSource>
241062be:	4603      	mov	r3, r0
241062c0:	f1b3 5f40 	cmp.w	r3, #805306368	@ 0x30000000
241062c4:	d029      	beq.n	2410631a <RCCEx_GetADCCLKFreq+0xee>
241062c6:	f1b3 5f40 	cmp.w	r3, #805306368	@ 0x30000000
241062ca:	d82f      	bhi.n	2410632c <RCCEx_GetADCCLKFreq+0x100>
241062cc:	f1b3 5f00 	cmp.w	r3, #536870912	@ 0x20000000
241062d0:	d01a      	beq.n	24106308 <RCCEx_GetADCCLKFreq+0xdc>
241062d2:	f1b3 5f00 	cmp.w	r3, #536870912	@ 0x20000000
241062d6:	d829      	bhi.n	2410632c <RCCEx_GetADCCLKFreq+0x100>
241062d8:	2b00      	cmp	r3, #0
241062da:	d003      	beq.n	241062e4 <RCCEx_GetADCCLKFreq+0xb8>
241062dc:	f1b3 5f80 	cmp.w	r3, #268435456	@ 0x10000000
241062e0:	d009      	beq.n	241062f6 <RCCEx_GetADCCLKFreq+0xca>
            break;
241062e2:	e023      	b.n	2410632c <RCCEx_GetADCCLKFreq+0x100>
            adc_frequency = HAL_RCCEx_GetPLL1CLKFreq();
241062e4:	f7ff fd8c 	bl	24105e00 <HAL_RCCEx_GetPLL1CLKFreq>
241062e8:	60f8      	str	r0, [r7, #12]
            adc_frequency = adc_frequency / ic_divider;
241062ea:	68fa      	ldr	r2, [r7, #12]
241062ec:	68bb      	ldr	r3, [r7, #8]
241062ee:	fbb2 f3f3 	udiv	r3, r2, r3
241062f2:	60fb      	str	r3, [r7, #12]
            break;
241062f4:	e01b      	b.n	2410632e <RCCEx_GetADCCLKFreq+0x102>
            adc_frequency = HAL_RCCEx_GetPLL2CLKFreq();
241062f6:	f7ff fdc9 	bl	24105e8c <HAL_RCCEx_GetPLL2CLKFreq>
241062fa:	60f8      	str	r0, [r7, #12]
            adc_frequency = adc_frequency / ic_divider;
241062fc:	68fa      	ldr	r2, [r7, #12]
241062fe:	68bb      	ldr	r3, [r7, #8]
24106300:	fbb2 f3f3 	udiv	r3, r2, r3
24106304:	60fb      	str	r3, [r7, #12]
            break;
24106306:	e012      	b.n	2410632e <RCCEx_GetADCCLKFreq+0x102>
            adc_frequency = HAL_RCCEx_GetPLL3CLKFreq();
24106308:	f7ff fe06 	bl	24105f18 <HAL_RCCEx_GetPLL3CLKFreq>
2410630c:	60f8      	str	r0, [r7, #12]
            adc_frequency = adc_frequency / ic_divider;
2410630e:	68fa      	ldr	r2, [r7, #12]
24106310:	68bb      	ldr	r3, [r7, #8]
24106312:	fbb2 f3f3 	udiv	r3, r2, r3
24106316:	60fb      	str	r3, [r7, #12]
            break;
24106318:	e009      	b.n	2410632e <RCCEx_GetADCCLKFreq+0x102>
            adc_frequency = HAL_RCCEx_GetPLL4CLKFreq();
2410631a:	f7ff fe43 	bl	24105fa4 <HAL_RCCEx_GetPLL4CLKFreq>
2410631e:	60f8      	str	r0, [r7, #12]
            adc_frequency = adc_frequency / ic_divider;
24106320:	68fa      	ldr	r2, [r7, #12]
24106322:	68bb      	ldr	r3, [r7, #8]
24106324:	fbb2 f3f3 	udiv	r3, r2, r3
24106328:	60fb      	str	r3, [r7, #12]
            break;
2410632a:	e000      	b.n	2410632e <RCCEx_GetADCCLKFreq+0x102>
            break;
2410632c:	bf00      	nop
      break;
2410632e:	e067      	b.n	24106400 <RCCEx_GetADCCLKFreq+0x1d4>
      if (LL_RCC_IC8_IsEnabled() != 0U)
24106330:	f7fc fad2 	bl	241028d8 <LL_RCC_IC8_IsEnabled>
24106334:	4603      	mov	r3, r0
24106336:	2b00      	cmp	r3, #0
24106338:	d064      	beq.n	24106404 <RCCEx_GetADCCLKFreq+0x1d8>
        ic_divider = LL_RCC_IC8_GetDivider();
2410633a:	f7fc faef 	bl	2410291c <LL_RCC_IC8_GetDivider>
2410633e:	60b8      	str	r0, [r7, #8]
        switch (LL_RCC_IC8_GetSource())
24106340:	f7fc fade 	bl	24102900 <LL_RCC_IC8_GetSource>
24106344:	4603      	mov	r3, r0
24106346:	f1b3 5f40 	cmp.w	r3, #805306368	@ 0x30000000
2410634a:	d029      	beq.n	241063a0 <RCCEx_GetADCCLKFreq+0x174>
2410634c:	f1b3 5f40 	cmp.w	r3, #805306368	@ 0x30000000
24106350:	d82f      	bhi.n	241063b2 <RCCEx_GetADCCLKFreq+0x186>
24106352:	f1b3 5f00 	cmp.w	r3, #536870912	@ 0x20000000
24106356:	d01a      	beq.n	2410638e <RCCEx_GetADCCLKFreq+0x162>
24106358:	f1b3 5f00 	cmp.w	r3, #536870912	@ 0x20000000
2410635c:	d829      	bhi.n	241063b2 <RCCEx_GetADCCLKFreq+0x186>
2410635e:	2b00      	cmp	r3, #0
24106360:	d003      	beq.n	2410636a <RCCEx_GetADCCLKFreq+0x13e>
24106362:	f1b3 5f80 	cmp.w	r3, #268435456	@ 0x10000000
24106366:	d009      	beq.n	2410637c <RCCEx_GetADCCLKFreq+0x150>
            break;
24106368:	e023      	b.n	241063b2 <RCCEx_GetADCCLKFreq+0x186>
            adc_frequency = HAL_RCCEx_GetPLL1CLKFreq();
2410636a:	f7ff fd49 	bl	24105e00 <HAL_RCCEx_GetPLL1CLKFreq>
2410636e:	60f8      	str	r0, [r7, #12]
            adc_frequency = adc_frequency / ic_divider;
24106370:	68fa      	ldr	r2, [r7, #12]
24106372:	68bb      	ldr	r3, [r7, #8]
24106374:	fbb2 f3f3 	udiv	r3, r2, r3
24106378:	60fb      	str	r3, [r7, #12]
            break;
2410637a:	e01b      	b.n	241063b4 <RCCEx_GetADCCLKFreq+0x188>
            adc_frequency = HAL_RCCEx_GetPLL2CLKFreq();
2410637c:	f7ff fd86 	bl	24105e8c <HAL_RCCEx_GetPLL2CLKFreq>
24106380:	60f8      	str	r0, [r7, #12]
            adc_frequency = adc_frequency / ic_divider;
24106382:	68fa      	ldr	r2, [r7, #12]
24106384:	68bb      	ldr	r3, [r7, #8]
24106386:	fbb2 f3f3 	udiv	r3, r2, r3
2410638a:	60fb      	str	r3, [r7, #12]
            break;
2410638c:	e012      	b.n	241063b4 <RCCEx_GetADCCLKFreq+0x188>
            adc_frequency = HAL_RCCEx_GetPLL3CLKFreq();
2410638e:	f7ff fdc3 	bl	24105f18 <HAL_RCCEx_GetPLL3CLKFreq>
24106392:	60f8      	str	r0, [r7, #12]
            adc_frequency = adc_frequency / ic_divider;
24106394:	68fa      	ldr	r2, [r7, #12]
24106396:	68bb      	ldr	r3, [r7, #8]
24106398:	fbb2 f3f3 	udiv	r3, r2, r3
2410639c:	60fb      	str	r3, [r7, #12]
            break;
2410639e:	e009      	b.n	241063b4 <RCCEx_GetADCCLKFreq+0x188>
            adc_frequency = HAL_RCCEx_GetPLL4CLKFreq();
241063a0:	f7ff fe00 	bl	24105fa4 <HAL_RCCEx_GetPLL4CLKFreq>
241063a4:	60f8      	str	r0, [r7, #12]
            adc_frequency = adc_frequency / ic_divider;
241063a6:	68fa      	ldr	r2, [r7, #12]
241063a8:	68bb      	ldr	r3, [r7, #8]
241063aa:	fbb2 f3f3 	udiv	r3, r2, r3
241063ae:	60fb      	str	r3, [r7, #12]
            break;
241063b0:	e000      	b.n	241063b4 <RCCEx_GetADCCLKFreq+0x188>
            break;
241063b2:	bf00      	nop
      break;
241063b4:	e026      	b.n	24106404 <RCCEx_GetADCCLKFreq+0x1d8>
      if (LL_RCC_HSI_IsReady() != 0U)
241063b6:	f7fb faab 	bl	24101910 <LL_RCC_HSI_IsReady>
241063ba:	4603      	mov	r3, r0
241063bc:	2b00      	cmp	r3, #0
241063be:	d023      	beq.n	24106408 <RCCEx_GetADCCLKFreq+0x1dc>
        adc_frequency = HSI_VALUE >> (LL_RCC_HSI_GetDivider() >> RCC_HSICFGR_HSIDIV_Pos);
241063c0:	f7fb fab8 	bl	24101934 <LL_RCC_HSI_GetDivider>
241063c4:	4603      	mov	r3, r0
241063c6:	09db      	lsrs	r3, r3, #7
241063c8:	4a16      	ldr	r2, [pc, #88]	@ (24106424 <RCCEx_GetADCCLKFreq+0x1f8>)
241063ca:	fa22 f303 	lsr.w	r3, r2, r3
241063ce:	60fb      	str	r3, [r7, #12]
      break;
241063d0:	e01a      	b.n	24106408 <RCCEx_GetADCCLKFreq+0x1dc>
      if (LL_RCC_MSI_IsReady() != 0U)
241063d2:	f7fb fabd 	bl	24101950 <LL_RCC_MSI_IsReady>
241063d6:	4603      	mov	r3, r0
241063d8:	2b00      	cmp	r3, #0
241063da:	d017      	beq.n	2410640c <RCCEx_GetADCCLKFreq+0x1e0>
        adc_frequency = MSI_VALUE;
241063dc:	4b12      	ldr	r3, [pc, #72]	@ (24106428 <RCCEx_GetADCCLKFreq+0x1fc>)
241063de:	60fb      	str	r3, [r7, #12]
      break;
241063e0:	e014      	b.n	2410640c <RCCEx_GetADCCLKFreq+0x1e0>
      adc_frequency = EXTERNAL_CLOCK_VALUE;
241063e2:	4b12      	ldr	r3, [pc, #72]	@ (2410642c <RCCEx_GetADCCLKFreq+0x200>)
241063e4:	60fb      	str	r3, [r7, #12]
      break;
241063e6:	e012      	b.n	2410640e <RCCEx_GetADCCLKFreq+0x1e2>
      adc_frequency = LL_RCC_CALC_TIMG_FREQ(HAL_RCC_GetSysClockFreq(), LL_RCC_GetTIMPrescaler());
241063e8:	f7fb f9bc 	bl	24101764 <HAL_RCC_GetSysClockFreq>
241063ec:	4604      	mov	r4, r0
241063ee:	f7fb fef7 	bl	241021e0 <LL_RCC_GetTIMPrescaler>
241063f2:	4603      	mov	r3, r0
241063f4:	fa24 f303 	lsr.w	r3, r4, r3
241063f8:	60fb      	str	r3, [r7, #12]
      break;
241063fa:	e008      	b.n	2410640e <RCCEx_GetADCCLKFreq+0x1e2>
      break;
241063fc:	bf00      	nop
241063fe:	e006      	b.n	2410640e <RCCEx_GetADCCLKFreq+0x1e2>
      break;
24106400:	bf00      	nop
24106402:	e004      	b.n	2410640e <RCCEx_GetADCCLKFreq+0x1e2>
      break;
24106404:	bf00      	nop
24106406:	e002      	b.n	2410640e <RCCEx_GetADCCLKFreq+0x1e2>
      break;
24106408:	bf00      	nop
2410640a:	e000      	b.n	2410640e <RCCEx_GetADCCLKFreq+0x1e2>
      break;
2410640c:	bf00      	nop
  }

  return (adc_frequency / __HAL_RCC_GET_ADC_DIVIDER());
2410640e:	f7fb fb4f 	bl	24101ab0 <LL_RCC_GetADCPrescaler>
24106412:	4603      	mov	r3, r0
24106414:	3301      	adds	r3, #1
24106416:	68fa      	ldr	r2, [r7, #12]
24106418:	fbb2 f3f3 	udiv	r3, r2, r3
}
2410641c:	4618      	mov	r0, r3
2410641e:	3714      	adds	r7, #20
24106420:	46bd      	mov	sp, r7
24106422:	bd90      	pop	{r4, r7, pc}
24106424:	03d09000 	.word	0x03d09000
24106428:	003d0900 	.word	0x003d0900
2410642c:	00bb8000 	.word	0x00bb8000

24106430 <RCCEx_GetADFCLKFreq>:
  *         @arg @ref RCCEx_ADF1_Clock_Source
  * @retval ADF clock frequency (in Hz)
  *         - @ref  RCC_PERIPH_FREQUENCY_NO indicates that oscillator is not ready
  */
static uint32_t RCCEx_GetADFCLKFreq(uint32_t ADFxSource)
{
24106430:	b590      	push	{r4, r7, lr}
24106432:	b085      	sub	sp, #20
24106434:	af00      	add	r7, sp, #0
24106436:	6078      	str	r0, [r7, #4]
  uint32_t adf_frequency = RCC_PERIPH_FREQUENCY_NO;
24106438:	2300      	movs	r3, #0
2410643a:	60fb      	str	r3, [r7, #12]
  uint32_t ic_divider;

  switch (LL_RCC_GetADFClockSource(ADFxSource))
2410643c:	6878      	ldr	r0, [r7, #4]
2410643e:	f7fb fd2f 	bl	24101ea0 <LL_RCC_GetADFClockSource>
24106442:	4603      	mov	r3, r0
24106444:	2b07      	cmp	r3, #7
24106446:	f200 80ca 	bhi.w	241065de <RCCEx_GetADFCLKFreq+0x1ae>
2410644a:	a201      	add	r2, pc, #4	@ (adr r2, 24106450 <RCCEx_GetADFCLKFreq+0x20>)
2410644c:	f852 f023 	ldr.w	pc, [r2, r3, lsl #2]
24106450:	24106471 	.word	0x24106471
24106454:	24106481 	.word	0x24106481
24106458:	2410648b 	.word	0x2410648b
2410645c:	24106513 	.word	0x24106513
24106460:	241065b5 	.word	0x241065b5
24106464:	24106599 	.word	0x24106599
24106468:	241065c5 	.word	0x241065c5
2410646c:	241065cb 	.word	0x241065cb
  {
    case LL_RCC_ADF1_CLKSOURCE_HCLK:
      adf_frequency = RCCEx_GetHCLKFreq(HAL_RCC_GetSysClockFreq());
24106470:	f7fb f978 	bl	24101764 <HAL_RCC_GetSysClockFreq>
24106474:	4603      	mov	r3, r0
24106476:	4618      	mov	r0, r3
24106478:	f7ff fdda 	bl	24106030 <RCCEx_GetHCLKFreq>
2410647c:	60f8      	str	r0, [r7, #12]
      break;
2410647e:	e0b7      	b.n	241065f0 <RCCEx_GetADFCLKFreq+0x1c0>

    case LL_RCC_ADF1_CLKSOURCE_CLKP:
      adf_frequency = RCCEx_GetCLKPCLKFreq(LL_RCC_CLKP_CLKSOURCE);
24106480:	2007      	movs	r0, #7
24106482:	f000 f8c1 	bl	24106608 <RCCEx_GetCLKPCLKFreq>
24106486:	60f8      	str	r0, [r7, #12]
      break;
24106488:	e0b2      	b.n	241065f0 <RCCEx_GetADFCLKFreq+0x1c0>

    case LL_RCC_ADF1_CLKSOURCE_IC7:
      if (LL_RCC_IC7_IsEnabled() != 0U)
2410648a:	f7fc f9e5 	bl	24102858 <LL_RCC_IC7_IsEnabled>
2410648e:	4603      	mov	r3, r0
24106490:	2b00      	cmp	r3, #0
24106492:	f000 80a6 	beq.w	241065e2 <RCCEx_GetADFCLKFreq+0x1b2>
      {
        ic_divider = LL_RCC_IC7_GetDivider();
24106496:	f7fc fa01 	bl	2410289c <LL_RCC_IC7_GetDivider>
2410649a:	60b8      	str	r0, [r7, #8]
        switch (LL_RCC_IC7_GetSource())
2410649c:	f7fc f9f0 	bl	24102880 <LL_RCC_IC7_GetSource>
241064a0:	4603      	mov	r3, r0
241064a2:	f1b3 5f40 	cmp.w	r3, #805306368	@ 0x30000000
241064a6:	d029      	beq.n	241064fc <RCCEx_GetADFCLKFreq+0xcc>
241064a8:	f1b3 5f40 	cmp.w	r3, #805306368	@ 0x30000000
241064ac:	d82f      	bhi.n	2410650e <RCCEx_GetADFCLKFreq+0xde>
241064ae:	f1b3 5f00 	cmp.w	r3, #536870912	@ 0x20000000
241064b2:	d01a      	beq.n	241064ea <RCCEx_GetADFCLKFreq+0xba>
241064b4:	f1b3 5f00 	cmp.w	r3, #536870912	@ 0x20000000
241064b8:	d829      	bhi.n	2410650e <RCCEx_GetADFCLKFreq+0xde>
241064ba:	2b00      	cmp	r3, #0
241064bc:	d003      	beq.n	241064c6 <RCCEx_GetADFCLKFreq+0x96>
241064be:	f1b3 5f80 	cmp.w	r3, #268435456	@ 0x10000000
241064c2:	d009      	beq.n	241064d8 <RCCEx_GetADFCLKFreq+0xa8>
            adf_frequency = HAL_RCCEx_GetPLL4CLKFreq();
            adf_frequency = adf_frequency / ic_divider;
            break;
          default:
            /* Unexpected case */
            break;
241064c4:	e023      	b.n	2410650e <RCCEx_GetADFCLKFreq+0xde>
            adf_frequency = HAL_RCCEx_GetPLL1CLKFreq();
241064c6:	f7ff fc9b 	bl	24105e00 <HAL_RCCEx_GetPLL1CLKFreq>
241064ca:	60f8      	str	r0, [r7, #12]
            adf_frequency = adf_frequency / ic_divider;
241064cc:	68fa      	ldr	r2, [r7, #12]
241064ce:	68bb      	ldr	r3, [r7, #8]
241064d0:	fbb2 f3f3 	udiv	r3, r2, r3
241064d4:	60fb      	str	r3, [r7, #12]
            break;
241064d6:	e01b      	b.n	24106510 <RCCEx_GetADFCLKFreq+0xe0>
            adf_frequency = HAL_RCCEx_GetPLL2CLKFreq();
241064d8:	f7ff fcd8 	bl	24105e8c <HAL_RCCEx_GetPLL2CLKFreq>
241064dc:	60f8      	str	r0, [r7, #12]
            adf_frequency = adf_frequency / ic_divider;
241064de:	68fa      	ldr	r2, [r7, #12]
241064e0:	68bb      	ldr	r3, [r7, #8]
241064e2:	fbb2 f3f3 	udiv	r3, r2, r3
241064e6:	60fb      	str	r3, [r7, #12]
            break;
241064e8:	e012      	b.n	24106510 <RCCEx_GetADFCLKFreq+0xe0>
            adf_frequency = HAL_RCCEx_GetPLL3CLKFreq();
241064ea:	f7ff fd15 	bl	24105f18 <HAL_RCCEx_GetPLL3CLKFreq>
241064ee:	60f8      	str	r0, [r7, #12]
            adf_frequency = adf_frequency / ic_divider;
241064f0:	68fa      	ldr	r2, [r7, #12]
241064f2:	68bb      	ldr	r3, [r7, #8]
241064f4:	fbb2 f3f3 	udiv	r3, r2, r3
241064f8:	60fb      	str	r3, [r7, #12]
            break;
241064fa:	e009      	b.n	24106510 <RCCEx_GetADFCLKFreq+0xe0>
            adf_frequency = HAL_RCCEx_GetPLL4CLKFreq();
241064fc:	f7ff fd52 	bl	24105fa4 <HAL_RCCEx_GetPLL4CLKFreq>
24106500:	60f8      	str	r0, [r7, #12]
            adf_frequency = adf_frequency / ic_divider;
24106502:	68fa      	ldr	r2, [r7, #12]
24106504:	68bb      	ldr	r3, [r7, #8]
24106506:	fbb2 f3f3 	udiv	r3, r2, r3
2410650a:	60fb      	str	r3, [r7, #12]
            break;
2410650c:	e000      	b.n	24106510 <RCCEx_GetADFCLKFreq+0xe0>
            break;
2410650e:	bf00      	nop
        }
      }
      break;
24106510:	e067      	b.n	241065e2 <RCCEx_GetADFCLKFreq+0x1b2>

    case LL_RCC_ADF1_CLKSOURCE_IC8:
      if (LL_RCC_IC8_IsEnabled() != 0U)
24106512:	f7fc f9e1 	bl	241028d8 <LL_RCC_IC8_IsEnabled>
24106516:	4603      	mov	r3, r0
24106518:	2b00      	cmp	r3, #0
2410651a:	d064      	beq.n	241065e6 <RCCEx_GetADFCLKFreq+0x1b6>
      {
        ic_divider = LL_RCC_IC8_GetDivider();
2410651c:	f7fc f9fe 	bl	2410291c <LL_RCC_IC8_GetDivider>
24106520:	60b8      	str	r0, [r7, #8]
        switch (LL_RCC_IC8_GetSource())
24106522:	f7fc f9ed 	bl	24102900 <LL_RCC_IC8_GetSource>
24106526:	4603      	mov	r3, r0
24106528:	f1b3 5f40 	cmp.w	r3, #805306368	@ 0x30000000
2410652c:	d029      	beq.n	24106582 <RCCEx_GetADFCLKFreq+0x152>
2410652e:	f1b3 5f40 	cmp.w	r3, #805306368	@ 0x30000000
24106532:	d82f      	bhi.n	24106594 <RCCEx_GetADFCLKFreq+0x164>
24106534:	f1b3 5f00 	cmp.w	r3, #536870912	@ 0x20000000
24106538:	d01a      	beq.n	24106570 <RCCEx_GetADFCLKFreq+0x140>
2410653a:	f1b3 5f00 	cmp.w	r3, #536870912	@ 0x20000000
2410653e:	d829      	bhi.n	24106594 <RCCEx_GetADFCLKFreq+0x164>
24106540:	2b00      	cmp	r3, #0
24106542:	d003      	beq.n	2410654c <RCCEx_GetADFCLKFreq+0x11c>
24106544:	f1b3 5f80 	cmp.w	r3, #268435456	@ 0x10000000
24106548:	d009      	beq.n	2410655e <RCCEx_GetADFCLKFreq+0x12e>
            adf_frequency = HAL_RCCEx_GetPLL4CLKFreq();
            adf_frequency = adf_frequency / ic_divider;
            break;
          default:
            /* Unexpected case */
            break;
2410654a:	e023      	b.n	24106594 <RCCEx_GetADFCLKFreq+0x164>
            adf_frequency = HAL_RCCEx_GetPLL1CLKFreq();
2410654c:	f7ff fc58 	bl	24105e00 <HAL_RCCEx_GetPLL1CLKFreq>
24106550:	60f8      	str	r0, [r7, #12]
            adf_frequency = adf_frequency / ic_divider;
24106552:	68fa      	ldr	r2, [r7, #12]
24106554:	68bb      	ldr	r3, [r7, #8]
24106556:	fbb2 f3f3 	udiv	r3, r2, r3
2410655a:	60fb      	str	r3, [r7, #12]
            break;
2410655c:	e01b      	b.n	24106596 <RCCEx_GetADFCLKFreq+0x166>
            adf_frequency = HAL_RCCEx_GetPLL2CLKFreq();
2410655e:	f7ff fc95 	bl	24105e8c <HAL_RCCEx_GetPLL2CLKFreq>
24106562:	60f8      	str	r0, [r7, #12]
            adf_frequency = adf_frequency / ic_divider;
24106564:	68fa      	ldr	r2, [r7, #12]
24106566:	68bb      	ldr	r3, [r7, #8]
24106568:	fbb2 f3f3 	udiv	r3, r2, r3
2410656c:	60fb      	str	r3, [r7, #12]
            break;
2410656e:	e012      	b.n	24106596 <RCCEx_GetADFCLKFreq+0x166>
            adf_frequency = HAL_RCCEx_GetPLL3CLKFreq();
24106570:	f7ff fcd2 	bl	24105f18 <HAL_RCCEx_GetPLL3CLKFreq>
24106574:	60f8      	str	r0, [r7, #12]
            adf_frequency = adf_frequency / ic_divider;
24106576:	68fa      	ldr	r2, [r7, #12]
24106578:	68bb      	ldr	r3, [r7, #8]
2410657a:	fbb2 f3f3 	udiv	r3, r2, r3
2410657e:	60fb      	str	r3, [r7, #12]
            break;
24106580:	e009      	b.n	24106596 <RCCEx_GetADFCLKFreq+0x166>
            adf_frequency = HAL_RCCEx_GetPLL4CLKFreq();
24106582:	f7ff fd0f 	bl	24105fa4 <HAL_RCCEx_GetPLL4CLKFreq>
24106586:	60f8      	str	r0, [r7, #12]
            adf_frequency = adf_frequency / ic_divider;
24106588:	68fa      	ldr	r2, [r7, #12]
2410658a:	68bb      	ldr	r3, [r7, #8]
2410658c:	fbb2 f3f3 	udiv	r3, r2, r3
24106590:	60fb      	str	r3, [r7, #12]
            break;
24106592:	e000      	b.n	24106596 <RCCEx_GetADFCLKFreq+0x166>
            break;
24106594:	bf00      	nop
        }
      }
      break;
24106596:	e026      	b.n	241065e6 <RCCEx_GetADFCLKFreq+0x1b6>

    case LL_RCC_ADF1_CLKSOURCE_HSI:
      if (LL_RCC_HSI_IsReady() != 0U)
24106598:	f7fb f9ba 	bl	24101910 <LL_RCC_HSI_IsReady>
2410659c:	4603      	mov	r3, r0
2410659e:	2b00      	cmp	r3, #0
241065a0:	d023      	beq.n	241065ea <RCCEx_GetADFCLKFreq+0x1ba>
      {
        adf_frequency = HSI_VALUE >> (LL_RCC_HSI_GetDivider() >> RCC_HSICFGR_HSIDIV_Pos);
241065a2:	f7fb f9c7 	bl	24101934 <LL_RCC_HSI_GetDivider>
241065a6:	4603      	mov	r3, r0
241065a8:	09db      	lsrs	r3, r3, #7
241065aa:	4a14      	ldr	r2, [pc, #80]	@ (241065fc <RCCEx_GetADFCLKFreq+0x1cc>)
241065ac:	fa22 f303 	lsr.w	r3, r2, r3
241065b0:	60fb      	str	r3, [r7, #12]
      }
      break;
241065b2:	e01a      	b.n	241065ea <RCCEx_GetADFCLKFreq+0x1ba>

    case LL_RCC_ADF1_CLKSOURCE_MSI:
      if (LL_RCC_MSI_IsReady() != 0U)
241065b4:	f7fb f9cc 	bl	24101950 <LL_RCC_MSI_IsReady>
241065b8:	4603      	mov	r3, r0
241065ba:	2b00      	cmp	r3, #0
241065bc:	d017      	beq.n	241065ee <RCCEx_GetADFCLKFreq+0x1be>
      {
        adf_frequency = MSI_VALUE;
241065be:	4b10      	ldr	r3, [pc, #64]	@ (24106600 <RCCEx_GetADFCLKFreq+0x1d0>)
241065c0:	60fb      	str	r3, [r7, #12]
      }
      break;
241065c2:	e014      	b.n	241065ee <RCCEx_GetADFCLKFreq+0x1be>

    case LL_RCC_ADF1_CLKSOURCE_I2S_CKIN:
      adf_frequency = EXTERNAL_CLOCK_VALUE;
241065c4:	4b0f      	ldr	r3, [pc, #60]	@ (24106604 <RCCEx_GetADFCLKFreq+0x1d4>)
241065c6:	60fb      	str	r3, [r7, #12]
      break;
241065c8:	e012      	b.n	241065f0 <RCCEx_GetADFCLKFreq+0x1c0>

    case LL_RCC_ADF1_CLKSOURCE_TIMG:
      adf_frequency = LL_RCC_CALC_TIMG_FREQ(HAL_RCC_GetSysClockFreq(), LL_RCC_GetTIMPrescaler());
241065ca:	f7fb f8cb 	bl	24101764 <HAL_RCC_GetSysClockFreq>
241065ce:	4604      	mov	r4, r0
241065d0:	f7fb fe06 	bl	241021e0 <LL_RCC_GetTIMPrescaler>
241065d4:	4603      	mov	r3, r0
241065d6:	fa24 f303 	lsr.w	r3, r4, r3
241065da:	60fb      	str	r3, [r7, #12]
      break;
241065dc:	e008      	b.n	241065f0 <RCCEx_GetADFCLKFreq+0x1c0>

    default:
      /* Unexpected case */
      break;
241065de:	bf00      	nop
241065e0:	e006      	b.n	241065f0 <RCCEx_GetADFCLKFreq+0x1c0>
      break;
241065e2:	bf00      	nop
241065e4:	e004      	b.n	241065f0 <RCCEx_GetADFCLKFreq+0x1c0>
      break;
241065e6:	bf00      	nop
241065e8:	e002      	b.n	241065f0 <RCCEx_GetADFCLKFreq+0x1c0>
      break;
241065ea:	bf00      	nop
241065ec:	e000      	b.n	241065f0 <RCCEx_GetADFCLKFreq+0x1c0>
      break;
241065ee:	bf00      	nop
  }

  return adf_frequency;
241065f0:	68fb      	ldr	r3, [r7, #12]
}
241065f2:	4618      	mov	r0, r3
241065f4:	3714      	adds	r7, #20
241065f6:	46bd      	mov	sp, r7
241065f8:	bd90      	pop	{r4, r7, pc}
241065fa:	bf00      	nop
241065fc:	03d09000 	.word	0x03d09000
24106600:	003d0900 	.word	0x003d0900
24106604:	00bb8000 	.word	0x00bb8000

24106608 <RCCEx_GetCLKPCLKFreq>:
  *         @arg @ref RCCEx_CLKP_Clock_Source
  * @retval CLKP clock frequency (in Hz)
  *         - @ref  RCC_PERIPH_FREQUENCY_NO indicates that oscillator is not ready
  */
static uint32_t RCCEx_GetCLKPCLKFreq(uint32_t CLKPxSource)
{
24106608:	b580      	push	{r7, lr}
2410660a:	b084      	sub	sp, #16
2410660c:	af00      	add	r7, sp, #0
2410660e:	6078      	str	r0, [r7, #4]
  uint32_t clkp_frequency = RCC_PERIPH_FREQUENCY_NO;
24106610:	2300      	movs	r3, #0
24106612:	60fb      	str	r3, [r7, #12]
  uint32_t ic_divider;

  if (LL_RCC_CLKP_IsEnabled() == 1U)
24106614:	f7fc fc60 	bl	24102ed8 <LL_RCC_CLKP_IsEnabled>
24106618:	4603      	mov	r3, r0
2410661a:	2b01      	cmp	r3, #1
2410661c:	f040 81a5 	bne.w	2410696a <RCCEx_GetCLKPCLKFreq+0x362>
  {
    switch (LL_RCC_GetCLKPClockSource(CLKPxSource))
24106620:	6878      	ldr	r0, [r7, #4]
24106622:	f7fb fc4f 	bl	24101ec4 <LL_RCC_GetCLKPClockSource>
24106626:	4603      	mov	r3, r0
24106628:	2b07      	cmp	r3, #7
2410662a:	f200 818d 	bhi.w	24106948 <RCCEx_GetCLKPCLKFreq+0x340>
2410662e:	a201      	add	r2, pc, #4	@ (adr r2, 24106634 <RCCEx_GetCLKPCLKFreq+0x2c>)
24106630:	f852 f023 	ldr.w	pc, [r2, r3, lsl #2]
24106634:	24106655 	.word	0x24106655
24106638:	24106673 	.word	0x24106673
2410663c:	24106685 	.word	0x24106685
24106640:	2410682f 	.word	0x2410682f
24106644:	24106697 	.word	0x24106697
24106648:	2410671f 	.word	0x2410671f
2410664c:	241067a7 	.word	0x241067a7
24106650:	241068b7 	.word	0x241068b7
    {
      case LL_RCC_CLKP_CLKSOURCE_HSI:
        if (LL_RCC_HSI_IsReady() != 0U)
24106654:	f7fb f95c 	bl	24101910 <LL_RCC_HSI_IsReady>
24106658:	4603      	mov	r3, r0
2410665a:	2b00      	cmp	r3, #0
2410665c:	f000 8176 	beq.w	2410694c <RCCEx_GetCLKPCLKFreq+0x344>
        {
          clkp_frequency = HSI_VALUE >> (LL_RCC_HSI_GetDivider() >> RCC_HSICFGR_HSIDIV_Pos);
24106660:	f7fb f968 	bl	24101934 <LL_RCC_HSI_GetDivider>
24106664:	4603      	mov	r3, r0
24106666:	09db      	lsrs	r3, r3, #7
24106668:	4aa1      	ldr	r2, [pc, #644]	@ (241068f0 <RCCEx_GetCLKPCLKFreq+0x2e8>)
2410666a:	fa22 f303 	lsr.w	r3, r2, r3
2410666e:	60fb      	str	r3, [r7, #12]
        }
        break;
24106670:	e16c      	b.n	2410694c <RCCEx_GetCLKPCLKFreq+0x344>

      case LL_RCC_CLKP_CLKSOURCE_MSI:
        if (LL_RCC_MSI_IsReady() != 0U)
24106672:	f7fb f96d 	bl	24101950 <LL_RCC_MSI_IsReady>
24106676:	4603      	mov	r3, r0
24106678:	2b00      	cmp	r3, #0
2410667a:	f000 8169 	beq.w	24106950 <RCCEx_GetCLKPCLKFreq+0x348>
        {
          clkp_frequency = MSI_VALUE;
2410667e:	4b9d      	ldr	r3, [pc, #628]	@ (241068f4 <RCCEx_GetCLKPCLKFreq+0x2ec>)
24106680:	60fb      	str	r3, [r7, #12]
        }
        break;
24106682:	e165      	b.n	24106950 <RCCEx_GetCLKPCLKFreq+0x348>

      case LL_RCC_CLKP_CLKSOURCE_HSE:
        if (LL_RCC_HSE_IsReady() != 0U)
24106684:	f7fb f932 	bl	241018ec <LL_RCC_HSE_IsReady>
24106688:	4603      	mov	r3, r0
2410668a:	2b00      	cmp	r3, #0
2410668c:	f000 8162 	beq.w	24106954 <RCCEx_GetCLKPCLKFreq+0x34c>
        {
          clkp_frequency = HSE_VALUE;
24106690:	4b99      	ldr	r3, [pc, #612]	@ (241068f8 <RCCEx_GetCLKPCLKFreq+0x2f0>)
24106692:	60fb      	str	r3, [r7, #12]
        }
        break;
24106694:	e15e      	b.n	24106954 <RCCEx_GetCLKPCLKFreq+0x34c>

      case LL_RCC_CLKP_CLKSOURCE_IC5:
        if (LL_RCC_IC5_IsEnabled() != 0U)
24106696:	f7fc f89f 	bl	241027d8 <LL_RCC_IC5_IsEnabled>
2410669a:	4603      	mov	r3, r0
2410669c:	2b00      	cmp	r3, #0
2410669e:	f000 815b 	beq.w	24106958 <RCCEx_GetCLKPCLKFreq+0x350>
        {
          ic_divider = LL_RCC_IC5_GetDivider();
241066a2:	f7fc f8bb 	bl	2410281c <LL_RCC_IC5_GetDivider>
241066a6:	60b8      	str	r0, [r7, #8]
          switch (LL_RCC_IC5_GetSource())
241066a8:	f7fc f8aa 	bl	24102800 <LL_RCC_IC5_GetSource>
241066ac:	4603      	mov	r3, r0
241066ae:	f1b3 5f40 	cmp.w	r3, #805306368	@ 0x30000000
241066b2:	d029      	beq.n	24106708 <RCCEx_GetCLKPCLKFreq+0x100>
241066b4:	f1b3 5f40 	cmp.w	r3, #805306368	@ 0x30000000
241066b8:	d82f      	bhi.n	2410671a <RCCEx_GetCLKPCLKFreq+0x112>
241066ba:	f1b3 5f00 	cmp.w	r3, #536870912	@ 0x20000000
241066be:	d01a      	beq.n	241066f6 <RCCEx_GetCLKPCLKFreq+0xee>
241066c0:	f1b3 5f00 	cmp.w	r3, #536870912	@ 0x20000000
241066c4:	d829      	bhi.n	2410671a <RCCEx_GetCLKPCLKFreq+0x112>
241066c6:	2b00      	cmp	r3, #0
241066c8:	d003      	beq.n	241066d2 <RCCEx_GetCLKPCLKFreq+0xca>
241066ca:	f1b3 5f80 	cmp.w	r3, #268435456	@ 0x10000000
241066ce:	d009      	beq.n	241066e4 <RCCEx_GetCLKPCLKFreq+0xdc>
              clkp_frequency = HAL_RCCEx_GetPLL4CLKFreq();
              clkp_frequency = clkp_frequency / ic_divider;
              break;
            default:
              /* Unexpected case */
              break;
241066d0:	e023      	b.n	2410671a <RCCEx_GetCLKPCLKFreq+0x112>
              clkp_frequency = HAL_RCCEx_GetPLL1CLKFreq();
241066d2:	f7ff fb95 	bl	24105e00 <HAL_RCCEx_GetPLL1CLKFreq>
241066d6:	60f8      	str	r0, [r7, #12]
              clkp_frequency = clkp_frequency / ic_divider;
241066d8:	68fa      	ldr	r2, [r7, #12]
241066da:	68bb      	ldr	r3, [r7, #8]
241066dc:	fbb2 f3f3 	udiv	r3, r2, r3
241066e0:	60fb      	str	r3, [r7, #12]
              break;
241066e2:	e01b      	b.n	2410671c <RCCEx_GetCLKPCLKFreq+0x114>
              clkp_frequency = HAL_RCCEx_GetPLL2CLKFreq();
241066e4:	f7ff fbd2 	bl	24105e8c <HAL_RCCEx_GetPLL2CLKFreq>
241066e8:	60f8      	str	r0, [r7, #12]
              clkp_frequency = clkp_frequency / ic_divider;
241066ea:	68fa      	ldr	r2, [r7, #12]
241066ec:	68bb      	ldr	r3, [r7, #8]
241066ee:	fbb2 f3f3 	udiv	r3, r2, r3
241066f2:	60fb      	str	r3, [r7, #12]
              break;
241066f4:	e012      	b.n	2410671c <RCCEx_GetCLKPCLKFreq+0x114>
              clkp_frequency = HAL_RCCEx_GetPLL3CLKFreq();
241066f6:	f7ff fc0f 	bl	24105f18 <HAL_RCCEx_GetPLL3CLKFreq>
241066fa:	60f8      	str	r0, [r7, #12]
              clkp_frequency = clkp_frequency / ic_divider;
241066fc:	68fa      	ldr	r2, [r7, #12]
241066fe:	68bb      	ldr	r3, [r7, #8]
24106700:	fbb2 f3f3 	udiv	r3, r2, r3
24106704:	60fb      	str	r3, [r7, #12]
              break;
24106706:	e009      	b.n	2410671c <RCCEx_GetCLKPCLKFreq+0x114>
              clkp_frequency = HAL_RCCEx_GetPLL4CLKFreq();
24106708:	f7ff fc4c 	bl	24105fa4 <HAL_RCCEx_GetPLL4CLKFreq>
2410670c:	60f8      	str	r0, [r7, #12]
              clkp_frequency = clkp_frequency / ic_divider;
2410670e:	68fa      	ldr	r2, [r7, #12]
24106710:	68bb      	ldr	r3, [r7, #8]
24106712:	fbb2 f3f3 	udiv	r3, r2, r3
24106716:	60fb      	str	r3, [r7, #12]
              break;
24106718:	e000      	b.n	2410671c <RCCEx_GetCLKPCLKFreq+0x114>
              break;
2410671a:	bf00      	nop
          }
        }
        break;
2410671c:	e11c      	b.n	24106958 <RCCEx_GetCLKPCLKFreq+0x350>

      case LL_RCC_CLKP_CLKSOURCE_IC10:
        if (LL_RCC_IC10_IsEnabled() != 0U)
2410671e:	f7fc f95b 	bl	241029d8 <LL_RCC_IC10_IsEnabled>
24106722:	4603      	mov	r3, r0
24106724:	2b00      	cmp	r3, #0
24106726:	f000 8119 	beq.w	2410695c <RCCEx_GetCLKPCLKFreq+0x354>
        {
          ic_divider = LL_RCC_IC10_GetDivider();
2410672a:	f7fc f977 	bl	24102a1c <LL_RCC_IC10_GetDivider>
2410672e:	60b8      	str	r0, [r7, #8]
          switch (LL_RCC_IC10_GetSource())
24106730:	f7fc f966 	bl	24102a00 <LL_RCC_IC10_GetSource>
24106734:	4603      	mov	r3, r0
24106736:	f1b3 5f40 	cmp.w	r3, #805306368	@ 0x30000000
2410673a:	d029      	beq.n	24106790 <RCCEx_GetCLKPCLKFreq+0x188>
2410673c:	f1b3 5f40 	cmp.w	r3, #805306368	@ 0x30000000
24106740:	d82f      	bhi.n	241067a2 <RCCEx_GetCLKPCLKFreq+0x19a>
24106742:	f1b3 5f00 	cmp.w	r3, #536870912	@ 0x20000000
24106746:	d01a      	beq.n	2410677e <RCCEx_GetCLKPCLKFreq+0x176>
24106748:	f1b3 5f00 	cmp.w	r3, #536870912	@ 0x20000000
2410674c:	d829      	bhi.n	241067a2 <RCCEx_GetCLKPCLKFreq+0x19a>
2410674e:	2b00      	cmp	r3, #0
24106750:	d003      	beq.n	2410675a <RCCEx_GetCLKPCLKFreq+0x152>
24106752:	f1b3 5f80 	cmp.w	r3, #268435456	@ 0x10000000
24106756:	d009      	beq.n	2410676c <RCCEx_GetCLKPCLKFreq+0x164>
              clkp_frequency = HAL_RCCEx_GetPLL4CLKFreq();
              clkp_frequency = clkp_frequency / ic_divider;
              break;
            default:
              /* Unexpected case */
              break;
24106758:	e023      	b.n	241067a2 <RCCEx_GetCLKPCLKFreq+0x19a>
              clkp_frequency = HAL_RCCEx_GetPLL1CLKFreq();
2410675a:	f7ff fb51 	bl	24105e00 <HAL_RCCEx_GetPLL1CLKFreq>
2410675e:	60f8      	str	r0, [r7, #12]
              clkp_frequency = clkp_frequency / ic_divider;
24106760:	68fa      	ldr	r2, [r7, #12]
24106762:	68bb      	ldr	r3, [r7, #8]
24106764:	fbb2 f3f3 	udiv	r3, r2, r3
24106768:	60fb      	str	r3, [r7, #12]
              break;
2410676a:	e01b      	b.n	241067a4 <RCCEx_GetCLKPCLKFreq+0x19c>
              clkp_frequency = HAL_RCCEx_GetPLL2CLKFreq();
2410676c:	f7ff fb8e 	bl	24105e8c <HAL_RCCEx_GetPLL2CLKFreq>
24106770:	60f8      	str	r0, [r7, #12]
              clkp_frequency = clkp_frequency / ic_divider;
24106772:	68fa      	ldr	r2, [r7, #12]
24106774:	68bb      	ldr	r3, [r7, #8]
24106776:	fbb2 f3f3 	udiv	r3, r2, r3
2410677a:	60fb      	str	r3, [r7, #12]
              break;
2410677c:	e012      	b.n	241067a4 <RCCEx_GetCLKPCLKFreq+0x19c>
              clkp_frequency = HAL_RCCEx_GetPLL3CLKFreq();
2410677e:	f7ff fbcb 	bl	24105f18 <HAL_RCCEx_GetPLL3CLKFreq>
24106782:	60f8      	str	r0, [r7, #12]
              clkp_frequency = clkp_frequency / ic_divider;
24106784:	68fa      	ldr	r2, [r7, #12]
24106786:	68bb      	ldr	r3, [r7, #8]
24106788:	fbb2 f3f3 	udiv	r3, r2, r3
2410678c:	60fb      	str	r3, [r7, #12]
              break;
2410678e:	e009      	b.n	241067a4 <RCCEx_GetCLKPCLKFreq+0x19c>
              clkp_frequency = HAL_RCCEx_GetPLL4CLKFreq();
24106790:	f7ff fc08 	bl	24105fa4 <HAL_RCCEx_GetPLL4CLKFreq>
24106794:	60f8      	str	r0, [r7, #12]
              clkp_frequency = clkp_frequency / ic_divider;
24106796:	68fa      	ldr	r2, [r7, #12]
24106798:	68bb      	ldr	r3, [r7, #8]
2410679a:	fbb2 f3f3 	udiv	r3, r2, r3
2410679e:	60fb      	str	r3, [r7, #12]
              break;
241067a0:	e000      	b.n	241067a4 <RCCEx_GetCLKPCLKFreq+0x19c>
              break;
241067a2:	bf00      	nop
          }
        }
        break;
241067a4:	e0da      	b.n	2410695c <RCCEx_GetCLKPCLKFreq+0x354>

      case LL_RCC_CLKP_CLKSOURCE_IC15:
        if (LL_RCC_IC15_IsEnabled() != 0U)
241067a6:	f7fc fa17 	bl	24102bd8 <LL_RCC_IC15_IsEnabled>
241067aa:	4603      	mov	r3, r0
241067ac:	2b00      	cmp	r3, #0
241067ae:	f000 80d7 	beq.w	24106960 <RCCEx_GetCLKPCLKFreq+0x358>
        {
          ic_divider = LL_RCC_IC15_GetDivider();
241067b2:	f7fc fa33 	bl	24102c1c <LL_RCC_IC15_GetDivider>
241067b6:	60b8      	str	r0, [r7, #8]
          switch (LL_RCC_IC15_GetSource())
241067b8:	f7fc fa22 	bl	24102c00 <LL_RCC_IC15_GetSource>
241067bc:	4603      	mov	r3, r0
241067be:	f1b3 5f40 	cmp.w	r3, #805306368	@ 0x30000000
241067c2:	d029      	beq.n	24106818 <RCCEx_GetCLKPCLKFreq+0x210>
241067c4:	f1b3 5f40 	cmp.w	r3, #805306368	@ 0x30000000
241067c8:	d82f      	bhi.n	2410682a <RCCEx_GetCLKPCLKFreq+0x222>
241067ca:	f1b3 5f00 	cmp.w	r3, #536870912	@ 0x20000000
241067ce:	d01a      	beq.n	24106806 <RCCEx_GetCLKPCLKFreq+0x1fe>
241067d0:	f1b3 5f00 	cmp.w	r3, #536870912	@ 0x20000000
241067d4:	d829      	bhi.n	2410682a <RCCEx_GetCLKPCLKFreq+0x222>
241067d6:	2b00      	cmp	r3, #0
241067d8:	d003      	beq.n	241067e2 <RCCEx_GetCLKPCLKFreq+0x1da>
241067da:	f1b3 5f80 	cmp.w	r3, #268435456	@ 0x10000000
241067de:	d009      	beq.n	241067f4 <RCCEx_GetCLKPCLKFreq+0x1ec>
              clkp_frequency = HAL_RCCEx_GetPLL4CLKFreq();
              clkp_frequency = clkp_frequency / ic_divider;
              break;
            default:
              /* Unexpected case */
              break;
241067e0:	e023      	b.n	2410682a <RCCEx_GetCLKPCLKFreq+0x222>
              clkp_frequency = HAL_RCCEx_GetPLL1CLKFreq();
241067e2:	f7ff fb0d 	bl	24105e00 <HAL_RCCEx_GetPLL1CLKFreq>
241067e6:	60f8      	str	r0, [r7, #12]
              clkp_frequency = clkp_frequency / ic_divider;
241067e8:	68fa      	ldr	r2, [r7, #12]
241067ea:	68bb      	ldr	r3, [r7, #8]
241067ec:	fbb2 f3f3 	udiv	r3, r2, r3
241067f0:	60fb      	str	r3, [r7, #12]
              break;
241067f2:	e01b      	b.n	2410682c <RCCEx_GetCLKPCLKFreq+0x224>
              clkp_frequency = HAL_RCCEx_GetPLL2CLKFreq();
241067f4:	f7ff fb4a 	bl	24105e8c <HAL_RCCEx_GetPLL2CLKFreq>
241067f8:	60f8      	str	r0, [r7, #12]
              clkp_frequency = clkp_frequency / ic_divider;
241067fa:	68fa      	ldr	r2, [r7, #12]
241067fc:	68bb      	ldr	r3, [r7, #8]
241067fe:	fbb2 f3f3 	udiv	r3, r2, r3
24106802:	60fb      	str	r3, [r7, #12]
              break;
24106804:	e012      	b.n	2410682c <RCCEx_GetCLKPCLKFreq+0x224>
              clkp_frequency = HAL_RCCEx_GetPLL3CLKFreq();
24106806:	f7ff fb87 	bl	24105f18 <HAL_RCCEx_GetPLL3CLKFreq>
2410680a:	60f8      	str	r0, [r7, #12]
              clkp_frequency = clkp_frequency / ic_divider;
2410680c:	68fa      	ldr	r2, [r7, #12]
2410680e:	68bb      	ldr	r3, [r7, #8]
24106810:	fbb2 f3f3 	udiv	r3, r2, r3
24106814:	60fb      	str	r3, [r7, #12]
              break;
24106816:	e009      	b.n	2410682c <RCCEx_GetCLKPCLKFreq+0x224>
              clkp_frequency = HAL_RCCEx_GetPLL4CLKFreq();
24106818:	f7ff fbc4 	bl	24105fa4 <HAL_RCCEx_GetPLL4CLKFreq>
2410681c:	60f8      	str	r0, [r7, #12]
              clkp_frequency = clkp_frequency / ic_divider;
2410681e:	68fa      	ldr	r2, [r7, #12]
24106820:	68bb      	ldr	r3, [r7, #8]
24106822:	fbb2 f3f3 	udiv	r3, r2, r3
24106826:	60fb      	str	r3, [r7, #12]
              break;
24106828:	e000      	b.n	2410682c <RCCEx_GetCLKPCLKFreq+0x224>
              break;
2410682a:	bf00      	nop
          }
        }
        break;
2410682c:	e098      	b.n	24106960 <RCCEx_GetCLKPCLKFreq+0x358>

      case LL_RCC_CLKP_CLKSOURCE_IC19:
        if (LL_RCC_IC19_IsEnabled() != 0U)
2410682e:	f7fc fad3 	bl	24102dd8 <LL_RCC_IC19_IsEnabled>
24106832:	4603      	mov	r3, r0
24106834:	2b00      	cmp	r3, #0
24106836:	f000 8095 	beq.w	24106964 <RCCEx_GetCLKPCLKFreq+0x35c>
        {
          ic_divider = LL_RCC_IC19_GetDivider();
2410683a:	f7fc faef 	bl	24102e1c <LL_RCC_IC19_GetDivider>
2410683e:	60b8      	str	r0, [r7, #8]
          switch (LL_RCC_IC19_GetSource())
24106840:	f7fc fade 	bl	24102e00 <LL_RCC_IC19_GetSource>
24106844:	4603      	mov	r3, r0
24106846:	f1b3 5f40 	cmp.w	r3, #805306368	@ 0x30000000
2410684a:	d029      	beq.n	241068a0 <RCCEx_GetCLKPCLKFreq+0x298>
2410684c:	f1b3 5f40 	cmp.w	r3, #805306368	@ 0x30000000
24106850:	d82f      	bhi.n	241068b2 <RCCEx_GetCLKPCLKFreq+0x2aa>
24106852:	f1b3 5f00 	cmp.w	r3, #536870912	@ 0x20000000
24106856:	d01a      	beq.n	2410688e <RCCEx_GetCLKPCLKFreq+0x286>
24106858:	f1b3 5f00 	cmp.w	r3, #536870912	@ 0x20000000
2410685c:	d829      	bhi.n	241068b2 <RCCEx_GetCLKPCLKFreq+0x2aa>
2410685e:	2b00      	cmp	r3, #0
24106860:	d003      	beq.n	2410686a <RCCEx_GetCLKPCLKFreq+0x262>
24106862:	f1b3 5f80 	cmp.w	r3, #268435456	@ 0x10000000
24106866:	d009      	beq.n	2410687c <RCCEx_GetCLKPCLKFreq+0x274>
              clkp_frequency = HAL_RCCEx_GetPLL4CLKFreq();
              clkp_frequency = clkp_frequency / ic_divider;
              break;
            default:
              /* Unexpected case */
              break;
24106868:	e023      	b.n	241068b2 <RCCEx_GetCLKPCLKFreq+0x2aa>
              clkp_frequency = HAL_RCCEx_GetPLL1CLKFreq();
2410686a:	f7ff fac9 	bl	24105e00 <HAL_RCCEx_GetPLL1CLKFreq>
2410686e:	60f8      	str	r0, [r7, #12]
              clkp_frequency = clkp_frequency / ic_divider;
24106870:	68fa      	ldr	r2, [r7, #12]
24106872:	68bb      	ldr	r3, [r7, #8]
24106874:	fbb2 f3f3 	udiv	r3, r2, r3
24106878:	60fb      	str	r3, [r7, #12]
              break;
2410687a:	e01b      	b.n	241068b4 <RCCEx_GetCLKPCLKFreq+0x2ac>
              clkp_frequency = HAL_RCCEx_GetPLL2CLKFreq();
2410687c:	f7ff fb06 	bl	24105e8c <HAL_RCCEx_GetPLL2CLKFreq>
24106880:	60f8      	str	r0, [r7, #12]
              clkp_frequency = clkp_frequency / ic_divider;
24106882:	68fa      	ldr	r2, [r7, #12]
24106884:	68bb      	ldr	r3, [r7, #8]
24106886:	fbb2 f3f3 	udiv	r3, r2, r3
2410688a:	60fb      	str	r3, [r7, #12]
              break;
2410688c:	e012      	b.n	241068b4 <RCCEx_GetCLKPCLKFreq+0x2ac>
              clkp_frequency = HAL_RCCEx_GetPLL3CLKFreq();
2410688e:	f7ff fb43 	bl	24105f18 <HAL_RCCEx_GetPLL3CLKFreq>
24106892:	60f8      	str	r0, [r7, #12]
              clkp_frequency = clkp_frequency / ic_divider;
24106894:	68fa      	ldr	r2, [r7, #12]
24106896:	68bb      	ldr	r3, [r7, #8]
24106898:	fbb2 f3f3 	udiv	r3, r2, r3
2410689c:	60fb      	str	r3, [r7, #12]
              break;
2410689e:	e009      	b.n	241068b4 <RCCEx_GetCLKPCLKFreq+0x2ac>
              clkp_frequency = HAL_RCCEx_GetPLL4CLKFreq();
241068a0:	f7ff fb80 	bl	24105fa4 <HAL_RCCEx_GetPLL4CLKFreq>
241068a4:	60f8      	str	r0, [r7, #12]
              clkp_frequency = clkp_frequency / ic_divider;
241068a6:	68fa      	ldr	r2, [r7, #12]
241068a8:	68bb      	ldr	r3, [r7, #8]
241068aa:	fbb2 f3f3 	udiv	r3, r2, r3
241068ae:	60fb      	str	r3, [r7, #12]
              break;
241068b0:	e000      	b.n	241068b4 <RCCEx_GetCLKPCLKFreq+0x2ac>
              break;
241068b2:	bf00      	nop
          }
        }
        break;
241068b4:	e056      	b.n	24106964 <RCCEx_GetCLKPCLKFreq+0x35c>

      case LL_RCC_CLKP_CLKSOURCE_IC20:
        if (LL_RCC_IC20_IsEnabled() != 0U)
241068b6:	f7fc facf 	bl	24102e58 <LL_RCC_IC20_IsEnabled>
241068ba:	4603      	mov	r3, r0
241068bc:	2b00      	cmp	r3, #0
241068be:	d053      	beq.n	24106968 <RCCEx_GetCLKPCLKFreq+0x360>
        {
          ic_divider = LL_RCC_IC20_GetDivider();
241068c0:	f7fc faec 	bl	24102e9c <LL_RCC_IC20_GetDivider>
241068c4:	60b8      	str	r0, [r7, #8]
          switch (LL_RCC_IC20_GetSource())
241068c6:	f7fc fadb 	bl	24102e80 <LL_RCC_IC20_GetSource>
241068ca:	4603      	mov	r3, r0
241068cc:	f1b3 5f40 	cmp.w	r3, #805306368	@ 0x30000000
241068d0:	d02f      	beq.n	24106932 <RCCEx_GetCLKPCLKFreq+0x32a>
241068d2:	f1b3 5f40 	cmp.w	r3, #805306368	@ 0x30000000
241068d6:	d835      	bhi.n	24106944 <RCCEx_GetCLKPCLKFreq+0x33c>
241068d8:	f1b3 5f00 	cmp.w	r3, #536870912	@ 0x20000000
241068dc:	d020      	beq.n	24106920 <RCCEx_GetCLKPCLKFreq+0x318>
241068de:	f1b3 5f00 	cmp.w	r3, #536870912	@ 0x20000000
241068e2:	d82f      	bhi.n	24106944 <RCCEx_GetCLKPCLKFreq+0x33c>
241068e4:	2b00      	cmp	r3, #0
241068e6:	d009      	beq.n	241068fc <RCCEx_GetCLKPCLKFreq+0x2f4>
241068e8:	f1b3 5f80 	cmp.w	r3, #268435456	@ 0x10000000
241068ec:	d00f      	beq.n	2410690e <RCCEx_GetCLKPCLKFreq+0x306>
              clkp_frequency = HAL_RCCEx_GetPLL4CLKFreq();
              clkp_frequency = clkp_frequency / ic_divider;
              break;
            default:
              /* Unexpected case */
              break;
241068ee:	e029      	b.n	24106944 <RCCEx_GetCLKPCLKFreq+0x33c>
241068f0:	03d09000 	.word	0x03d09000
241068f4:	003d0900 	.word	0x003d0900
241068f8:	016e3600 	.word	0x016e3600
              clkp_frequency = HAL_RCCEx_GetPLL1CLKFreq();
241068fc:	f7ff fa80 	bl	24105e00 <HAL_RCCEx_GetPLL1CLKFreq>
24106900:	60f8      	str	r0, [r7, #12]
              clkp_frequency = clkp_frequency / ic_divider;
24106902:	68fa      	ldr	r2, [r7, #12]
24106904:	68bb      	ldr	r3, [r7, #8]
24106906:	fbb2 f3f3 	udiv	r3, r2, r3
2410690a:	60fb      	str	r3, [r7, #12]
              break;
2410690c:	e01b      	b.n	24106946 <RCCEx_GetCLKPCLKFreq+0x33e>
              clkp_frequency = HAL_RCCEx_GetPLL2CLKFreq();
2410690e:	f7ff fabd 	bl	24105e8c <HAL_RCCEx_GetPLL2CLKFreq>
24106912:	60f8      	str	r0, [r7, #12]
              clkp_frequency = clkp_frequency / ic_divider;
24106914:	68fa      	ldr	r2, [r7, #12]
24106916:	68bb      	ldr	r3, [r7, #8]
24106918:	fbb2 f3f3 	udiv	r3, r2, r3
2410691c:	60fb      	str	r3, [r7, #12]
              break;
2410691e:	e012      	b.n	24106946 <RCCEx_GetCLKPCLKFreq+0x33e>
              clkp_frequency = HAL_RCCEx_GetPLL3CLKFreq();
24106920:	f7ff fafa 	bl	24105f18 <HAL_RCCEx_GetPLL3CLKFreq>
24106924:	60f8      	str	r0, [r7, #12]
              clkp_frequency = clkp_frequency / ic_divider;
24106926:	68fa      	ldr	r2, [r7, #12]
24106928:	68bb      	ldr	r3, [r7, #8]
2410692a:	fbb2 f3f3 	udiv	r3, r2, r3
2410692e:	60fb      	str	r3, [r7, #12]
              break;
24106930:	e009      	b.n	24106946 <RCCEx_GetCLKPCLKFreq+0x33e>
              clkp_frequency = HAL_RCCEx_GetPLL4CLKFreq();
24106932:	f7ff fb37 	bl	24105fa4 <HAL_RCCEx_GetPLL4CLKFreq>
24106936:	60f8      	str	r0, [r7, #12]
              clkp_frequency = clkp_frequency / ic_divider;
24106938:	68fa      	ldr	r2, [r7, #12]
2410693a:	68bb      	ldr	r3, [r7, #8]
2410693c:	fbb2 f3f3 	udiv	r3, r2, r3
24106940:	60fb      	str	r3, [r7, #12]
              break;
24106942:	e000      	b.n	24106946 <RCCEx_GetCLKPCLKFreq+0x33e>
              break;
24106944:	bf00      	nop
          }
        }
        break;
24106946:	e00f      	b.n	24106968 <RCCEx_GetCLKPCLKFreq+0x360>

      default:
        /* Unexpected case */
        break;
24106948:	bf00      	nop
2410694a:	e00e      	b.n	2410696a <RCCEx_GetCLKPCLKFreq+0x362>
        break;
2410694c:	bf00      	nop
2410694e:	e00c      	b.n	2410696a <RCCEx_GetCLKPCLKFreq+0x362>
        break;
24106950:	bf00      	nop
24106952:	e00a      	b.n	2410696a <RCCEx_GetCLKPCLKFreq+0x362>
        break;
24106954:	bf00      	nop
24106956:	e008      	b.n	2410696a <RCCEx_GetCLKPCLKFreq+0x362>
        break;
24106958:	bf00      	nop
2410695a:	e006      	b.n	2410696a <RCCEx_GetCLKPCLKFreq+0x362>
        break;
2410695c:	bf00      	nop
2410695e:	e004      	b.n	2410696a <RCCEx_GetCLKPCLKFreq+0x362>
        break;
24106960:	bf00      	nop
24106962:	e002      	b.n	2410696a <RCCEx_GetCLKPCLKFreq+0x362>
        break;
24106964:	bf00      	nop
24106966:	e000      	b.n	2410696a <RCCEx_GetCLKPCLKFreq+0x362>
        break;
24106968:	bf00      	nop
    }
  }

  return clkp_frequency;
2410696a:	68fb      	ldr	r3, [r7, #12]
}
2410696c:	4618      	mov	r0, r3
2410696e:	3710      	adds	r7, #16
24106970:	46bd      	mov	sp, r7
24106972:	bd80      	pop	{r7, pc}

24106974 <RCCEx_GetCSICLKFreq>:
  * @brief  Return CSI clock frequency
  * @retval CLKP clock frequency (in Hz)
  *         - @ref  RCC_PERIPH_FREQUENCY_NO indicates that oscillator is not ready
  */
static uint32_t RCCEx_GetCSICLKFreq(void)
{
24106974:	b580      	push	{r7, lr}
24106976:	b082      	sub	sp, #8
24106978:	af00      	add	r7, sp, #0
  uint32_t clkp_frequency = RCC_PERIPH_FREQUENCY_NO;
2410697a:	2300      	movs	r3, #0
2410697c:	607b      	str	r3, [r7, #4]

  if (LL_RCC_IC18_IsEnabled() != 0U)
2410697e:	f7fc f9eb 	bl	24102d58 <LL_RCC_IC18_IsEnabled>
24106982:	4603      	mov	r3, r0
24106984:	2b00      	cmp	r3, #0
24106986:	d03c      	beq.n	24106a02 <RCCEx_GetCSICLKFreq+0x8e>
  {
    uint32_t ic_divider = LL_RCC_IC18_GetDivider();
24106988:	f7fc fa08 	bl	24102d9c <LL_RCC_IC18_GetDivider>
2410698c:	6038      	str	r0, [r7, #0]
    switch (LL_RCC_IC18_GetSource())
2410698e:	f7fc f9f7 	bl	24102d80 <LL_RCC_IC18_GetSource>
24106992:	4603      	mov	r3, r0
24106994:	f1b3 5f40 	cmp.w	r3, #805306368	@ 0x30000000
24106998:	d029      	beq.n	241069ee <RCCEx_GetCSICLKFreq+0x7a>
2410699a:	f1b3 5f40 	cmp.w	r3, #805306368	@ 0x30000000
2410699e:	d82f      	bhi.n	24106a00 <RCCEx_GetCSICLKFreq+0x8c>
241069a0:	f1b3 5f00 	cmp.w	r3, #536870912	@ 0x20000000
241069a4:	d01a      	beq.n	241069dc <RCCEx_GetCSICLKFreq+0x68>
241069a6:	f1b3 5f00 	cmp.w	r3, #536870912	@ 0x20000000
241069aa:	d829      	bhi.n	24106a00 <RCCEx_GetCSICLKFreq+0x8c>
241069ac:	2b00      	cmp	r3, #0
241069ae:	d003      	beq.n	241069b8 <RCCEx_GetCSICLKFreq+0x44>
241069b0:	f1b3 5f80 	cmp.w	r3, #268435456	@ 0x10000000
241069b4:	d009      	beq.n	241069ca <RCCEx_GetCSICLKFreq+0x56>
        clkp_frequency = HAL_RCCEx_GetPLL4CLKFreq();
        clkp_frequency = clkp_frequency / ic_divider;
        break;
      default:
        /* Unexpected case */
        break;
241069b6:	e023      	b.n	24106a00 <RCCEx_GetCSICLKFreq+0x8c>
        clkp_frequency = HAL_RCCEx_GetPLL1CLKFreq();
241069b8:	f7ff fa22 	bl	24105e00 <HAL_RCCEx_GetPLL1CLKFreq>
241069bc:	6078      	str	r0, [r7, #4]
        clkp_frequency = clkp_frequency / ic_divider;
241069be:	687a      	ldr	r2, [r7, #4]
241069c0:	683b      	ldr	r3, [r7, #0]
241069c2:	fbb2 f3f3 	udiv	r3, r2, r3
241069c6:	607b      	str	r3, [r7, #4]
        break;
241069c8:	e01b      	b.n	24106a02 <RCCEx_GetCSICLKFreq+0x8e>
        clkp_frequency = HAL_RCCEx_GetPLL2CLKFreq();
241069ca:	f7ff fa5f 	bl	24105e8c <HAL_RCCEx_GetPLL2CLKFreq>
241069ce:	6078      	str	r0, [r7, #4]
        clkp_frequency = clkp_frequency / ic_divider;
241069d0:	687a      	ldr	r2, [r7, #4]
241069d2:	683b      	ldr	r3, [r7, #0]
241069d4:	fbb2 f3f3 	udiv	r3, r2, r3
241069d8:	607b      	str	r3, [r7, #4]
        break;
241069da:	e012      	b.n	24106a02 <RCCEx_GetCSICLKFreq+0x8e>
        clkp_frequency = HAL_RCCEx_GetPLL3CLKFreq();
241069dc:	f7ff fa9c 	bl	24105f18 <HAL_RCCEx_GetPLL3CLKFreq>
241069e0:	6078      	str	r0, [r7, #4]
        clkp_frequency = clkp_frequency / ic_divider;
241069e2:	687a      	ldr	r2, [r7, #4]
241069e4:	683b      	ldr	r3, [r7, #0]
241069e6:	fbb2 f3f3 	udiv	r3, r2, r3
241069ea:	607b      	str	r3, [r7, #4]
        break;
241069ec:	e009      	b.n	24106a02 <RCCEx_GetCSICLKFreq+0x8e>
        clkp_frequency = HAL_RCCEx_GetPLL4CLKFreq();
241069ee:	f7ff fad9 	bl	24105fa4 <HAL_RCCEx_GetPLL4CLKFreq>
241069f2:	6078      	str	r0, [r7, #4]
        clkp_frequency = clkp_frequency / ic_divider;
241069f4:	687a      	ldr	r2, [r7, #4]
241069f6:	683b      	ldr	r3, [r7, #0]
241069f8:	fbb2 f3f3 	udiv	r3, r2, r3
241069fc:	607b      	str	r3, [r7, #4]
        break;
241069fe:	e000      	b.n	24106a02 <RCCEx_GetCSICLKFreq+0x8e>
        break;
24106a00:	bf00      	nop
    }
  }

  return clkp_frequency;
24106a02:	687b      	ldr	r3, [r7, #4]
}
24106a04:	4618      	mov	r0, r3
24106a06:	3708      	adds	r7, #8
24106a08:	46bd      	mov	sp, r7
24106a0a:	bd80      	pop	{r7, pc}

24106a0c <RCCEx_GetDCMIPPCLKFreq>:
  *         @arg @ref RCCEx_DCMIPP_Clock_Source
  * @retval DCMIPP clock frequency (in Hz)
  *         - @ref  RCC_PERIPH_FREQUENCY_NO indicates that oscillator is not ready
  */
static uint32_t RCCEx_GetDCMIPPCLKFreq(uint32_t DCMIPPxSource)
{
24106a0c:	b580      	push	{r7, lr}
24106a0e:	b084      	sub	sp, #16
24106a10:	af00      	add	r7, sp, #0
24106a12:	6078      	str	r0, [r7, #4]
  uint32_t dcmipp_frequency = RCC_PERIPH_FREQUENCY_NO;
24106a14:	2300      	movs	r3, #0
24106a16:	60fb      	str	r3, [r7, #12]
  uint32_t ic_divider;

  switch (LL_RCC_GetDCMIPPClockSource(DCMIPPxSource))
24106a18:	6878      	ldr	r0, [r7, #4]
24106a1a:	f7fb fa65 	bl	24101ee8 <LL_RCC_GetDCMIPPClockSource>
24106a1e:	4603      	mov	r3, r0
24106a20:	f5b3 1f40 	cmp.w	r3, #3145728	@ 0x300000
24106a24:	d062      	beq.n	24106aec <RCCEx_GetDCMIPPCLKFreq+0xe0>
24106a26:	f5b3 1f40 	cmp.w	r3, #3145728	@ 0x300000
24106a2a:	d86d      	bhi.n	24106b08 <RCCEx_GetDCMIPPCLKFreq+0xfc>
24106a2c:	f5b3 1f00 	cmp.w	r3, #2097152	@ 0x200000
24106a30:	d019      	beq.n	24106a66 <RCCEx_GetDCMIPPCLKFreq+0x5a>
24106a32:	f5b3 1f00 	cmp.w	r3, #2097152	@ 0x200000
24106a36:	d867      	bhi.n	24106b08 <RCCEx_GetDCMIPPCLKFreq+0xfc>
24106a38:	2b00      	cmp	r3, #0
24106a3a:	d003      	beq.n	24106a44 <RCCEx_GetDCMIPPCLKFreq+0x38>
24106a3c:	f5b3 1f80 	cmp.w	r3, #1048576	@ 0x100000
24106a40:	d00c      	beq.n	24106a5c <RCCEx_GetDCMIPPCLKFreq+0x50>
      }
      break;

    default:
      /* Unexpected case */
      break;
24106a42:	e061      	b.n	24106b08 <RCCEx_GetDCMIPPCLKFreq+0xfc>
      dcmipp_frequency = RCCEx_GetPCLK5Freq(RCCEx_GetHCLKFreq(HAL_RCC_GetSysClockFreq()));
24106a44:	f7fa fe8e 	bl	24101764 <HAL_RCC_GetSysClockFreq>
24106a48:	4603      	mov	r3, r0
24106a4a:	4618      	mov	r0, r3
24106a4c:	f7ff faf0 	bl	24106030 <RCCEx_GetHCLKFreq>
24106a50:	4603      	mov	r3, r0
24106a52:	4618      	mov	r0, r3
24106a54:	f7ff fb2f 	bl	241060b6 <RCCEx_GetPCLK5Freq>
24106a58:	60f8      	str	r0, [r7, #12]
      break;
24106a5a:	e05a      	b.n	24106b12 <RCCEx_GetDCMIPPCLKFreq+0x106>
      dcmipp_frequency = RCCEx_GetCLKPCLKFreq(LL_RCC_CLKP_CLKSOURCE);
24106a5c:	2007      	movs	r0, #7
24106a5e:	f7ff fdd3 	bl	24106608 <RCCEx_GetCLKPCLKFreq>
24106a62:	60f8      	str	r0, [r7, #12]
      break;
24106a64:	e055      	b.n	24106b12 <RCCEx_GetDCMIPPCLKFreq+0x106>
      if (LL_RCC_IC17_IsEnabled() != 0U)
24106a66:	f7fc f937 	bl	24102cd8 <LL_RCC_IC17_IsEnabled>
24106a6a:	4603      	mov	r3, r0
24106a6c:	2b00      	cmp	r3, #0
24106a6e:	d04d      	beq.n	24106b0c <RCCEx_GetDCMIPPCLKFreq+0x100>
        ic_divider = LL_RCC_IC17_GetDivider();
24106a70:	f7fc f954 	bl	24102d1c <LL_RCC_IC17_GetDivider>
24106a74:	60b8      	str	r0, [r7, #8]
        switch (LL_RCC_IC17_GetSource())
24106a76:	f7fc f943 	bl	24102d00 <LL_RCC_IC17_GetSource>
24106a7a:	4603      	mov	r3, r0
24106a7c:	f1b3 5f40 	cmp.w	r3, #805306368	@ 0x30000000
24106a80:	d029      	beq.n	24106ad6 <RCCEx_GetDCMIPPCLKFreq+0xca>
24106a82:	f1b3 5f40 	cmp.w	r3, #805306368	@ 0x30000000
24106a86:	d82f      	bhi.n	24106ae8 <RCCEx_GetDCMIPPCLKFreq+0xdc>
24106a88:	f1b3 5f00 	cmp.w	r3, #536870912	@ 0x20000000
24106a8c:	d01a      	beq.n	24106ac4 <RCCEx_GetDCMIPPCLKFreq+0xb8>
24106a8e:	f1b3 5f00 	cmp.w	r3, #536870912	@ 0x20000000
24106a92:	d829      	bhi.n	24106ae8 <RCCEx_GetDCMIPPCLKFreq+0xdc>
24106a94:	2b00      	cmp	r3, #0
24106a96:	d003      	beq.n	24106aa0 <RCCEx_GetDCMIPPCLKFreq+0x94>
24106a98:	f1b3 5f80 	cmp.w	r3, #268435456	@ 0x10000000
24106a9c:	d009      	beq.n	24106ab2 <RCCEx_GetDCMIPPCLKFreq+0xa6>
            break;
24106a9e:	e023      	b.n	24106ae8 <RCCEx_GetDCMIPPCLKFreq+0xdc>
            dcmipp_frequency = HAL_RCCEx_GetPLL1CLKFreq();
24106aa0:	f7ff f9ae 	bl	24105e00 <HAL_RCCEx_GetPLL1CLKFreq>
24106aa4:	60f8      	str	r0, [r7, #12]
            dcmipp_frequency = dcmipp_frequency / ic_divider;
24106aa6:	68fa      	ldr	r2, [r7, #12]
24106aa8:	68bb      	ldr	r3, [r7, #8]
24106aaa:	fbb2 f3f3 	udiv	r3, r2, r3
24106aae:	60fb      	str	r3, [r7, #12]
            break;
24106ab0:	e01b      	b.n	24106aea <RCCEx_GetDCMIPPCLKFreq+0xde>
            dcmipp_frequency = HAL_RCCEx_GetPLL2CLKFreq();
24106ab2:	f7ff f9eb 	bl	24105e8c <HAL_RCCEx_GetPLL2CLKFreq>
24106ab6:	60f8      	str	r0, [r7, #12]
            dcmipp_frequency = dcmipp_frequency / ic_divider;
24106ab8:	68fa      	ldr	r2, [r7, #12]
24106aba:	68bb      	ldr	r3, [r7, #8]
24106abc:	fbb2 f3f3 	udiv	r3, r2, r3
24106ac0:	60fb      	str	r3, [r7, #12]
            break;
24106ac2:	e012      	b.n	24106aea <RCCEx_GetDCMIPPCLKFreq+0xde>
            dcmipp_frequency = HAL_RCCEx_GetPLL3CLKFreq();
24106ac4:	f7ff fa28 	bl	24105f18 <HAL_RCCEx_GetPLL3CLKFreq>
24106ac8:	60f8      	str	r0, [r7, #12]
            dcmipp_frequency = dcmipp_frequency / ic_divider;
24106aca:	68fa      	ldr	r2, [r7, #12]
24106acc:	68bb      	ldr	r3, [r7, #8]
24106ace:	fbb2 f3f3 	udiv	r3, r2, r3
24106ad2:	60fb      	str	r3, [r7, #12]
            break;
24106ad4:	e009      	b.n	24106aea <RCCEx_GetDCMIPPCLKFreq+0xde>
            dcmipp_frequency = HAL_RCCEx_GetPLL4CLKFreq();
24106ad6:	f7ff fa65 	bl	24105fa4 <HAL_RCCEx_GetPLL4CLKFreq>
24106ada:	60f8      	str	r0, [r7, #12]
            dcmipp_frequency = dcmipp_frequency / ic_divider;
24106adc:	68fa      	ldr	r2, [r7, #12]
24106ade:	68bb      	ldr	r3, [r7, #8]
24106ae0:	fbb2 f3f3 	udiv	r3, r2, r3
24106ae4:	60fb      	str	r3, [r7, #12]
            break;
24106ae6:	e000      	b.n	24106aea <RCCEx_GetDCMIPPCLKFreq+0xde>
            break;
24106ae8:	bf00      	nop
      break;
24106aea:	e00f      	b.n	24106b0c <RCCEx_GetDCMIPPCLKFreq+0x100>
      if (LL_RCC_HSI_IsReady() != 0U)
24106aec:	f7fa ff10 	bl	24101910 <LL_RCC_HSI_IsReady>
24106af0:	4603      	mov	r3, r0
24106af2:	2b00      	cmp	r3, #0
24106af4:	d00c      	beq.n	24106b10 <RCCEx_GetDCMIPPCLKFreq+0x104>
        dcmipp_frequency = HSI_VALUE >> (LL_RCC_HSI_GetDivider() >> RCC_HSICFGR_HSIDIV_Pos);
24106af6:	f7fa ff1d 	bl	24101934 <LL_RCC_HSI_GetDivider>
24106afa:	4603      	mov	r3, r0
24106afc:	09db      	lsrs	r3, r3, #7
24106afe:	4a07      	ldr	r2, [pc, #28]	@ (24106b1c <RCCEx_GetDCMIPPCLKFreq+0x110>)
24106b00:	fa22 f303 	lsr.w	r3, r2, r3
24106b04:	60fb      	str	r3, [r7, #12]
      break;
24106b06:	e003      	b.n	24106b10 <RCCEx_GetDCMIPPCLKFreq+0x104>
      break;
24106b08:	bf00      	nop
24106b0a:	e002      	b.n	24106b12 <RCCEx_GetDCMIPPCLKFreq+0x106>
      break;
24106b0c:	bf00      	nop
24106b0e:	e000      	b.n	24106b12 <RCCEx_GetDCMIPPCLKFreq+0x106>
      break;
24106b10:	bf00      	nop
  }

  return dcmipp_frequency;
24106b12:	68fb      	ldr	r3, [r7, #12]
}
24106b14:	4618      	mov	r0, r3
24106b16:	3710      	adds	r7, #16
24106b18:	46bd      	mov	sp, r7
24106b1a:	bd80      	pop	{r7, pc}
24106b1c:	03d09000 	.word	0x03d09000

24106b20 <RCCEx_GetETH1CLKFreq>:
  *         @arg @ref RCCEx_ETH1_Clock_Source
  * @retval ETH1 clock frequency (in Hz)
  *         - @ref  RCC_PERIPH_FREQUENCY_NO indicates that oscillator is not ready
  */
static uint32_t RCCEx_GetETH1CLKFreq(uint32_t ETH1xSource)
{
24106b20:	b580      	push	{r7, lr}
24106b22:	b084      	sub	sp, #16
24106b24:	af00      	add	r7, sp, #0
24106b26:	6078      	str	r0, [r7, #4]
  uint32_t eth1_frequency = RCC_PERIPH_FREQUENCY_NO;
24106b28:	2300      	movs	r3, #0
24106b2a:	60fb      	str	r3, [r7, #12]
  uint32_t ic_divider;

  switch (LL_RCC_GetETHClockSource(ETH1xSource))
24106b2c:	6878      	ldr	r0, [r7, #4]
24106b2e:	f7fb f9ed 	bl	24101f0c <LL_RCC_GetETHClockSource>
24106b32:	4603      	mov	r3, r0
24106b34:	f5b3 5f40 	cmp.w	r3, #12288	@ 0x3000
24106b38:	d05e      	beq.n	24106bf8 <RCCEx_GetETH1CLKFreq+0xd8>
24106b3a:	f5b3 5f40 	cmp.w	r3, #12288	@ 0x3000
24106b3e:	d863      	bhi.n	24106c08 <RCCEx_GetETH1CLKFreq+0xe8>
24106b40:	f5b3 5f00 	cmp.w	r3, #8192	@ 0x2000
24106b44:	d015      	beq.n	24106b72 <RCCEx_GetETH1CLKFreq+0x52>
24106b46:	f5b3 5f00 	cmp.w	r3, #8192	@ 0x2000
24106b4a:	d85d      	bhi.n	24106c08 <RCCEx_GetETH1CLKFreq+0xe8>
24106b4c:	2b00      	cmp	r3, #0
24106b4e:	d003      	beq.n	24106b58 <RCCEx_GetETH1CLKFreq+0x38>
24106b50:	f5b3 5f80 	cmp.w	r3, #4096	@ 0x1000
24106b54:	d008      	beq.n	24106b68 <RCCEx_GetETH1CLKFreq+0x48>
      }
      break;

    default:
      /* Unexpected case */
      break;
24106b56:	e057      	b.n	24106c08 <RCCEx_GetETH1CLKFreq+0xe8>
      eth1_frequency = RCCEx_GetHCLKFreq(HAL_RCC_GetSysClockFreq());
24106b58:	f7fa fe04 	bl	24101764 <HAL_RCC_GetSysClockFreq>
24106b5c:	4603      	mov	r3, r0
24106b5e:	4618      	mov	r0, r3
24106b60:	f7ff fa66 	bl	24106030 <RCCEx_GetHCLKFreq>
24106b64:	60f8      	str	r0, [r7, #12]
      break;
24106b66:	e054      	b.n	24106c12 <RCCEx_GetETH1CLKFreq+0xf2>
      eth1_frequency = RCCEx_GetCLKPCLKFreq(LL_RCC_CLKP_CLKSOURCE);
24106b68:	2007      	movs	r0, #7
24106b6a:	f7ff fd4d 	bl	24106608 <RCCEx_GetCLKPCLKFreq>
24106b6e:	60f8      	str	r0, [r7, #12]
      break;
24106b70:	e04f      	b.n	24106c12 <RCCEx_GetETH1CLKFreq+0xf2>
      if (LL_RCC_IC12_IsEnabled() != 0U)
24106b72:	f7fb ff71 	bl	24102a58 <LL_RCC_IC12_IsEnabled>
24106b76:	4603      	mov	r3, r0
24106b78:	2b00      	cmp	r3, #0
24106b7a:	d047      	beq.n	24106c0c <RCCEx_GetETH1CLKFreq+0xec>
        ic_divider = LL_RCC_IC12_GetDivider();
24106b7c:	f7fb ff8e 	bl	24102a9c <LL_RCC_IC12_GetDivider>
24106b80:	60b8      	str	r0, [r7, #8]
        switch (LL_RCC_IC12_GetSource())
24106b82:	f7fb ff7d 	bl	24102a80 <LL_RCC_IC12_GetSource>
24106b86:	4603      	mov	r3, r0
24106b88:	f1b3 5f40 	cmp.w	r3, #805306368	@ 0x30000000
24106b8c:	d029      	beq.n	24106be2 <RCCEx_GetETH1CLKFreq+0xc2>
24106b8e:	f1b3 5f40 	cmp.w	r3, #805306368	@ 0x30000000
24106b92:	d82f      	bhi.n	24106bf4 <RCCEx_GetETH1CLKFreq+0xd4>
24106b94:	f1b3 5f00 	cmp.w	r3, #536870912	@ 0x20000000
24106b98:	d01a      	beq.n	24106bd0 <RCCEx_GetETH1CLKFreq+0xb0>
24106b9a:	f1b3 5f00 	cmp.w	r3, #536870912	@ 0x20000000
24106b9e:	d829      	bhi.n	24106bf4 <RCCEx_GetETH1CLKFreq+0xd4>
24106ba0:	2b00      	cmp	r3, #0
24106ba2:	d003      	beq.n	24106bac <RCCEx_GetETH1CLKFreq+0x8c>
24106ba4:	f1b3 5f80 	cmp.w	r3, #268435456	@ 0x10000000
24106ba8:	d009      	beq.n	24106bbe <RCCEx_GetETH1CLKFreq+0x9e>
            break;
24106baa:	e023      	b.n	24106bf4 <RCCEx_GetETH1CLKFreq+0xd4>
            eth1_frequency = HAL_RCCEx_GetPLL1CLKFreq();
24106bac:	f7ff f928 	bl	24105e00 <HAL_RCCEx_GetPLL1CLKFreq>
24106bb0:	60f8      	str	r0, [r7, #12]
            eth1_frequency = eth1_frequency / ic_divider;
24106bb2:	68fa      	ldr	r2, [r7, #12]
24106bb4:	68bb      	ldr	r3, [r7, #8]
24106bb6:	fbb2 f3f3 	udiv	r3, r2, r3
24106bba:	60fb      	str	r3, [r7, #12]
            break;
24106bbc:	e01b      	b.n	24106bf6 <RCCEx_GetETH1CLKFreq+0xd6>
            eth1_frequency = HAL_RCCEx_GetPLL2CLKFreq();
24106bbe:	f7ff f965 	bl	24105e8c <HAL_RCCEx_GetPLL2CLKFreq>
24106bc2:	60f8      	str	r0, [r7, #12]
            eth1_frequency = eth1_frequency / ic_divider;
24106bc4:	68fa      	ldr	r2, [r7, #12]
24106bc6:	68bb      	ldr	r3, [r7, #8]
24106bc8:	fbb2 f3f3 	udiv	r3, r2, r3
24106bcc:	60fb      	str	r3, [r7, #12]
            break;
24106bce:	e012      	b.n	24106bf6 <RCCEx_GetETH1CLKFreq+0xd6>
            eth1_frequency = HAL_RCCEx_GetPLL3CLKFreq();
24106bd0:	f7ff f9a2 	bl	24105f18 <HAL_RCCEx_GetPLL3CLKFreq>
24106bd4:	60f8      	str	r0, [r7, #12]
            eth1_frequency = eth1_frequency / ic_divider;
24106bd6:	68fa      	ldr	r2, [r7, #12]
24106bd8:	68bb      	ldr	r3, [r7, #8]
24106bda:	fbb2 f3f3 	udiv	r3, r2, r3
24106bde:	60fb      	str	r3, [r7, #12]
            break;
24106be0:	e009      	b.n	24106bf6 <RCCEx_GetETH1CLKFreq+0xd6>
            eth1_frequency = HAL_RCCEx_GetPLL4CLKFreq();
24106be2:	f7ff f9df 	bl	24105fa4 <HAL_RCCEx_GetPLL4CLKFreq>
24106be6:	60f8      	str	r0, [r7, #12]
            eth1_frequency = eth1_frequency / ic_divider;
24106be8:	68fa      	ldr	r2, [r7, #12]
24106bea:	68bb      	ldr	r3, [r7, #8]
24106bec:	fbb2 f3f3 	udiv	r3, r2, r3
24106bf0:	60fb      	str	r3, [r7, #12]
            break;
24106bf2:	e000      	b.n	24106bf6 <RCCEx_GetETH1CLKFreq+0xd6>
            break;
24106bf4:	bf00      	nop
      break;
24106bf6:	e009      	b.n	24106c0c <RCCEx_GetETH1CLKFreq+0xec>
      if (LL_RCC_HSE_IsReady() != 0U)
24106bf8:	f7fa fe78 	bl	241018ec <LL_RCC_HSE_IsReady>
24106bfc:	4603      	mov	r3, r0
24106bfe:	2b00      	cmp	r3, #0
24106c00:	d006      	beq.n	24106c10 <RCCEx_GetETH1CLKFreq+0xf0>
        eth1_frequency = HSE_VALUE;
24106c02:	4b06      	ldr	r3, [pc, #24]	@ (24106c1c <RCCEx_GetETH1CLKFreq+0xfc>)
24106c04:	60fb      	str	r3, [r7, #12]
      break;
24106c06:	e003      	b.n	24106c10 <RCCEx_GetETH1CLKFreq+0xf0>
      break;
24106c08:	bf00      	nop
24106c0a:	e002      	b.n	24106c12 <RCCEx_GetETH1CLKFreq+0xf2>
      break;
24106c0c:	bf00      	nop
24106c0e:	e000      	b.n	24106c12 <RCCEx_GetETH1CLKFreq+0xf2>
      break;
24106c10:	bf00      	nop
  }

  return eth1_frequency;
24106c12:	68fb      	ldr	r3, [r7, #12]
}
24106c14:	4618      	mov	r0, r3
24106c16:	3710      	adds	r7, #16
24106c18:	46bd      	mov	sp, r7
24106c1a:	bd80      	pop	{r7, pc}
24106c1c:	016e3600 	.word	0x016e3600

24106c20 <RCCEx_GetETH1PTPCLKFreq>:
  *         @arg @ref RCCEx_ETH1_PTP_Clock_Source
  * @retval ETH1PTP clock frequency (in Hz)
  *         - @ref  RCC_PERIPH_FREQUENCY_NO indicates that oscillator is not ready
  */
static uint32_t RCCEx_GetETH1PTPCLKFreq(uint32_t ETH1PTPxSource)
{
24106c20:	b580      	push	{r7, lr}
24106c22:	b084      	sub	sp, #16
24106c24:	af00      	add	r7, sp, #0
24106c26:	6078      	str	r0, [r7, #4]
  uint32_t eth1ptp_frequency = RCC_PERIPH_FREQUENCY_NO;
24106c28:	2300      	movs	r3, #0
24106c2a:	60fb      	str	r3, [r7, #12]
  uint32_t ic_divider;

  switch (LL_RCC_GetETHPTPClockSource(ETH1PTPxSource))
24106c2c:	6878      	ldr	r0, [r7, #4]
24106c2e:	f7fb f97f 	bl	24101f30 <LL_RCC_GetETHPTPClockSource>
24106c32:	4603      	mov	r3, r0
24106c34:	2b03      	cmp	r3, #3
24106c36:	d863      	bhi.n	24106d00 <RCCEx_GetETH1PTPCLKFreq+0xe0>
24106c38:	a201      	add	r2, pc, #4	@ (adr r2, 24106c40 <RCCEx_GetETH1PTPCLKFreq+0x20>)
24106c3a:	f852 f023 	ldr.w	pc, [r2, r3, lsl #2]
24106c3e:	bf00      	nop
24106c40:	24106c51 	.word	0x24106c51
24106c44:	24106c61 	.word	0x24106c61
24106c48:	24106c6b 	.word	0x24106c6b
24106c4c:	24106cf1 	.word	0x24106cf1
  {
    case LL_RCC_ETH1PTP_CLKSOURCE_HCLK:
      eth1ptp_frequency = RCCEx_GetHCLKFreq(HAL_RCC_GetSysClockFreq());
24106c50:	f7fa fd88 	bl	24101764 <HAL_RCC_GetSysClockFreq>
24106c54:	4603      	mov	r3, r0
24106c56:	4618      	mov	r0, r3
24106c58:	f7ff f9ea 	bl	24106030 <RCCEx_GetHCLKFreq>
24106c5c:	60f8      	str	r0, [r7, #12]
      break;
24106c5e:	e054      	b.n	24106d0a <RCCEx_GetETH1PTPCLKFreq+0xea>

    case LL_RCC_ETH1PTP_CLKSOURCE_CLKP:
      eth1ptp_frequency = RCCEx_GetCLKPCLKFreq(LL_RCC_CLKP_CLKSOURCE);
24106c60:	2007      	movs	r0, #7
24106c62:	f7ff fcd1 	bl	24106608 <RCCEx_GetCLKPCLKFreq>
24106c66:	60f8      	str	r0, [r7, #12]
      break;
24106c68:	e04f      	b.n	24106d0a <RCCEx_GetETH1PTPCLKFreq+0xea>

    case LL_RCC_ETH1PTP_CLKSOURCE_IC13:
      if (LL_RCC_IC13_IsEnabled() != 0U)
24106c6a:	f7fb ff35 	bl	24102ad8 <LL_RCC_IC13_IsEnabled>
24106c6e:	4603      	mov	r3, r0
24106c70:	2b00      	cmp	r3, #0
24106c72:	d047      	beq.n	24106d04 <RCCEx_GetETH1PTPCLKFreq+0xe4>
      {
        ic_divider = LL_RCC_IC13_GetDivider();
24106c74:	f7fb ff52 	bl	24102b1c <LL_RCC_IC13_GetDivider>
24106c78:	60b8      	str	r0, [r7, #8]
        switch (LL_RCC_IC13_GetSource())
24106c7a:	f7fb ff41 	bl	24102b00 <LL_RCC_IC13_GetSource>
24106c7e:	4603      	mov	r3, r0
24106c80:	f1b3 5f40 	cmp.w	r3, #805306368	@ 0x30000000
24106c84:	d029      	beq.n	24106cda <RCCEx_GetETH1PTPCLKFreq+0xba>
24106c86:	f1b3 5f40 	cmp.w	r3, #805306368	@ 0x30000000
24106c8a:	d82f      	bhi.n	24106cec <RCCEx_GetETH1PTPCLKFreq+0xcc>
24106c8c:	f1b3 5f00 	cmp.w	r3, #536870912	@ 0x20000000
24106c90:	d01a      	beq.n	24106cc8 <RCCEx_GetETH1PTPCLKFreq+0xa8>
24106c92:	f1b3 5f00 	cmp.w	r3, #536870912	@ 0x20000000
24106c96:	d829      	bhi.n	24106cec <RCCEx_GetETH1PTPCLKFreq+0xcc>
24106c98:	2b00      	cmp	r3, #0
24106c9a:	d003      	beq.n	24106ca4 <RCCEx_GetETH1PTPCLKFreq+0x84>
24106c9c:	f1b3 5f80 	cmp.w	r3, #268435456	@ 0x10000000
24106ca0:	d009      	beq.n	24106cb6 <RCCEx_GetETH1PTPCLKFreq+0x96>
            eth1ptp_frequency = HAL_RCCEx_GetPLL4CLKFreq();
            eth1ptp_frequency = eth1ptp_frequency / ic_divider;
            break;
          default:
            /* Unexpected case */
            break;
24106ca2:	e023      	b.n	24106cec <RCCEx_GetETH1PTPCLKFreq+0xcc>
            eth1ptp_frequency = HAL_RCCEx_GetPLL1CLKFreq();
24106ca4:	f7ff f8ac 	bl	24105e00 <HAL_RCCEx_GetPLL1CLKFreq>
24106ca8:	60f8      	str	r0, [r7, #12]
            eth1ptp_frequency = eth1ptp_frequency / ic_divider;
24106caa:	68fa      	ldr	r2, [r7, #12]
24106cac:	68bb      	ldr	r3, [r7, #8]
24106cae:	fbb2 f3f3 	udiv	r3, r2, r3
24106cb2:	60fb      	str	r3, [r7, #12]
            break;
24106cb4:	e01b      	b.n	24106cee <RCCEx_GetETH1PTPCLKFreq+0xce>
            eth1ptp_frequency = HAL_RCCEx_GetPLL2CLKFreq();
24106cb6:	f7ff f8e9 	bl	24105e8c <HAL_RCCEx_GetPLL2CLKFreq>
24106cba:	60f8      	str	r0, [r7, #12]
            eth1ptp_frequency = eth1ptp_frequency / ic_divider;
24106cbc:	68fa      	ldr	r2, [r7, #12]
24106cbe:	68bb      	ldr	r3, [r7, #8]
24106cc0:	fbb2 f3f3 	udiv	r3, r2, r3
24106cc4:	60fb      	str	r3, [r7, #12]
            break;
24106cc6:	e012      	b.n	24106cee <RCCEx_GetETH1PTPCLKFreq+0xce>
            eth1ptp_frequency = HAL_RCCEx_GetPLL3CLKFreq();
24106cc8:	f7ff f926 	bl	24105f18 <HAL_RCCEx_GetPLL3CLKFreq>
24106ccc:	60f8      	str	r0, [r7, #12]
            eth1ptp_frequency = eth1ptp_frequency / ic_divider;
24106cce:	68fa      	ldr	r2, [r7, #12]
24106cd0:	68bb      	ldr	r3, [r7, #8]
24106cd2:	fbb2 f3f3 	udiv	r3, r2, r3
24106cd6:	60fb      	str	r3, [r7, #12]
            break;
24106cd8:	e009      	b.n	24106cee <RCCEx_GetETH1PTPCLKFreq+0xce>
            eth1ptp_frequency = HAL_RCCEx_GetPLL4CLKFreq();
24106cda:	f7ff f963 	bl	24105fa4 <HAL_RCCEx_GetPLL4CLKFreq>
24106cde:	60f8      	str	r0, [r7, #12]
            eth1ptp_frequency = eth1ptp_frequency / ic_divider;
24106ce0:	68fa      	ldr	r2, [r7, #12]
24106ce2:	68bb      	ldr	r3, [r7, #8]
24106ce4:	fbb2 f3f3 	udiv	r3, r2, r3
24106ce8:	60fb      	str	r3, [r7, #12]
            break;
24106cea:	e000      	b.n	24106cee <RCCEx_GetETH1PTPCLKFreq+0xce>
            break;
24106cec:	bf00      	nop
        }
      }
      break;
24106cee:	e009      	b.n	24106d04 <RCCEx_GetETH1PTPCLKFreq+0xe4>

    case LL_RCC_ETH1PTP_CLKSOURCE_HSE:
      if (LL_RCC_HSE_IsReady() != 0U)
24106cf0:	f7fa fdfc 	bl	241018ec <LL_RCC_HSE_IsReady>
24106cf4:	4603      	mov	r3, r0
24106cf6:	2b00      	cmp	r3, #0
24106cf8:	d006      	beq.n	24106d08 <RCCEx_GetETH1PTPCLKFreq+0xe8>
      {
        eth1ptp_frequency = HSE_VALUE;
24106cfa:	4b0a      	ldr	r3, [pc, #40]	@ (24106d24 <RCCEx_GetETH1PTPCLKFreq+0x104>)
24106cfc:	60fb      	str	r3, [r7, #12]
      }
      break;
24106cfe:	e003      	b.n	24106d08 <RCCEx_GetETH1PTPCLKFreq+0xe8>

    default:
      /* Unexpected case */
      break;
24106d00:	bf00      	nop
24106d02:	e002      	b.n	24106d0a <RCCEx_GetETH1PTPCLKFreq+0xea>
      break;
24106d04:	bf00      	nop
24106d06:	e000      	b.n	24106d0a <RCCEx_GetETH1PTPCLKFreq+0xea>
      break;
24106d08:	bf00      	nop
  }

  return (eth1ptp_frequency / __HAL_RCC_GET_ETH1PTP_DIVIDER());
24106d0a:	f7fa ff4d 	bl	24101ba8 <LL_RCC_GetETH1PTPDivider>
24106d0e:	4603      	mov	r3, r0
24106d10:	091b      	lsrs	r3, r3, #4
24106d12:	3301      	adds	r3, #1
24106d14:	68fa      	ldr	r2, [r7, #12]
24106d16:	fbb2 f3f3 	udiv	r3, r2, r3
}
24106d1a:	4618      	mov	r0, r3
24106d1c:	3710      	adds	r7, #16
24106d1e:	46bd      	mov	sp, r7
24106d20:	bd80      	pop	{r7, pc}
24106d22:	bf00      	nop
24106d24:	016e3600 	.word	0x016e3600

24106d28 <RCCEx_GetFDCANCLKFreq>:
  *         @arg @ref RCCEx_FDCAN_Clock_Source
  * @retval FDCAN clock frequency (in Hz)
  *         - @ref  RCC_PERIPH_FREQUENCY_NO indicates that oscillator is not ready
  */
static uint32_t RCCEx_GetFDCANCLKFreq(uint32_t FDCANxSource)
{
24106d28:	b580      	push	{r7, lr}
24106d2a:	b084      	sub	sp, #16
24106d2c:	af00      	add	r7, sp, #0
24106d2e:	6078      	str	r0, [r7, #4]
  uint32_t fdcan_frequency = RCC_PERIPH_FREQUENCY_NO;
24106d30:	2300      	movs	r3, #0
24106d32:	60fb      	str	r3, [r7, #12]
  uint32_t ic_divider;

  switch (LL_RCC_GetFDCANClockSource(FDCANxSource))
24106d34:	6878      	ldr	r0, [r7, #4]
24106d36:	f7fb f90d 	bl	24101f54 <LL_RCC_GetFDCANClockSource>
24106d3a:	4603      	mov	r3, r0
24106d3c:	2b03      	cmp	r3, #3
24106d3e:	d867      	bhi.n	24106e10 <RCCEx_GetFDCANCLKFreq+0xe8>
24106d40:	a201      	add	r2, pc, #4	@ (adr r2, 24106d48 <RCCEx_GetFDCANCLKFreq+0x20>)
24106d42:	f852 f023 	ldr.w	pc, [r2, r3, lsl #2]
24106d46:	bf00      	nop
24106d48:	24106d59 	.word	0x24106d59
24106d4c:	24106d71 	.word	0x24106d71
24106d50:	24106d7b 	.word	0x24106d7b
24106d54:	24106e01 	.word	0x24106e01
  {
    case LL_RCC_FDCAN_CLKSOURCE_PCLK1:
      fdcan_frequency = RCCEx_GetPCLK1Freq(RCCEx_GetHCLKFreq(HAL_RCC_GetSysClockFreq()));
24106d58:	f7fa fd04 	bl	24101764 <HAL_RCC_GetSysClockFreq>
24106d5c:	4603      	mov	r3, r0
24106d5e:	4618      	mov	r0, r3
24106d60:	f7ff f966 	bl	24106030 <RCCEx_GetHCLKFreq>
24106d64:	4603      	mov	r3, r0
24106d66:	4618      	mov	r0, r3
24106d68:	f7ff f973 	bl	24106052 <RCCEx_GetPCLK1Freq>
24106d6c:	60f8      	str	r0, [r7, #12]
      break;
24106d6e:	e054      	b.n	24106e1a <RCCEx_GetFDCANCLKFreq+0xf2>

    case LL_RCC_FDCAN_CLKSOURCE_CLKP:
      fdcan_frequency = RCCEx_GetCLKPCLKFreq(LL_RCC_CLKP_CLKSOURCE);
24106d70:	2007      	movs	r0, #7
24106d72:	f7ff fc49 	bl	24106608 <RCCEx_GetCLKPCLKFreq>
24106d76:	60f8      	str	r0, [r7, #12]
      break;
24106d78:	e04f      	b.n	24106e1a <RCCEx_GetFDCANCLKFreq+0xf2>

    case LL_RCC_FDCAN_CLKSOURCE_IC19:
      if (LL_RCC_IC19_IsEnabled() != 0U)
24106d7a:	f7fc f82d 	bl	24102dd8 <LL_RCC_IC19_IsEnabled>
24106d7e:	4603      	mov	r3, r0
24106d80:	2b00      	cmp	r3, #0
24106d82:	d047      	beq.n	24106e14 <RCCEx_GetFDCANCLKFreq+0xec>
      {
        ic_divider = LL_RCC_IC19_GetDivider();
24106d84:	f7fc f84a 	bl	24102e1c <LL_RCC_IC19_GetDivider>
24106d88:	60b8      	str	r0, [r7, #8]
        switch (LL_RCC_IC19_GetSource())
24106d8a:	f7fc f839 	bl	24102e00 <LL_RCC_IC19_GetSource>
24106d8e:	4603      	mov	r3, r0
24106d90:	f1b3 5f40 	cmp.w	r3, #805306368	@ 0x30000000
24106d94:	d029      	beq.n	24106dea <RCCEx_GetFDCANCLKFreq+0xc2>
24106d96:	f1b3 5f40 	cmp.w	r3, #805306368	@ 0x30000000
24106d9a:	d82f      	bhi.n	24106dfc <RCCEx_GetFDCANCLKFreq+0xd4>
24106d9c:	f1b3 5f00 	cmp.w	r3, #536870912	@ 0x20000000
24106da0:	d01a      	beq.n	24106dd8 <RCCEx_GetFDCANCLKFreq+0xb0>
24106da2:	f1b3 5f00 	cmp.w	r3, #536870912	@ 0x20000000
24106da6:	d829      	bhi.n	24106dfc <RCCEx_GetFDCANCLKFreq+0xd4>
24106da8:	2b00      	cmp	r3, #0
24106daa:	d003      	beq.n	24106db4 <RCCEx_GetFDCANCLKFreq+0x8c>
24106dac:	f1b3 5f80 	cmp.w	r3, #268435456	@ 0x10000000
24106db0:	d009      	beq.n	24106dc6 <RCCEx_GetFDCANCLKFreq+0x9e>
            fdcan_frequency = HAL_RCCEx_GetPLL4CLKFreq();
            fdcan_frequency = fdcan_frequency / ic_divider;
            break;
          default:
            /* Unexpected case */
            break;
24106db2:	e023      	b.n	24106dfc <RCCEx_GetFDCANCLKFreq+0xd4>
            fdcan_frequency = HAL_RCCEx_GetPLL1CLKFreq();
24106db4:	f7ff f824 	bl	24105e00 <HAL_RCCEx_GetPLL1CLKFreq>
24106db8:	60f8      	str	r0, [r7, #12]
            fdcan_frequency = fdcan_frequency / ic_divider;
24106dba:	68fa      	ldr	r2, [r7, #12]
24106dbc:	68bb      	ldr	r3, [r7, #8]
24106dbe:	fbb2 f3f3 	udiv	r3, r2, r3
24106dc2:	60fb      	str	r3, [r7, #12]
            break;
24106dc4:	e01b      	b.n	24106dfe <RCCEx_GetFDCANCLKFreq+0xd6>
            fdcan_frequency = HAL_RCCEx_GetPLL2CLKFreq();
24106dc6:	f7ff f861 	bl	24105e8c <HAL_RCCEx_GetPLL2CLKFreq>
24106dca:	60f8      	str	r0, [r7, #12]
            fdcan_frequency = fdcan_frequency / ic_divider;
24106dcc:	68fa      	ldr	r2, [r7, #12]
24106dce:	68bb      	ldr	r3, [r7, #8]
24106dd0:	fbb2 f3f3 	udiv	r3, r2, r3
24106dd4:	60fb      	str	r3, [r7, #12]
            break;
24106dd6:	e012      	b.n	24106dfe <RCCEx_GetFDCANCLKFreq+0xd6>
            fdcan_frequency = HAL_RCCEx_GetPLL3CLKFreq();
24106dd8:	f7ff f89e 	bl	24105f18 <HAL_RCCEx_GetPLL3CLKFreq>
24106ddc:	60f8      	str	r0, [r7, #12]
            fdcan_frequency = fdcan_frequency / ic_divider;
24106dde:	68fa      	ldr	r2, [r7, #12]
24106de0:	68bb      	ldr	r3, [r7, #8]
24106de2:	fbb2 f3f3 	udiv	r3, r2, r3
24106de6:	60fb      	str	r3, [r7, #12]
            break;
24106de8:	e009      	b.n	24106dfe <RCCEx_GetFDCANCLKFreq+0xd6>
            fdcan_frequency = HAL_RCCEx_GetPLL4CLKFreq();
24106dea:	f7ff f8db 	bl	24105fa4 <HAL_RCCEx_GetPLL4CLKFreq>
24106dee:	60f8      	str	r0, [r7, #12]
            fdcan_frequency = fdcan_frequency / ic_divider;
24106df0:	68fa      	ldr	r2, [r7, #12]
24106df2:	68bb      	ldr	r3, [r7, #8]
24106df4:	fbb2 f3f3 	udiv	r3, r2, r3
24106df8:	60fb      	str	r3, [r7, #12]
            break;
24106dfa:	e000      	b.n	24106dfe <RCCEx_GetFDCANCLKFreq+0xd6>
            break;
24106dfc:	bf00      	nop
        }
      }
      break;
24106dfe:	e009      	b.n	24106e14 <RCCEx_GetFDCANCLKFreq+0xec>

    case LL_RCC_FDCAN_CLKSOURCE_HSE:
      if (LL_RCC_HSE_IsReady() != 0U)
24106e00:	f7fa fd74 	bl	241018ec <LL_RCC_HSE_IsReady>
24106e04:	4603      	mov	r3, r0
24106e06:	2b00      	cmp	r3, #0
24106e08:	d006      	beq.n	24106e18 <RCCEx_GetFDCANCLKFreq+0xf0>
      {
        fdcan_frequency = HSE_VALUE;
24106e0a:	4b06      	ldr	r3, [pc, #24]	@ (24106e24 <RCCEx_GetFDCANCLKFreq+0xfc>)
24106e0c:	60fb      	str	r3, [r7, #12]
      }
      break;
24106e0e:	e003      	b.n	24106e18 <RCCEx_GetFDCANCLKFreq+0xf0>

    default:
      /* Unexpected case */
      break;
24106e10:	bf00      	nop
24106e12:	e002      	b.n	24106e1a <RCCEx_GetFDCANCLKFreq+0xf2>
      break;
24106e14:	bf00      	nop
24106e16:	e000      	b.n	24106e1a <RCCEx_GetFDCANCLKFreq+0xf2>
      break;
24106e18:	bf00      	nop
  }

  return fdcan_frequency;
24106e1a:	68fb      	ldr	r3, [r7, #12]
}
24106e1c:	4618      	mov	r0, r3
24106e1e:	3710      	adds	r7, #16
24106e20:	46bd      	mov	sp, r7
24106e22:	bd80      	pop	{r7, pc}
24106e24:	016e3600 	.word	0x016e3600

24106e28 <RCCEx_GetFMCCLKFreq>:
  *         @arg @ref RCCEx_FMC_Clock_Source
  * @retval FMC clock frequency (in Hz)
  *         - @ref  RCC_PERIPH_FREQUENCY_NO indicates that oscillator is not ready
  */
static uint32_t RCCEx_GetFMCCLKFreq(uint32_t FMCxSource)
{
24106e28:	b580      	push	{r7, lr}
24106e2a:	b084      	sub	sp, #16
24106e2c:	af00      	add	r7, sp, #0
24106e2e:	6078      	str	r0, [r7, #4]
  uint32_t fmc_frequency = RCC_PERIPH_FREQUENCY_NO;
24106e30:	2300      	movs	r3, #0
24106e32:	60fb      	str	r3, [r7, #12]
  uint32_t ic_divider;

  switch (LL_RCC_GetFMCClockSource(FMCxSource))
24106e34:	6878      	ldr	r0, [r7, #4]
24106e36:	f7fb f89f 	bl	24101f78 <LL_RCC_GetFMCClockSource>
24106e3a:	4603      	mov	r3, r0
24106e3c:	2b30      	cmp	r3, #48	@ 0x30
24106e3e:	d05d      	beq.n	24106efc <RCCEx_GetFMCCLKFreq+0xd4>
24106e40:	2b30      	cmp	r3, #48	@ 0x30
24106e42:	f200 809e 	bhi.w	24106f82 <RCCEx_GetFMCCLKFreq+0x15a>
24106e46:	2b20      	cmp	r3, #32
24106e48:	d014      	beq.n	24106e74 <RCCEx_GetFMCCLKFreq+0x4c>
24106e4a:	2b20      	cmp	r3, #32
24106e4c:	f200 8099 	bhi.w	24106f82 <RCCEx_GetFMCCLKFreq+0x15a>
24106e50:	2b00      	cmp	r3, #0
24106e52:	d002      	beq.n	24106e5a <RCCEx_GetFMCCLKFreq+0x32>
24106e54:	2b10      	cmp	r3, #16
24106e56:	d008      	beq.n	24106e6a <RCCEx_GetFMCCLKFreq+0x42>
      }
      break;

    default:
      /* Unexpected case */
      break;
24106e58:	e093      	b.n	24106f82 <RCCEx_GetFMCCLKFreq+0x15a>
      fmc_frequency = RCCEx_GetHCLKFreq(HAL_RCC_GetSysClockFreq());
24106e5a:	f7fa fc83 	bl	24101764 <HAL_RCC_GetSysClockFreq>
24106e5e:	4603      	mov	r3, r0
24106e60:	4618      	mov	r0, r3
24106e62:	f7ff f8e5 	bl	24106030 <RCCEx_GetHCLKFreq>
24106e66:	60f8      	str	r0, [r7, #12]
      break;
24106e68:	e090      	b.n	24106f8c <RCCEx_GetFMCCLKFreq+0x164>
      fmc_frequency = RCCEx_GetCLKPCLKFreq(LL_RCC_CLKP_CLKSOURCE);
24106e6a:	2007      	movs	r0, #7
24106e6c:	f7ff fbcc 	bl	24106608 <RCCEx_GetCLKPCLKFreq>
24106e70:	60f8      	str	r0, [r7, #12]
      break;
24106e72:	e08b      	b.n	24106f8c <RCCEx_GetFMCCLKFreq+0x164>
      if (LL_RCC_IC3_IsEnabled() != 0U)
24106e74:	f7fb fc30 	bl	241026d8 <LL_RCC_IC3_IsEnabled>
24106e78:	4603      	mov	r3, r0
24106e7a:	2b00      	cmp	r3, #0
24106e7c:	f000 8083 	beq.w	24106f86 <RCCEx_GetFMCCLKFreq+0x15e>
        ic_divider = LL_RCC_IC3_GetDivider();
24106e80:	f7fb fc4c 	bl	2410271c <LL_RCC_IC3_GetDivider>
24106e84:	60b8      	str	r0, [r7, #8]
        switch (LL_RCC_IC3_GetSource())
24106e86:	f7fb fc3b 	bl	24102700 <LL_RCC_IC3_GetSource>
24106e8a:	4603      	mov	r3, r0
24106e8c:	f1b3 5f40 	cmp.w	r3, #805306368	@ 0x30000000
24106e90:	d029      	beq.n	24106ee6 <RCCEx_GetFMCCLKFreq+0xbe>
24106e92:	f1b3 5f40 	cmp.w	r3, #805306368	@ 0x30000000
24106e96:	d82f      	bhi.n	24106ef8 <RCCEx_GetFMCCLKFreq+0xd0>
24106e98:	f1b3 5f00 	cmp.w	r3, #536870912	@ 0x20000000
24106e9c:	d01a      	beq.n	24106ed4 <RCCEx_GetFMCCLKFreq+0xac>
24106e9e:	f1b3 5f00 	cmp.w	r3, #536870912	@ 0x20000000
24106ea2:	d829      	bhi.n	24106ef8 <RCCEx_GetFMCCLKFreq+0xd0>
24106ea4:	2b00      	cmp	r3, #0
24106ea6:	d003      	beq.n	24106eb0 <RCCEx_GetFMCCLKFreq+0x88>
24106ea8:	f1b3 5f80 	cmp.w	r3, #268435456	@ 0x10000000
24106eac:	d009      	beq.n	24106ec2 <RCCEx_GetFMCCLKFreq+0x9a>
            break;
24106eae:	e023      	b.n	24106ef8 <RCCEx_GetFMCCLKFreq+0xd0>
            fmc_frequency = HAL_RCCEx_GetPLL1CLKFreq();
24106eb0:	f7fe ffa6 	bl	24105e00 <HAL_RCCEx_GetPLL1CLKFreq>
24106eb4:	60f8      	str	r0, [r7, #12]
            fmc_frequency = fmc_frequency / ic_divider;
24106eb6:	68fa      	ldr	r2, [r7, #12]
24106eb8:	68bb      	ldr	r3, [r7, #8]
24106eba:	fbb2 f3f3 	udiv	r3, r2, r3
24106ebe:	60fb      	str	r3, [r7, #12]
            break;
24106ec0:	e01b      	b.n	24106efa <RCCEx_GetFMCCLKFreq+0xd2>
            fmc_frequency = HAL_RCCEx_GetPLL2CLKFreq();
24106ec2:	f7fe ffe3 	bl	24105e8c <HAL_RCCEx_GetPLL2CLKFreq>
24106ec6:	60f8      	str	r0, [r7, #12]
            fmc_frequency = fmc_frequency / ic_divider;
24106ec8:	68fa      	ldr	r2, [r7, #12]
24106eca:	68bb      	ldr	r3, [r7, #8]
24106ecc:	fbb2 f3f3 	udiv	r3, r2, r3
24106ed0:	60fb      	str	r3, [r7, #12]
            break;
24106ed2:	e012      	b.n	24106efa <RCCEx_GetFMCCLKFreq+0xd2>
            fmc_frequency = HAL_RCCEx_GetPLL3CLKFreq();
24106ed4:	f7ff f820 	bl	24105f18 <HAL_RCCEx_GetPLL3CLKFreq>
24106ed8:	60f8      	str	r0, [r7, #12]
            fmc_frequency = fmc_frequency / ic_divider;
24106eda:	68fa      	ldr	r2, [r7, #12]
24106edc:	68bb      	ldr	r3, [r7, #8]
24106ede:	fbb2 f3f3 	udiv	r3, r2, r3
24106ee2:	60fb      	str	r3, [r7, #12]
            break;
24106ee4:	e009      	b.n	24106efa <RCCEx_GetFMCCLKFreq+0xd2>
            fmc_frequency = HAL_RCCEx_GetPLL4CLKFreq();
24106ee6:	f7ff f85d 	bl	24105fa4 <HAL_RCCEx_GetPLL4CLKFreq>
24106eea:	60f8      	str	r0, [r7, #12]
            fmc_frequency = fmc_frequency / ic_divider;
24106eec:	68fa      	ldr	r2, [r7, #12]
24106eee:	68bb      	ldr	r3, [r7, #8]
24106ef0:	fbb2 f3f3 	udiv	r3, r2, r3
24106ef4:	60fb      	str	r3, [r7, #12]
            break;
24106ef6:	e000      	b.n	24106efa <RCCEx_GetFMCCLKFreq+0xd2>
            break;
24106ef8:	bf00      	nop
      break;
24106efa:	e044      	b.n	24106f86 <RCCEx_GetFMCCLKFreq+0x15e>
      if (LL_RCC_IC4_IsEnabled() != 0U)
24106efc:	f7fb fc2c 	bl	24102758 <LL_RCC_IC4_IsEnabled>
24106f00:	4603      	mov	r3, r0
24106f02:	2b00      	cmp	r3, #0
24106f04:	d041      	beq.n	24106f8a <RCCEx_GetFMCCLKFreq+0x162>
        ic_divider = LL_RCC_IC4_GetDivider();
24106f06:	f7fb fc49 	bl	2410279c <LL_RCC_IC4_GetDivider>
24106f0a:	60b8      	str	r0, [r7, #8]
        switch (LL_RCC_IC4_GetSource())
24106f0c:	f7fb fc38 	bl	24102780 <LL_RCC_IC4_GetSource>
24106f10:	4603      	mov	r3, r0
24106f12:	f1b3 5f40 	cmp.w	r3, #805306368	@ 0x30000000
24106f16:	d029      	beq.n	24106f6c <RCCEx_GetFMCCLKFreq+0x144>
24106f18:	f1b3 5f40 	cmp.w	r3, #805306368	@ 0x30000000
24106f1c:	d82f      	bhi.n	24106f7e <RCCEx_GetFMCCLKFreq+0x156>
24106f1e:	f1b3 5f00 	cmp.w	r3, #536870912	@ 0x20000000
24106f22:	d01a      	beq.n	24106f5a <RCCEx_GetFMCCLKFreq+0x132>
24106f24:	f1b3 5f00 	cmp.w	r3, #536870912	@ 0x20000000
24106f28:	d829      	bhi.n	24106f7e <RCCEx_GetFMCCLKFreq+0x156>
24106f2a:	2b00      	cmp	r3, #0
24106f2c:	d003      	beq.n	24106f36 <RCCEx_GetFMCCLKFreq+0x10e>
24106f2e:	f1b3 5f80 	cmp.w	r3, #268435456	@ 0x10000000
24106f32:	d009      	beq.n	24106f48 <RCCEx_GetFMCCLKFreq+0x120>
            break;
24106f34:	e023      	b.n	24106f7e <RCCEx_GetFMCCLKFreq+0x156>
            fmc_frequency = HAL_RCCEx_GetPLL1CLKFreq();
24106f36:	f7fe ff63 	bl	24105e00 <HAL_RCCEx_GetPLL1CLKFreq>
24106f3a:	60f8      	str	r0, [r7, #12]
            fmc_frequency = fmc_frequency / ic_divider;
24106f3c:	68fa      	ldr	r2, [r7, #12]
24106f3e:	68bb      	ldr	r3, [r7, #8]
24106f40:	fbb2 f3f3 	udiv	r3, r2, r3
24106f44:	60fb      	str	r3, [r7, #12]
            break;
24106f46:	e01b      	b.n	24106f80 <RCCEx_GetFMCCLKFreq+0x158>
            fmc_frequency = HAL_RCCEx_GetPLL2CLKFreq();
24106f48:	f7fe ffa0 	bl	24105e8c <HAL_RCCEx_GetPLL2CLKFreq>
24106f4c:	60f8      	str	r0, [r7, #12]
            fmc_frequency = fmc_frequency / ic_divider;
24106f4e:	68fa      	ldr	r2, [r7, #12]
24106f50:	68bb      	ldr	r3, [r7, #8]
24106f52:	fbb2 f3f3 	udiv	r3, r2, r3
24106f56:	60fb      	str	r3, [r7, #12]
            break;
24106f58:	e012      	b.n	24106f80 <RCCEx_GetFMCCLKFreq+0x158>
            fmc_frequency = HAL_RCCEx_GetPLL3CLKFreq();
24106f5a:	f7fe ffdd 	bl	24105f18 <HAL_RCCEx_GetPLL3CLKFreq>
24106f5e:	60f8      	str	r0, [r7, #12]
            fmc_frequency = fmc_frequency / ic_divider;
24106f60:	68fa      	ldr	r2, [r7, #12]
24106f62:	68bb      	ldr	r3, [r7, #8]
24106f64:	fbb2 f3f3 	udiv	r3, r2, r3
24106f68:	60fb      	str	r3, [r7, #12]
            break;
24106f6a:	e009      	b.n	24106f80 <RCCEx_GetFMCCLKFreq+0x158>
            fmc_frequency = HAL_RCCEx_GetPLL4CLKFreq();
24106f6c:	f7ff f81a 	bl	24105fa4 <HAL_RCCEx_GetPLL4CLKFreq>
24106f70:	60f8      	str	r0, [r7, #12]
            fmc_frequency = fmc_frequency / ic_divider;
24106f72:	68fa      	ldr	r2, [r7, #12]
24106f74:	68bb      	ldr	r3, [r7, #8]
24106f76:	fbb2 f3f3 	udiv	r3, r2, r3
24106f7a:	60fb      	str	r3, [r7, #12]
            break;
24106f7c:	e000      	b.n	24106f80 <RCCEx_GetFMCCLKFreq+0x158>
            break;
24106f7e:	bf00      	nop
      break;
24106f80:	e003      	b.n	24106f8a <RCCEx_GetFMCCLKFreq+0x162>
      break;
24106f82:	bf00      	nop
24106f84:	e002      	b.n	24106f8c <RCCEx_GetFMCCLKFreq+0x164>
      break;
24106f86:	bf00      	nop
24106f88:	e000      	b.n	24106f8c <RCCEx_GetFMCCLKFreq+0x164>
      break;
24106f8a:	bf00      	nop
  }

  return fmc_frequency;
24106f8c:	68fb      	ldr	r3, [r7, #12]
}
24106f8e:	4618      	mov	r0, r3
24106f90:	3710      	adds	r7, #16
24106f92:	46bd      	mov	sp, r7
24106f94:	bd80      	pop	{r7, pc}
	...

24106f98 <RCCEx_GetI2CCLKFreq>:
  *         @arg @ref RCCEx_I2C4_Clock_Source
  * @retval I2C clock frequency (in Hz)
  *         - @ref  RCC_PERIPH_FREQUENCY_NO indicates that oscillator is not ready
  */
static uint32_t RCCEx_GetI2CCLKFreq(uint32_t I2CxSource)
{
24106f98:	b580      	push	{r7, lr}
24106f9a:	b084      	sub	sp, #16
24106f9c:	af00      	add	r7, sp, #0
24106f9e:	6078      	str	r0, [r7, #4]
  uint32_t i2c_frequency = RCC_PERIPH_FREQUENCY_NO;
24106fa0:	2300      	movs	r3, #0
24106fa2:	60fb      	str	r3, [r7, #12]
  uint32_t ic_divider;

  switch (LL_RCC_GetI2CClockSource(I2CxSource))
24106fa4:	6878      	ldr	r0, [r7, #4]
24106fa6:	f7fa fff9 	bl	24101f9c <LL_RCC_GetI2CClockSource>
24106faa:	4603      	mov	r3, r0
24106fac:	4aa2      	ldr	r2, [pc, #648]	@ (24107238 <RCCEx_GetI2CCLKFreq+0x2a0>)
24106fae:	4293      	cmp	r3, r2
24106fb0:	f000 8172 	beq.w	24107298 <RCCEx_GetI2CCLKFreq+0x300>
24106fb4:	4aa0      	ldr	r2, [pc, #640]	@ (24107238 <RCCEx_GetI2CCLKFreq+0x2a0>)
24106fb6:	4293      	cmp	r3, r2
24106fb8:	f200 8184 	bhi.w	241072c4 <RCCEx_GetI2CCLKFreq+0x32c>
24106fbc:	4a9f      	ldr	r2, [pc, #636]	@ (2410723c <RCCEx_GetI2CCLKFreq+0x2a4>)
24106fbe:	4293      	cmp	r3, r2
24106fc0:	f000 816a 	beq.w	24107298 <RCCEx_GetI2CCLKFreq+0x300>
24106fc4:	4a9d      	ldr	r2, [pc, #628]	@ (2410723c <RCCEx_GetI2CCLKFreq+0x2a4>)
24106fc6:	4293      	cmp	r3, r2
24106fc8:	f200 817c 	bhi.w	241072c4 <RCCEx_GetI2CCLKFreq+0x32c>
24106fcc:	4a9c      	ldr	r2, [pc, #624]	@ (24107240 <RCCEx_GetI2CCLKFreq+0x2a8>)
24106fce:	4293      	cmp	r3, r2
24106fd0:	f000 8162 	beq.w	24107298 <RCCEx_GetI2CCLKFreq+0x300>
24106fd4:	4a9a      	ldr	r2, [pc, #616]	@ (24107240 <RCCEx_GetI2CCLKFreq+0x2a8>)
24106fd6:	4293      	cmp	r3, r2
24106fd8:	f200 8174 	bhi.w	241072c4 <RCCEx_GetI2CCLKFreq+0x32c>
24106fdc:	4a99      	ldr	r2, [pc, #612]	@ (24107244 <RCCEx_GetI2CCLKFreq+0x2ac>)
24106fde:	4293      	cmp	r3, r2
24106fe0:	f000 815a 	beq.w	24107298 <RCCEx_GetI2CCLKFreq+0x300>
24106fe4:	4a97      	ldr	r2, [pc, #604]	@ (24107244 <RCCEx_GetI2CCLKFreq+0x2ac>)
24106fe6:	4293      	cmp	r3, r2
24106fe8:	f200 816c 	bhi.w	241072c4 <RCCEx_GetI2CCLKFreq+0x32c>
24106fec:	4a96      	ldr	r2, [pc, #600]	@ (24107248 <RCCEx_GetI2CCLKFreq+0x2b0>)
24106fee:	4293      	cmp	r3, r2
24106ff0:	f000 8160 	beq.w	241072b4 <RCCEx_GetI2CCLKFreq+0x31c>
24106ff4:	4a94      	ldr	r2, [pc, #592]	@ (24107248 <RCCEx_GetI2CCLKFreq+0x2b0>)
24106ff6:	4293      	cmp	r3, r2
24106ff8:	f200 8164 	bhi.w	241072c4 <RCCEx_GetI2CCLKFreq+0x32c>
24106ffc:	4a93      	ldr	r2, [pc, #588]	@ (2410724c <RCCEx_GetI2CCLKFreq+0x2b4>)
24106ffe:	4293      	cmp	r3, r2
24107000:	f000 8158 	beq.w	241072b4 <RCCEx_GetI2CCLKFreq+0x31c>
24107004:	4a91      	ldr	r2, [pc, #580]	@ (2410724c <RCCEx_GetI2CCLKFreq+0x2b4>)
24107006:	4293      	cmp	r3, r2
24107008:	f200 815c 	bhi.w	241072c4 <RCCEx_GetI2CCLKFreq+0x32c>
2410700c:	4a90      	ldr	r2, [pc, #576]	@ (24107250 <RCCEx_GetI2CCLKFreq+0x2b8>)
2410700e:	4293      	cmp	r3, r2
24107010:	f000 8150 	beq.w	241072b4 <RCCEx_GetI2CCLKFreq+0x31c>
24107014:	4a8e      	ldr	r2, [pc, #568]	@ (24107250 <RCCEx_GetI2CCLKFreq+0x2b8>)
24107016:	4293      	cmp	r3, r2
24107018:	f200 8154 	bhi.w	241072c4 <RCCEx_GetI2CCLKFreq+0x32c>
2410701c:	4a8d      	ldr	r2, [pc, #564]	@ (24107254 <RCCEx_GetI2CCLKFreq+0x2bc>)
2410701e:	4293      	cmp	r3, r2
24107020:	f000 8148 	beq.w	241072b4 <RCCEx_GetI2CCLKFreq+0x31c>
24107024:	4a8b      	ldr	r2, [pc, #556]	@ (24107254 <RCCEx_GetI2CCLKFreq+0x2bc>)
24107026:	4293      	cmp	r3, r2
24107028:	f200 814c 	bhi.w	241072c4 <RCCEx_GetI2CCLKFreq+0x32c>
2410702c:	4a8a      	ldr	r2, [pc, #552]	@ (24107258 <RCCEx_GetI2CCLKFreq+0x2c0>)
2410702e:	4293      	cmp	r3, r2
24107030:	f000 80be 	beq.w	241071b0 <RCCEx_GetI2CCLKFreq+0x218>
24107034:	4a88      	ldr	r2, [pc, #544]	@ (24107258 <RCCEx_GetI2CCLKFreq+0x2c0>)
24107036:	4293      	cmp	r3, r2
24107038:	f200 8144 	bhi.w	241072c4 <RCCEx_GetI2CCLKFreq+0x32c>
2410703c:	4a87      	ldr	r2, [pc, #540]	@ (2410725c <RCCEx_GetI2CCLKFreq+0x2c4>)
2410703e:	4293      	cmp	r3, r2
24107040:	f000 80b6 	beq.w	241071b0 <RCCEx_GetI2CCLKFreq+0x218>
24107044:	4a85      	ldr	r2, [pc, #532]	@ (2410725c <RCCEx_GetI2CCLKFreq+0x2c4>)
24107046:	4293      	cmp	r3, r2
24107048:	f200 813c 	bhi.w	241072c4 <RCCEx_GetI2CCLKFreq+0x32c>
2410704c:	4a84      	ldr	r2, [pc, #528]	@ (24107260 <RCCEx_GetI2CCLKFreq+0x2c8>)
2410704e:	4293      	cmp	r3, r2
24107050:	f000 80ae 	beq.w	241071b0 <RCCEx_GetI2CCLKFreq+0x218>
24107054:	4a82      	ldr	r2, [pc, #520]	@ (24107260 <RCCEx_GetI2CCLKFreq+0x2c8>)
24107056:	4293      	cmp	r3, r2
24107058:	f200 8134 	bhi.w	241072c4 <RCCEx_GetI2CCLKFreq+0x32c>
2410705c:	4a81      	ldr	r2, [pc, #516]	@ (24107264 <RCCEx_GetI2CCLKFreq+0x2cc>)
2410705e:	4293      	cmp	r3, r2
24107060:	f000 80a6 	beq.w	241071b0 <RCCEx_GetI2CCLKFreq+0x218>
24107064:	4a7f      	ldr	r2, [pc, #508]	@ (24107264 <RCCEx_GetI2CCLKFreq+0x2cc>)
24107066:	4293      	cmp	r3, r2
24107068:	f200 812c 	bhi.w	241072c4 <RCCEx_GetI2CCLKFreq+0x32c>
2410706c:	4a7e      	ldr	r2, [pc, #504]	@ (24107268 <RCCEx_GetI2CCLKFreq+0x2d0>)
2410706e:	4293      	cmp	r3, r2
24107070:	d05a      	beq.n	24107128 <RCCEx_GetI2CCLKFreq+0x190>
24107072:	4a7d      	ldr	r2, [pc, #500]	@ (24107268 <RCCEx_GetI2CCLKFreq+0x2d0>)
24107074:	4293      	cmp	r3, r2
24107076:	f200 8125 	bhi.w	241072c4 <RCCEx_GetI2CCLKFreq+0x32c>
2410707a:	4a7c      	ldr	r2, [pc, #496]	@ (2410726c <RCCEx_GetI2CCLKFreq+0x2d4>)
2410707c:	4293      	cmp	r3, r2
2410707e:	d053      	beq.n	24107128 <RCCEx_GetI2CCLKFreq+0x190>
24107080:	4a7a      	ldr	r2, [pc, #488]	@ (2410726c <RCCEx_GetI2CCLKFreq+0x2d4>)
24107082:	4293      	cmp	r3, r2
24107084:	f200 811e 	bhi.w	241072c4 <RCCEx_GetI2CCLKFreq+0x32c>
24107088:	4a79      	ldr	r2, [pc, #484]	@ (24107270 <RCCEx_GetI2CCLKFreq+0x2d8>)
2410708a:	4293      	cmp	r3, r2
2410708c:	d04c      	beq.n	24107128 <RCCEx_GetI2CCLKFreq+0x190>
2410708e:	4a78      	ldr	r2, [pc, #480]	@ (24107270 <RCCEx_GetI2CCLKFreq+0x2d8>)
24107090:	4293      	cmp	r3, r2
24107092:	f200 8117 	bhi.w	241072c4 <RCCEx_GetI2CCLKFreq+0x32c>
24107096:	4a77      	ldr	r2, [pc, #476]	@ (24107274 <RCCEx_GetI2CCLKFreq+0x2dc>)
24107098:	4293      	cmp	r3, r2
2410709a:	d045      	beq.n	24107128 <RCCEx_GetI2CCLKFreq+0x190>
2410709c:	4a75      	ldr	r2, [pc, #468]	@ (24107274 <RCCEx_GetI2CCLKFreq+0x2dc>)
2410709e:	4293      	cmp	r3, r2
241070a0:	f200 8110 	bhi.w	241072c4 <RCCEx_GetI2CCLKFreq+0x32c>
241070a4:	4a74      	ldr	r2, [pc, #464]	@ (24107278 <RCCEx_GetI2CCLKFreq+0x2e0>)
241070a6:	4293      	cmp	r3, r2
241070a8:	d039      	beq.n	2410711e <RCCEx_GetI2CCLKFreq+0x186>
241070aa:	4a73      	ldr	r2, [pc, #460]	@ (24107278 <RCCEx_GetI2CCLKFreq+0x2e0>)
241070ac:	4293      	cmp	r3, r2
241070ae:	f200 8109 	bhi.w	241072c4 <RCCEx_GetI2CCLKFreq+0x32c>
241070b2:	4a72      	ldr	r2, [pc, #456]	@ (2410727c <RCCEx_GetI2CCLKFreq+0x2e4>)
241070b4:	4293      	cmp	r3, r2
241070b6:	d032      	beq.n	2410711e <RCCEx_GetI2CCLKFreq+0x186>
241070b8:	4a70      	ldr	r2, [pc, #448]	@ (2410727c <RCCEx_GetI2CCLKFreq+0x2e4>)
241070ba:	4293      	cmp	r3, r2
241070bc:	f200 8102 	bhi.w	241072c4 <RCCEx_GetI2CCLKFreq+0x32c>
241070c0:	4a6f      	ldr	r2, [pc, #444]	@ (24107280 <RCCEx_GetI2CCLKFreq+0x2e8>)
241070c2:	4293      	cmp	r3, r2
241070c4:	d02b      	beq.n	2410711e <RCCEx_GetI2CCLKFreq+0x186>
241070c6:	4a6e      	ldr	r2, [pc, #440]	@ (24107280 <RCCEx_GetI2CCLKFreq+0x2e8>)
241070c8:	4293      	cmp	r3, r2
241070ca:	f200 80fb 	bhi.w	241072c4 <RCCEx_GetI2CCLKFreq+0x32c>
241070ce:	4a6d      	ldr	r2, [pc, #436]	@ (24107284 <RCCEx_GetI2CCLKFreq+0x2ec>)
241070d0:	4293      	cmp	r3, r2
241070d2:	d024      	beq.n	2410711e <RCCEx_GetI2CCLKFreq+0x186>
241070d4:	4a6b      	ldr	r2, [pc, #428]	@ (24107284 <RCCEx_GetI2CCLKFreq+0x2ec>)
241070d6:	4293      	cmp	r3, r2
241070d8:	f200 80f4 	bhi.w	241072c4 <RCCEx_GetI2CCLKFreq+0x32c>
241070dc:	4a6a      	ldr	r2, [pc, #424]	@ (24107288 <RCCEx_GetI2CCLKFreq+0x2f0>)
241070de:	4293      	cmp	r3, r2
241070e0:	d011      	beq.n	24107106 <RCCEx_GetI2CCLKFreq+0x16e>
241070e2:	4a69      	ldr	r2, [pc, #420]	@ (24107288 <RCCEx_GetI2CCLKFreq+0x2f0>)
241070e4:	4293      	cmp	r3, r2
241070e6:	f200 80ed 	bhi.w	241072c4 <RCCEx_GetI2CCLKFreq+0x32c>
241070ea:	4a68      	ldr	r2, [pc, #416]	@ (2410728c <RCCEx_GetI2CCLKFreq+0x2f4>)
241070ec:	4293      	cmp	r3, r2
241070ee:	d00a      	beq.n	24107106 <RCCEx_GetI2CCLKFreq+0x16e>
241070f0:	4a66      	ldr	r2, [pc, #408]	@ (2410728c <RCCEx_GetI2CCLKFreq+0x2f4>)
241070f2:	4293      	cmp	r3, r2
241070f4:	f200 80e6 	bhi.w	241072c4 <RCCEx_GetI2CCLKFreq+0x32c>
241070f8:	4a65      	ldr	r2, [pc, #404]	@ (24107290 <RCCEx_GetI2CCLKFreq+0x2f8>)
241070fa:	4293      	cmp	r3, r2
241070fc:	d003      	beq.n	24107106 <RCCEx_GetI2CCLKFreq+0x16e>
241070fe:	4a65      	ldr	r2, [pc, #404]	@ (24107294 <RCCEx_GetI2CCLKFreq+0x2fc>)
24107100:	4293      	cmp	r3, r2
24107102:	f040 80df 	bne.w	241072c4 <RCCEx_GetI2CCLKFreq+0x32c>
  {
    case LL_RCC_I2C1_CLKSOURCE_PCLK1:
    case LL_RCC_I2C2_CLKSOURCE_PCLK1:
    case LL_RCC_I2C3_CLKSOURCE_PCLK1:
    case LL_RCC_I2C4_CLKSOURCE_PCLK1:
      i2c_frequency = RCCEx_GetPCLK1Freq(RCCEx_GetHCLKFreq(HAL_RCC_GetSysClockFreq()));
24107106:	f7fa fb2d 	bl	24101764 <HAL_RCC_GetSysClockFreq>
2410710a:	4603      	mov	r3, r0
2410710c:	4618      	mov	r0, r3
2410710e:	f7fe ff8f 	bl	24106030 <RCCEx_GetHCLKFreq>
24107112:	4603      	mov	r3, r0
24107114:	4618      	mov	r0, r3
24107116:	f7fe ff9c 	bl	24106052 <RCCEx_GetPCLK1Freq>
2410711a:	60f8      	str	r0, [r7, #12]
      break;
2410711c:	e0db      	b.n	241072d6 <RCCEx_GetI2CCLKFreq+0x33e>

    case LL_RCC_I2C1_CLKSOURCE_CLKP:
    case LL_RCC_I2C2_CLKSOURCE_CLKP:
    case LL_RCC_I2C3_CLKSOURCE_CLKP:
    case LL_RCC_I2C4_CLKSOURCE_CLKP:
      i2c_frequency = RCCEx_GetCLKPCLKFreq(LL_RCC_CLKP_CLKSOURCE);
2410711e:	2007      	movs	r0, #7
24107120:	f7ff fa72 	bl	24106608 <RCCEx_GetCLKPCLKFreq>
24107124:	60f8      	str	r0, [r7, #12]
      break;
24107126:	e0d6      	b.n	241072d6 <RCCEx_GetI2CCLKFreq+0x33e>

    case LL_RCC_I2C1_CLKSOURCE_IC10:
    case LL_RCC_I2C2_CLKSOURCE_IC10:
    case LL_RCC_I2C3_CLKSOURCE_IC10:
    case LL_RCC_I2C4_CLKSOURCE_IC10:
      if (LL_RCC_IC10_IsEnabled() != 0U)
24107128:	f7fb fc56 	bl	241029d8 <LL_RCC_IC10_IsEnabled>
2410712c:	4603      	mov	r3, r0
2410712e:	2b00      	cmp	r3, #0
24107130:	f000 80ca 	beq.w	241072c8 <RCCEx_GetI2CCLKFreq+0x330>
      {
        ic_divider = LL_RCC_IC10_GetDivider();
24107134:	f7fb fc72 	bl	24102a1c <LL_RCC_IC10_GetDivider>
24107138:	60b8      	str	r0, [r7, #8]
        switch (LL_RCC_IC10_GetSource())
2410713a:	f7fb fc61 	bl	24102a00 <LL_RCC_IC10_GetSource>
2410713e:	4603      	mov	r3, r0
24107140:	f1b3 5f40 	cmp.w	r3, #805306368	@ 0x30000000
24107144:	d029      	beq.n	2410719a <RCCEx_GetI2CCLKFreq+0x202>
24107146:	f1b3 5f40 	cmp.w	r3, #805306368	@ 0x30000000
2410714a:	d82f      	bhi.n	241071ac <RCCEx_GetI2CCLKFreq+0x214>
2410714c:	f1b3 5f00 	cmp.w	r3, #536870912	@ 0x20000000
24107150:	d01a      	beq.n	24107188 <RCCEx_GetI2CCLKFreq+0x1f0>
24107152:	f1b3 5f00 	cmp.w	r3, #536870912	@ 0x20000000
24107156:	d829      	bhi.n	241071ac <RCCEx_GetI2CCLKFreq+0x214>
24107158:	2b00      	cmp	r3, #0
2410715a:	d003      	beq.n	24107164 <RCCEx_GetI2CCLKFreq+0x1cc>
2410715c:	f1b3 5f80 	cmp.w	r3, #268435456	@ 0x10000000
24107160:	d009      	beq.n	24107176 <RCCEx_GetI2CCLKFreq+0x1de>
            i2c_frequency = HAL_RCCEx_GetPLL4CLKFreq();
            i2c_frequency = i2c_frequency / ic_divider;
            break;
          default:
            /* Unexpected case */
            break;
24107162:	e023      	b.n	241071ac <RCCEx_GetI2CCLKFreq+0x214>
            i2c_frequency = HAL_RCCEx_GetPLL1CLKFreq();
24107164:	f7fe fe4c 	bl	24105e00 <HAL_RCCEx_GetPLL1CLKFreq>
24107168:	60f8      	str	r0, [r7, #12]
            i2c_frequency = i2c_frequency / ic_divider;
2410716a:	68fa      	ldr	r2, [r7, #12]
2410716c:	68bb      	ldr	r3, [r7, #8]
2410716e:	fbb2 f3f3 	udiv	r3, r2, r3
24107172:	60fb      	str	r3, [r7, #12]
            break;
24107174:	e01b      	b.n	241071ae <RCCEx_GetI2CCLKFreq+0x216>
            i2c_frequency = HAL_RCCEx_GetPLL2CLKFreq();
24107176:	f7fe fe89 	bl	24105e8c <HAL_RCCEx_GetPLL2CLKFreq>
2410717a:	60f8      	str	r0, [r7, #12]
            i2c_frequency = i2c_frequency / ic_divider;
2410717c:	68fa      	ldr	r2, [r7, #12]
2410717e:	68bb      	ldr	r3, [r7, #8]
24107180:	fbb2 f3f3 	udiv	r3, r2, r3
24107184:	60fb      	str	r3, [r7, #12]
            break;
24107186:	e012      	b.n	241071ae <RCCEx_GetI2CCLKFreq+0x216>
            i2c_frequency = HAL_RCCEx_GetPLL3CLKFreq();
24107188:	f7fe fec6 	bl	24105f18 <HAL_RCCEx_GetPLL3CLKFreq>
2410718c:	60f8      	str	r0, [r7, #12]
            i2c_frequency = i2c_frequency / ic_divider;
2410718e:	68fa      	ldr	r2, [r7, #12]
24107190:	68bb      	ldr	r3, [r7, #8]
24107192:	fbb2 f3f3 	udiv	r3, r2, r3
24107196:	60fb      	str	r3, [r7, #12]
            break;
24107198:	e009      	b.n	241071ae <RCCEx_GetI2CCLKFreq+0x216>
            i2c_frequency = HAL_RCCEx_GetPLL4CLKFreq();
2410719a:	f7fe ff03 	bl	24105fa4 <HAL_RCCEx_GetPLL4CLKFreq>
2410719e:	60f8      	str	r0, [r7, #12]
            i2c_frequency = i2c_frequency / ic_divider;
241071a0:	68fa      	ldr	r2, [r7, #12]
241071a2:	68bb      	ldr	r3, [r7, #8]
241071a4:	fbb2 f3f3 	udiv	r3, r2, r3
241071a8:	60fb      	str	r3, [r7, #12]
            break;
241071aa:	e000      	b.n	241071ae <RCCEx_GetI2CCLKFreq+0x216>
            break;
241071ac:	bf00      	nop
        }
      }
      break;
241071ae:	e08b      	b.n	241072c8 <RCCEx_GetI2CCLKFreq+0x330>

    case LL_RCC_I2C1_CLKSOURCE_IC15:
    case LL_RCC_I2C2_CLKSOURCE_IC15:
    case LL_RCC_I2C3_CLKSOURCE_IC15:
    case LL_RCC_I2C4_CLKSOURCE_IC15:
      if (LL_RCC_IC15_IsEnabled() != 0U)
241071b0:	f7fb fd12 	bl	24102bd8 <LL_RCC_IC15_IsEnabled>
241071b4:	4603      	mov	r3, r0
241071b6:	2b00      	cmp	r3, #0
241071b8:	f000 8088 	beq.w	241072cc <RCCEx_GetI2CCLKFreq+0x334>
      {
        ic_divider = LL_RCC_IC15_GetDivider();
241071bc:	f7fb fd2e 	bl	24102c1c <LL_RCC_IC15_GetDivider>
241071c0:	60b8      	str	r0, [r7, #8]
        switch (LL_RCC_IC15_GetSource())
241071c2:	f7fb fd1d 	bl	24102c00 <LL_RCC_IC15_GetSource>
241071c6:	4603      	mov	r3, r0
241071c8:	f1b3 5f40 	cmp.w	r3, #805306368	@ 0x30000000
241071cc:	d029      	beq.n	24107222 <RCCEx_GetI2CCLKFreq+0x28a>
241071ce:	f1b3 5f40 	cmp.w	r3, #805306368	@ 0x30000000
241071d2:	d82f      	bhi.n	24107234 <RCCEx_GetI2CCLKFreq+0x29c>
241071d4:	f1b3 5f00 	cmp.w	r3, #536870912	@ 0x20000000
241071d8:	d01a      	beq.n	24107210 <RCCEx_GetI2CCLKFreq+0x278>
241071da:	f1b3 5f00 	cmp.w	r3, #536870912	@ 0x20000000
241071de:	d829      	bhi.n	24107234 <RCCEx_GetI2CCLKFreq+0x29c>
241071e0:	2b00      	cmp	r3, #0
241071e2:	d003      	beq.n	241071ec <RCCEx_GetI2CCLKFreq+0x254>
241071e4:	f1b3 5f80 	cmp.w	r3, #268435456	@ 0x10000000
241071e8:	d009      	beq.n	241071fe <RCCEx_GetI2CCLKFreq+0x266>
            i2c_frequency = HAL_RCCEx_GetPLL4CLKFreq();
            i2c_frequency = i2c_frequency / ic_divider;
            break;
          default:
            /* Unexpected case */
            break;
241071ea:	e023      	b.n	24107234 <RCCEx_GetI2CCLKFreq+0x29c>
            i2c_frequency = HAL_RCCEx_GetPLL1CLKFreq();
241071ec:	f7fe fe08 	bl	24105e00 <HAL_RCCEx_GetPLL1CLKFreq>
241071f0:	60f8      	str	r0, [r7, #12]
            i2c_frequency = i2c_frequency / ic_divider;
241071f2:	68fa      	ldr	r2, [r7, #12]
241071f4:	68bb      	ldr	r3, [r7, #8]
241071f6:	fbb2 f3f3 	udiv	r3, r2, r3
241071fa:	60fb      	str	r3, [r7, #12]
            break;
241071fc:	e01b      	b.n	24107236 <RCCEx_GetI2CCLKFreq+0x29e>
            i2c_frequency = HAL_RCCEx_GetPLL2CLKFreq();
241071fe:	f7fe fe45 	bl	24105e8c <HAL_RCCEx_GetPLL2CLKFreq>
24107202:	60f8      	str	r0, [r7, #12]
            i2c_frequency = i2c_frequency / ic_divider;
24107204:	68fa      	ldr	r2, [r7, #12]
24107206:	68bb      	ldr	r3, [r7, #8]
24107208:	fbb2 f3f3 	udiv	r3, r2, r3
2410720c:	60fb      	str	r3, [r7, #12]
            break;
2410720e:	e012      	b.n	24107236 <RCCEx_GetI2CCLKFreq+0x29e>
            i2c_frequency = HAL_RCCEx_GetPLL3CLKFreq();
24107210:	f7fe fe82 	bl	24105f18 <HAL_RCCEx_GetPLL3CLKFreq>
24107214:	60f8      	str	r0, [r7, #12]
            i2c_frequency = i2c_frequency / ic_divider;
24107216:	68fa      	ldr	r2, [r7, #12]
24107218:	68bb      	ldr	r3, [r7, #8]
2410721a:	fbb2 f3f3 	udiv	r3, r2, r3
2410721e:	60fb      	str	r3, [r7, #12]
            break;
24107220:	e009      	b.n	24107236 <RCCEx_GetI2CCLKFreq+0x29e>
            i2c_frequency = HAL_RCCEx_GetPLL4CLKFreq();
24107222:	f7fe febf 	bl	24105fa4 <HAL_RCCEx_GetPLL4CLKFreq>
24107226:	60f8      	str	r0, [r7, #12]
            i2c_frequency = i2c_frequency / ic_divider;
24107228:	68fa      	ldr	r2, [r7, #12]
2410722a:	68bb      	ldr	r3, [r7, #8]
2410722c:	fbb2 f3f3 	udiv	r3, r2, r3
24107230:	60fb      	str	r3, [r7, #12]
            break;
24107232:	e000      	b.n	24107236 <RCCEx_GetI2CCLKFreq+0x29e>
            break;
24107234:	bf00      	nop
        }
      }
      break;
24107236:	e049      	b.n	241072cc <RCCEx_GetI2CCLKFreq+0x334>
24107238:	07050c0c 	.word	0x07050c0c
2410723c:	0705080c 	.word	0x0705080c
24107240:	0705040c 	.word	0x0705040c
24107244:	0705000c 	.word	0x0705000c
24107248:	07040c0c 	.word	0x07040c0c
2410724c:	0704080c 	.word	0x0704080c
24107250:	0704040c 	.word	0x0704040c
24107254:	0704000c 	.word	0x0704000c
24107258:	07030c0c 	.word	0x07030c0c
2410725c:	0703080c 	.word	0x0703080c
24107260:	0703040c 	.word	0x0703040c
24107264:	0703000c 	.word	0x0703000c
24107268:	07020c0c 	.word	0x07020c0c
2410726c:	0702080c 	.word	0x0702080c
24107270:	0702040c 	.word	0x0702040c
24107274:	0702000c 	.word	0x0702000c
24107278:	07010c0c 	.word	0x07010c0c
2410727c:	0701080c 	.word	0x0701080c
24107280:	0701040c 	.word	0x0701040c
24107284:	0701000c 	.word	0x0701000c
24107288:	07000c0c 	.word	0x07000c0c
2410728c:	0700080c 	.word	0x0700080c
24107290:	0700000c 	.word	0x0700000c
24107294:	0700040c 	.word	0x0700040c

    case LL_RCC_I2C1_CLKSOURCE_HSI:
    case LL_RCC_I2C2_CLKSOURCE_HSI:
    case LL_RCC_I2C3_CLKSOURCE_HSI:
    case LL_RCC_I2C4_CLKSOURCE_HSI:
      if (LL_RCC_HSI_IsReady() != 0U)
24107298:	f7fa fb3a 	bl	24101910 <LL_RCC_HSI_IsReady>
2410729c:	4603      	mov	r3, r0
2410729e:	2b00      	cmp	r3, #0
241072a0:	d016      	beq.n	241072d0 <RCCEx_GetI2CCLKFreq+0x338>
      {
        i2c_frequency = HSI_VALUE >> (LL_RCC_HSI_GetDivider() >> RCC_HSICFGR_HSIDIV_Pos);
241072a2:	f7fa fb47 	bl	24101934 <LL_RCC_HSI_GetDivider>
241072a6:	4603      	mov	r3, r0
241072a8:	09db      	lsrs	r3, r3, #7
241072aa:	4a0d      	ldr	r2, [pc, #52]	@ (241072e0 <RCCEx_GetI2CCLKFreq+0x348>)
241072ac:	fa22 f303 	lsr.w	r3, r2, r3
241072b0:	60fb      	str	r3, [r7, #12]
      }
      break;
241072b2:	e00d      	b.n	241072d0 <RCCEx_GetI2CCLKFreq+0x338>

    case LL_RCC_I2C1_CLKSOURCE_MSI:
    case LL_RCC_I2C2_CLKSOURCE_MSI:
    case LL_RCC_I2C3_CLKSOURCE_MSI:
    case LL_RCC_I2C4_CLKSOURCE_MSI:
      if (LL_RCC_MSI_IsReady() != 0U)
241072b4:	f7fa fb4c 	bl	24101950 <LL_RCC_MSI_IsReady>
241072b8:	4603      	mov	r3, r0
241072ba:	2b00      	cmp	r3, #0
241072bc:	d00a      	beq.n	241072d4 <RCCEx_GetI2CCLKFreq+0x33c>
      {
        i2c_frequency = MSI_VALUE;
241072be:	4b09      	ldr	r3, [pc, #36]	@ (241072e4 <RCCEx_GetI2CCLKFreq+0x34c>)
241072c0:	60fb      	str	r3, [r7, #12]
      }
      break;
241072c2:	e007      	b.n	241072d4 <RCCEx_GetI2CCLKFreq+0x33c>

    default:
      /* Unexpected case */
      break;
241072c4:	bf00      	nop
241072c6:	e006      	b.n	241072d6 <RCCEx_GetI2CCLKFreq+0x33e>
      break;
241072c8:	bf00      	nop
241072ca:	e004      	b.n	241072d6 <RCCEx_GetI2CCLKFreq+0x33e>
      break;
241072cc:	bf00      	nop
241072ce:	e002      	b.n	241072d6 <RCCEx_GetI2CCLKFreq+0x33e>
      break;
241072d0:	bf00      	nop
241072d2:	e000      	b.n	241072d6 <RCCEx_GetI2CCLKFreq+0x33e>
      break;
241072d4:	bf00      	nop
  }

  return i2c_frequency;
241072d6:	68fb      	ldr	r3, [r7, #12]
}
241072d8:	4618      	mov	r0, r3
241072da:	3710      	adds	r7, #16
241072dc:	46bd      	mov	sp, r7
241072de:	bd80      	pop	{r7, pc}
241072e0:	03d09000 	.word	0x03d09000
241072e4:	003d0900 	.word	0x003d0900

241072e8 <RCCEx_GetI3CCLKFreq>:
  *         @arg @ref RCCEx_I3C2_Clock_Source
  * @retval I3C clock frequency (in Hz)
  *         - @ref  RCC_PERIPH_FREQUENCY_NO indicates that oscillator is not ready
  */
static uint32_t RCCEx_GetI3CCLKFreq(uint32_t I3CxSource)
{
241072e8:	b580      	push	{r7, lr}
241072ea:	b084      	sub	sp, #16
241072ec:	af00      	add	r7, sp, #0
241072ee:	6078      	str	r0, [r7, #4]
  uint32_t i3c_frequency = RCC_PERIPH_FREQUENCY_NO;
241072f0:	2300      	movs	r3, #0
241072f2:	60fb      	str	r3, [r7, #12]
  uint32_t ic_divider;

  switch (LL_RCC_GetI3CClockSource(I3CxSource))
241072f4:	6878      	ldr	r0, [r7, #4]
241072f6:	f7fa fe5d 	bl	24101fb4 <LL_RCC_GetI3CClockSource>
241072fa:	4603      	mov	r3, r0
241072fc:	4a86      	ldr	r2, [pc, #536]	@ (24107518 <RCCEx_GetI3CCLKFreq+0x230>)
241072fe:	4293      	cmp	r3, r2
24107300:	f000 80e6 	beq.w	241074d0 <RCCEx_GetI3CCLKFreq+0x1e8>
24107304:	4a84      	ldr	r2, [pc, #528]	@ (24107518 <RCCEx_GetI3CCLKFreq+0x230>)
24107306:	4293      	cmp	r3, r2
24107308:	f200 80f8 	bhi.w	241074fc <RCCEx_GetI3CCLKFreq+0x214>
2410730c:	4a83      	ldr	r2, [pc, #524]	@ (2410751c <RCCEx_GetI3CCLKFreq+0x234>)
2410730e:	4293      	cmp	r3, r2
24107310:	f000 80de 	beq.w	241074d0 <RCCEx_GetI3CCLKFreq+0x1e8>
24107314:	4a81      	ldr	r2, [pc, #516]	@ (2410751c <RCCEx_GetI3CCLKFreq+0x234>)
24107316:	4293      	cmp	r3, r2
24107318:	f200 80f0 	bhi.w	241074fc <RCCEx_GetI3CCLKFreq+0x214>
2410731c:	4a80      	ldr	r2, [pc, #512]	@ (24107520 <RCCEx_GetI3CCLKFreq+0x238>)
2410731e:	4293      	cmp	r3, r2
24107320:	f000 80e4 	beq.w	241074ec <RCCEx_GetI3CCLKFreq+0x204>
24107324:	4a7e      	ldr	r2, [pc, #504]	@ (24107520 <RCCEx_GetI3CCLKFreq+0x238>)
24107326:	4293      	cmp	r3, r2
24107328:	f200 80e8 	bhi.w	241074fc <RCCEx_GetI3CCLKFreq+0x214>
2410732c:	4a7d      	ldr	r2, [pc, #500]	@ (24107524 <RCCEx_GetI3CCLKFreq+0x23c>)
2410732e:	4293      	cmp	r3, r2
24107330:	f000 80dc 	beq.w	241074ec <RCCEx_GetI3CCLKFreq+0x204>
24107334:	4a7b      	ldr	r2, [pc, #492]	@ (24107524 <RCCEx_GetI3CCLKFreq+0x23c>)
24107336:	4293      	cmp	r3, r2
24107338:	f200 80e0 	bhi.w	241074fc <RCCEx_GetI3CCLKFreq+0x214>
2410733c:	4a7a      	ldr	r2, [pc, #488]	@ (24107528 <RCCEx_GetI3CCLKFreq+0x240>)
2410733e:	4293      	cmp	r3, r2
24107340:	f000 8083 	beq.w	2410744a <RCCEx_GetI3CCLKFreq+0x162>
24107344:	4a78      	ldr	r2, [pc, #480]	@ (24107528 <RCCEx_GetI3CCLKFreq+0x240>)
24107346:	4293      	cmp	r3, r2
24107348:	f200 80d8 	bhi.w	241074fc <RCCEx_GetI3CCLKFreq+0x214>
2410734c:	4a77      	ldr	r2, [pc, #476]	@ (2410752c <RCCEx_GetI3CCLKFreq+0x244>)
2410734e:	4293      	cmp	r3, r2
24107350:	d07b      	beq.n	2410744a <RCCEx_GetI3CCLKFreq+0x162>
24107352:	4a76      	ldr	r2, [pc, #472]	@ (2410752c <RCCEx_GetI3CCLKFreq+0x244>)
24107354:	4293      	cmp	r3, r2
24107356:	f200 80d1 	bhi.w	241074fc <RCCEx_GetI3CCLKFreq+0x214>
2410735a:	4a75      	ldr	r2, [pc, #468]	@ (24107530 <RCCEx_GetI3CCLKFreq+0x248>)
2410735c:	4293      	cmp	r3, r2
2410735e:	d030      	beq.n	241073c2 <RCCEx_GetI3CCLKFreq+0xda>
24107360:	4a73      	ldr	r2, [pc, #460]	@ (24107530 <RCCEx_GetI3CCLKFreq+0x248>)
24107362:	4293      	cmp	r3, r2
24107364:	f200 80ca 	bhi.w	241074fc <RCCEx_GetI3CCLKFreq+0x214>
24107368:	4a72      	ldr	r2, [pc, #456]	@ (24107534 <RCCEx_GetI3CCLKFreq+0x24c>)
2410736a:	4293      	cmp	r3, r2
2410736c:	d029      	beq.n	241073c2 <RCCEx_GetI3CCLKFreq+0xda>
2410736e:	4a71      	ldr	r2, [pc, #452]	@ (24107534 <RCCEx_GetI3CCLKFreq+0x24c>)
24107370:	4293      	cmp	r3, r2
24107372:	f200 80c3 	bhi.w	241074fc <RCCEx_GetI3CCLKFreq+0x214>
24107376:	4a70      	ldr	r2, [pc, #448]	@ (24107538 <RCCEx_GetI3CCLKFreq+0x250>)
24107378:	4293      	cmp	r3, r2
2410737a:	d01d      	beq.n	241073b8 <RCCEx_GetI3CCLKFreq+0xd0>
2410737c:	4a6e      	ldr	r2, [pc, #440]	@ (24107538 <RCCEx_GetI3CCLKFreq+0x250>)
2410737e:	4293      	cmp	r3, r2
24107380:	f200 80bc 	bhi.w	241074fc <RCCEx_GetI3CCLKFreq+0x214>
24107384:	4a6d      	ldr	r2, [pc, #436]	@ (2410753c <RCCEx_GetI3CCLKFreq+0x254>)
24107386:	4293      	cmp	r3, r2
24107388:	d016      	beq.n	241073b8 <RCCEx_GetI3CCLKFreq+0xd0>
2410738a:	4a6c      	ldr	r2, [pc, #432]	@ (2410753c <RCCEx_GetI3CCLKFreq+0x254>)
2410738c:	4293      	cmp	r3, r2
2410738e:	f200 80b5 	bhi.w	241074fc <RCCEx_GetI3CCLKFreq+0x214>
24107392:	4a6b      	ldr	r2, [pc, #428]	@ (24107540 <RCCEx_GetI3CCLKFreq+0x258>)
24107394:	4293      	cmp	r3, r2
24107396:	d003      	beq.n	241073a0 <RCCEx_GetI3CCLKFreq+0xb8>
24107398:	4a6a      	ldr	r2, [pc, #424]	@ (24107544 <RCCEx_GetI3CCLKFreq+0x25c>)
2410739a:	4293      	cmp	r3, r2
2410739c:	f040 80ae 	bne.w	241074fc <RCCEx_GetI3CCLKFreq+0x214>
  {
    case LL_RCC_I3C1_CLKSOURCE_PCLK1:
    case LL_RCC_I3C2_CLKSOURCE_PCLK1:
      i3c_frequency = RCCEx_GetPCLK1Freq(RCCEx_GetHCLKFreq(HAL_RCC_GetSysClockFreq()));
241073a0:	f7fa f9e0 	bl	24101764 <HAL_RCC_GetSysClockFreq>
241073a4:	4603      	mov	r3, r0
241073a6:	4618      	mov	r0, r3
241073a8:	f7fe fe42 	bl	24106030 <RCCEx_GetHCLKFreq>
241073ac:	4603      	mov	r3, r0
241073ae:	4618      	mov	r0, r3
241073b0:	f7fe fe4f 	bl	24106052 <RCCEx_GetPCLK1Freq>
241073b4:	60f8      	str	r0, [r7, #12]
      break;
241073b6:	e0aa      	b.n	2410750e <RCCEx_GetI3CCLKFreq+0x226>

    case LL_RCC_I3C1_CLKSOURCE_CLKP:
    case LL_RCC_I3C2_CLKSOURCE_CLKP:
      i3c_frequency = RCCEx_GetCLKPCLKFreq(LL_RCC_CLKP_CLKSOURCE);
241073b8:	2007      	movs	r0, #7
241073ba:	f7ff f925 	bl	24106608 <RCCEx_GetCLKPCLKFreq>
241073be:	60f8      	str	r0, [r7, #12]
      break;
241073c0:	e0a5      	b.n	2410750e <RCCEx_GetI3CCLKFreq+0x226>

    case LL_RCC_I3C1_CLKSOURCE_IC10:
    case LL_RCC_I3C2_CLKSOURCE_IC10:
      if (LL_RCC_IC10_IsEnabled() != 0U)
241073c2:	f7fb fb09 	bl	241029d8 <LL_RCC_IC10_IsEnabled>
241073c6:	4603      	mov	r3, r0
241073c8:	2b00      	cmp	r3, #0
241073ca:	f000 8099 	beq.w	24107500 <RCCEx_GetI3CCLKFreq+0x218>
      {
        ic_divider = LL_RCC_IC10_GetDivider();
241073ce:	f7fb fb25 	bl	24102a1c <LL_RCC_IC10_GetDivider>
241073d2:	60b8      	str	r0, [r7, #8]
        switch (LL_RCC_IC10_GetSource())
241073d4:	f7fb fb14 	bl	24102a00 <LL_RCC_IC10_GetSource>
241073d8:	4603      	mov	r3, r0
241073da:	f1b3 5f40 	cmp.w	r3, #805306368	@ 0x30000000
241073de:	d029      	beq.n	24107434 <RCCEx_GetI3CCLKFreq+0x14c>
241073e0:	f1b3 5f40 	cmp.w	r3, #805306368	@ 0x30000000
241073e4:	d82f      	bhi.n	24107446 <RCCEx_GetI3CCLKFreq+0x15e>
241073e6:	f1b3 5f00 	cmp.w	r3, #536870912	@ 0x20000000
241073ea:	d01a      	beq.n	24107422 <RCCEx_GetI3CCLKFreq+0x13a>
241073ec:	f1b3 5f00 	cmp.w	r3, #536870912	@ 0x20000000
241073f0:	d829      	bhi.n	24107446 <RCCEx_GetI3CCLKFreq+0x15e>
241073f2:	2b00      	cmp	r3, #0
241073f4:	d003      	beq.n	241073fe <RCCEx_GetI3CCLKFreq+0x116>
241073f6:	f1b3 5f80 	cmp.w	r3, #268435456	@ 0x10000000
241073fa:	d009      	beq.n	24107410 <RCCEx_GetI3CCLKFreq+0x128>
            i3c_frequency = HAL_RCCEx_GetPLL4CLKFreq();
            i3c_frequency = i3c_frequency / ic_divider;
            break;
          default:
            /* Unexpected case */
            break;
241073fc:	e023      	b.n	24107446 <RCCEx_GetI3CCLKFreq+0x15e>
            i3c_frequency = HAL_RCCEx_GetPLL1CLKFreq();
241073fe:	f7fe fcff 	bl	24105e00 <HAL_RCCEx_GetPLL1CLKFreq>
24107402:	60f8      	str	r0, [r7, #12]
            i3c_frequency = i3c_frequency / ic_divider;
24107404:	68fa      	ldr	r2, [r7, #12]
24107406:	68bb      	ldr	r3, [r7, #8]
24107408:	fbb2 f3f3 	udiv	r3, r2, r3
2410740c:	60fb      	str	r3, [r7, #12]
            break;
2410740e:	e01b      	b.n	24107448 <RCCEx_GetI3CCLKFreq+0x160>
            i3c_frequency = HAL_RCCEx_GetPLL2CLKFreq();
24107410:	f7fe fd3c 	bl	24105e8c <HAL_RCCEx_GetPLL2CLKFreq>
24107414:	60f8      	str	r0, [r7, #12]
            i3c_frequency = i3c_frequency / ic_divider;
24107416:	68fa      	ldr	r2, [r7, #12]
24107418:	68bb      	ldr	r3, [r7, #8]
2410741a:	fbb2 f3f3 	udiv	r3, r2, r3
2410741e:	60fb      	str	r3, [r7, #12]
            break;
24107420:	e012      	b.n	24107448 <RCCEx_GetI3CCLKFreq+0x160>
            i3c_frequency = HAL_RCCEx_GetPLL3CLKFreq();
24107422:	f7fe fd79 	bl	24105f18 <HAL_RCCEx_GetPLL3CLKFreq>
24107426:	60f8      	str	r0, [r7, #12]
            i3c_frequency = i3c_frequency / ic_divider;
24107428:	68fa      	ldr	r2, [r7, #12]
2410742a:	68bb      	ldr	r3, [r7, #8]
2410742c:	fbb2 f3f3 	udiv	r3, r2, r3
24107430:	60fb      	str	r3, [r7, #12]
            break;
24107432:	e009      	b.n	24107448 <RCCEx_GetI3CCLKFreq+0x160>
            i3c_frequency = HAL_RCCEx_GetPLL4CLKFreq();
24107434:	f7fe fdb6 	bl	24105fa4 <HAL_RCCEx_GetPLL4CLKFreq>
24107438:	60f8      	str	r0, [r7, #12]
            i3c_frequency = i3c_frequency / ic_divider;
2410743a:	68fa      	ldr	r2, [r7, #12]
2410743c:	68bb      	ldr	r3, [r7, #8]
2410743e:	fbb2 f3f3 	udiv	r3, r2, r3
24107442:	60fb      	str	r3, [r7, #12]
            break;
24107444:	e000      	b.n	24107448 <RCCEx_GetI3CCLKFreq+0x160>
            break;
24107446:	bf00      	nop
        }
      }
      break;
24107448:	e05a      	b.n	24107500 <RCCEx_GetI3CCLKFreq+0x218>

    case LL_RCC_I3C1_CLKSOURCE_IC15:
    case LL_RCC_I3C2_CLKSOURCE_IC15:
      if (LL_RCC_IC15_IsEnabled() != 0U)
2410744a:	f7fb fbc5 	bl	24102bd8 <LL_RCC_IC15_IsEnabled>
2410744e:	4603      	mov	r3, r0
24107450:	2b00      	cmp	r3, #0
24107452:	d057      	beq.n	24107504 <RCCEx_GetI3CCLKFreq+0x21c>
      {
        ic_divider = LL_RCC_IC15_GetDivider();
24107454:	f7fb fbe2 	bl	24102c1c <LL_RCC_IC15_GetDivider>
24107458:	60b8      	str	r0, [r7, #8]
        switch (LL_RCC_IC15_GetSource())
2410745a:	f7fb fbd1 	bl	24102c00 <LL_RCC_IC15_GetSource>
2410745e:	4603      	mov	r3, r0
24107460:	f1b3 5f40 	cmp.w	r3, #805306368	@ 0x30000000
24107464:	d029      	beq.n	241074ba <RCCEx_GetI3CCLKFreq+0x1d2>
24107466:	f1b3 5f40 	cmp.w	r3, #805306368	@ 0x30000000
2410746a:	d82f      	bhi.n	241074cc <RCCEx_GetI3CCLKFreq+0x1e4>
2410746c:	f1b3 5f00 	cmp.w	r3, #536870912	@ 0x20000000
24107470:	d01a      	beq.n	241074a8 <RCCEx_GetI3CCLKFreq+0x1c0>
24107472:	f1b3 5f00 	cmp.w	r3, #536870912	@ 0x20000000
24107476:	d829      	bhi.n	241074cc <RCCEx_GetI3CCLKFreq+0x1e4>
24107478:	2b00      	cmp	r3, #0
2410747a:	d003      	beq.n	24107484 <RCCEx_GetI3CCLKFreq+0x19c>
2410747c:	f1b3 5f80 	cmp.w	r3, #268435456	@ 0x10000000
24107480:	d009      	beq.n	24107496 <RCCEx_GetI3CCLKFreq+0x1ae>
            i3c_frequency = HAL_RCCEx_GetPLL4CLKFreq();
            i3c_frequency = i3c_frequency / ic_divider;
            break;
          default:
            /* Unexpected case */
            break;
24107482:	e023      	b.n	241074cc <RCCEx_GetI3CCLKFreq+0x1e4>
            i3c_frequency = HAL_RCCEx_GetPLL1CLKFreq();
24107484:	f7fe fcbc 	bl	24105e00 <HAL_RCCEx_GetPLL1CLKFreq>
24107488:	60f8      	str	r0, [r7, #12]
            i3c_frequency = i3c_frequency / ic_divider;
2410748a:	68fa      	ldr	r2, [r7, #12]
2410748c:	68bb      	ldr	r3, [r7, #8]
2410748e:	fbb2 f3f3 	udiv	r3, r2, r3
24107492:	60fb      	str	r3, [r7, #12]
            break;
24107494:	e01b      	b.n	241074ce <RCCEx_GetI3CCLKFreq+0x1e6>
            i3c_frequency = HAL_RCCEx_GetPLL2CLKFreq();
24107496:	f7fe fcf9 	bl	24105e8c <HAL_RCCEx_GetPLL2CLKFreq>
2410749a:	60f8      	str	r0, [r7, #12]
            i3c_frequency = i3c_frequency / ic_divider;
2410749c:	68fa      	ldr	r2, [r7, #12]
2410749e:	68bb      	ldr	r3, [r7, #8]
241074a0:	fbb2 f3f3 	udiv	r3, r2, r3
241074a4:	60fb      	str	r3, [r7, #12]
            break;
241074a6:	e012      	b.n	241074ce <RCCEx_GetI3CCLKFreq+0x1e6>
            i3c_frequency = HAL_RCCEx_GetPLL3CLKFreq();
241074a8:	f7fe fd36 	bl	24105f18 <HAL_RCCEx_GetPLL3CLKFreq>
241074ac:	60f8      	str	r0, [r7, #12]
            i3c_frequency = i3c_frequency / ic_divider;
241074ae:	68fa      	ldr	r2, [r7, #12]
241074b0:	68bb      	ldr	r3, [r7, #8]
241074b2:	fbb2 f3f3 	udiv	r3, r2, r3
241074b6:	60fb      	str	r3, [r7, #12]
            break;
241074b8:	e009      	b.n	241074ce <RCCEx_GetI3CCLKFreq+0x1e6>
            i3c_frequency = HAL_RCCEx_GetPLL4CLKFreq();
241074ba:	f7fe fd73 	bl	24105fa4 <HAL_RCCEx_GetPLL4CLKFreq>
241074be:	60f8      	str	r0, [r7, #12]
            i3c_frequency = i3c_frequency / ic_divider;
241074c0:	68fa      	ldr	r2, [r7, #12]
241074c2:	68bb      	ldr	r3, [r7, #8]
241074c4:	fbb2 f3f3 	udiv	r3, r2, r3
241074c8:	60fb      	str	r3, [r7, #12]
            break;
241074ca:	e000      	b.n	241074ce <RCCEx_GetI3CCLKFreq+0x1e6>
            break;
241074cc:	bf00      	nop
        }
      }
      break;
241074ce:	e019      	b.n	24107504 <RCCEx_GetI3CCLKFreq+0x21c>

    case LL_RCC_I3C1_CLKSOURCE_HSI:
    case LL_RCC_I3C2_CLKSOURCE_HSI:
      if (LL_RCC_HSI_IsReady() != 0U)
241074d0:	f7fa fa1e 	bl	24101910 <LL_RCC_HSI_IsReady>
241074d4:	4603      	mov	r3, r0
241074d6:	2b00      	cmp	r3, #0
241074d8:	d016      	beq.n	24107508 <RCCEx_GetI3CCLKFreq+0x220>
      {
        i3c_frequency = HSI_VALUE >> (LL_RCC_HSI_GetDivider() >> RCC_HSICFGR_HSIDIV_Pos);
241074da:	f7fa fa2b 	bl	24101934 <LL_RCC_HSI_GetDivider>
241074de:	4603      	mov	r3, r0
241074e0:	09db      	lsrs	r3, r3, #7
241074e2:	4a19      	ldr	r2, [pc, #100]	@ (24107548 <RCCEx_GetI3CCLKFreq+0x260>)
241074e4:	fa22 f303 	lsr.w	r3, r2, r3
241074e8:	60fb      	str	r3, [r7, #12]
      }
      break;
241074ea:	e00d      	b.n	24107508 <RCCEx_GetI3CCLKFreq+0x220>

    case LL_RCC_I3C1_CLKSOURCE_MSI:
    case LL_RCC_I3C2_CLKSOURCE_MSI:
      if (LL_RCC_MSI_IsReady() != 0U)
241074ec:	f7fa fa30 	bl	24101950 <LL_RCC_MSI_IsReady>
241074f0:	4603      	mov	r3, r0
241074f2:	2b00      	cmp	r3, #0
241074f4:	d00a      	beq.n	2410750c <RCCEx_GetI3CCLKFreq+0x224>
      {
        i3c_frequency = MSI_VALUE;
241074f6:	4b15      	ldr	r3, [pc, #84]	@ (2410754c <RCCEx_GetI3CCLKFreq+0x264>)
241074f8:	60fb      	str	r3, [r7, #12]
      }
      break;
241074fa:	e007      	b.n	2410750c <RCCEx_GetI3CCLKFreq+0x224>

    default:
      /* Unexpected case */
      break;
241074fc:	bf00      	nop
241074fe:	e006      	b.n	2410750e <RCCEx_GetI3CCLKFreq+0x226>
      break;
24107500:	bf00      	nop
24107502:	e004      	b.n	2410750e <RCCEx_GetI3CCLKFreq+0x226>
      break;
24107504:	bf00      	nop
24107506:	e002      	b.n	2410750e <RCCEx_GetI3CCLKFreq+0x226>
      break;
24107508:	bf00      	nop
2410750a:	e000      	b.n	2410750e <RCCEx_GetI3CCLKFreq+0x226>
      break;
2410750c:	bf00      	nop
  }

  return i3c_frequency;
2410750e:	68fb      	ldr	r3, [r7, #12]
}
24107510:	4618      	mov	r0, r3
24107512:	3710      	adds	r7, #16
24107514:	46bd      	mov	sp, r7
24107516:	bd80      	pop	{r7, pc}
24107518:	0705140c 	.word	0x0705140c
2410751c:	0705100c 	.word	0x0705100c
24107520:	0704140c 	.word	0x0704140c
24107524:	0704100c 	.word	0x0704100c
24107528:	0703140c 	.word	0x0703140c
2410752c:	0703100c 	.word	0x0703100c
24107530:	0702140c 	.word	0x0702140c
24107534:	0702100c 	.word	0x0702100c
24107538:	0701140c 	.word	0x0701140c
2410753c:	0701100c 	.word	0x0701100c
24107540:	0700100c 	.word	0x0700100c
24107544:	0700140c 	.word	0x0700140c
24107548:	03d09000 	.word	0x03d09000
2410754c:	003d0900 	.word	0x003d0900

24107550 <RCCEx_GetLPTIMCLKFreq>:
  *         @arg @ref RCCEx_LPTIM5_Clock_Source
  * @retval LPTIM clock frequency (in Hz)
  *         - @ref  RCC_PERIPH_FREQUENCY_NO indicates that oscillator is not ready
  */
static uint32_t RCCEx_GetLPTIMCLKFreq(uint32_t LPTIMxSource)
{
24107550:	b590      	push	{r4, r7, lr}
24107552:	b085      	sub	sp, #20
24107554:	af00      	add	r7, sp, #0
24107556:	6078      	str	r0, [r7, #4]
  uint32_t lptim_frequency = RCC_PERIPH_FREQUENCY_NO;
24107558:	2300      	movs	r3, #0
2410755a:	60fb      	str	r3, [r7, #12]
  uint32_t ic_divider;

  switch (LL_RCC_GetLPTIMClockSource(LPTIMxSource))
2410755c:	6878      	ldr	r0, [r7, #4]
2410755e:	f7fa fd35 	bl	24101fcc <LL_RCC_GetLPTIMClockSource>
24107562:	4603      	mov	r3, r0
24107564:	4aa1      	ldr	r2, [pc, #644]	@ (241077ec <RCCEx_GetLPTIMCLKFreq+0x29c>)
24107566:	4293      	cmp	r3, r2
24107568:	f000 8185 	beq.w	24107876 <RCCEx_GetLPTIMCLKFreq+0x326>
2410756c:	4a9f      	ldr	r2, [pc, #636]	@ (241077ec <RCCEx_GetLPTIMCLKFreq+0x29c>)
2410756e:	4293      	cmp	r3, r2
24107570:	f200 818b 	bhi.w	2410788a <RCCEx_GetLPTIMCLKFreq+0x33a>
24107574:	4a9e      	ldr	r2, [pc, #632]	@ (241077f0 <RCCEx_GetLPTIMCLKFreq+0x2a0>)
24107576:	4293      	cmp	r3, r2
24107578:	f000 817d 	beq.w	24107876 <RCCEx_GetLPTIMCLKFreq+0x326>
2410757c:	4a9c      	ldr	r2, [pc, #624]	@ (241077f0 <RCCEx_GetLPTIMCLKFreq+0x2a0>)
2410757e:	4293      	cmp	r3, r2
24107580:	f200 8183 	bhi.w	2410788a <RCCEx_GetLPTIMCLKFreq+0x33a>
24107584:	4a9b      	ldr	r2, [pc, #620]	@ (241077f4 <RCCEx_GetLPTIMCLKFreq+0x2a4>)
24107586:	4293      	cmp	r3, r2
24107588:	f000 8175 	beq.w	24107876 <RCCEx_GetLPTIMCLKFreq+0x326>
2410758c:	4a99      	ldr	r2, [pc, #612]	@ (241077f4 <RCCEx_GetLPTIMCLKFreq+0x2a4>)
2410758e:	4293      	cmp	r3, r2
24107590:	f200 817b 	bhi.w	2410788a <RCCEx_GetLPTIMCLKFreq+0x33a>
24107594:	4a98      	ldr	r2, [pc, #608]	@ (241077f8 <RCCEx_GetLPTIMCLKFreq+0x2a8>)
24107596:	4293      	cmp	r3, r2
24107598:	f000 816d 	beq.w	24107876 <RCCEx_GetLPTIMCLKFreq+0x326>
2410759c:	4a96      	ldr	r2, [pc, #600]	@ (241077f8 <RCCEx_GetLPTIMCLKFreq+0x2a8>)
2410759e:	4293      	cmp	r3, r2
241075a0:	f200 8173 	bhi.w	2410788a <RCCEx_GetLPTIMCLKFreq+0x33a>
241075a4:	4a95      	ldr	r2, [pc, #596]	@ (241077fc <RCCEx_GetLPTIMCLKFreq+0x2ac>)
241075a6:	4293      	cmp	r3, r2
241075a8:	f000 8165 	beq.w	24107876 <RCCEx_GetLPTIMCLKFreq+0x326>
241075ac:	4a93      	ldr	r2, [pc, #588]	@ (241077fc <RCCEx_GetLPTIMCLKFreq+0x2ac>)
241075ae:	4293      	cmp	r3, r2
241075b0:	f200 816b 	bhi.w	2410788a <RCCEx_GetLPTIMCLKFreq+0x33a>
241075b4:	4a92      	ldr	r2, [pc, #584]	@ (24107800 <RCCEx_GetLPTIMCLKFreq+0x2b0>)
241075b6:	4293      	cmp	r3, r2
241075b8:	f000 8154 	beq.w	24107864 <RCCEx_GetLPTIMCLKFreq+0x314>
241075bc:	4a90      	ldr	r2, [pc, #576]	@ (24107800 <RCCEx_GetLPTIMCLKFreq+0x2b0>)
241075be:	4293      	cmp	r3, r2
241075c0:	f200 8163 	bhi.w	2410788a <RCCEx_GetLPTIMCLKFreq+0x33a>
241075c4:	4a8f      	ldr	r2, [pc, #572]	@ (24107804 <RCCEx_GetLPTIMCLKFreq+0x2b4>)
241075c6:	4293      	cmp	r3, r2
241075c8:	f000 814c 	beq.w	24107864 <RCCEx_GetLPTIMCLKFreq+0x314>
241075cc:	4a8d      	ldr	r2, [pc, #564]	@ (24107804 <RCCEx_GetLPTIMCLKFreq+0x2b4>)
241075ce:	4293      	cmp	r3, r2
241075d0:	f200 815b 	bhi.w	2410788a <RCCEx_GetLPTIMCLKFreq+0x33a>
241075d4:	4a8c      	ldr	r2, [pc, #560]	@ (24107808 <RCCEx_GetLPTIMCLKFreq+0x2b8>)
241075d6:	4293      	cmp	r3, r2
241075d8:	f000 8144 	beq.w	24107864 <RCCEx_GetLPTIMCLKFreq+0x314>
241075dc:	4a8a      	ldr	r2, [pc, #552]	@ (24107808 <RCCEx_GetLPTIMCLKFreq+0x2b8>)
241075de:	4293      	cmp	r3, r2
241075e0:	f200 8153 	bhi.w	2410788a <RCCEx_GetLPTIMCLKFreq+0x33a>
241075e4:	4a89      	ldr	r2, [pc, #548]	@ (2410780c <RCCEx_GetLPTIMCLKFreq+0x2bc>)
241075e6:	4293      	cmp	r3, r2
241075e8:	f000 813c 	beq.w	24107864 <RCCEx_GetLPTIMCLKFreq+0x314>
241075ec:	4a87      	ldr	r2, [pc, #540]	@ (2410780c <RCCEx_GetLPTIMCLKFreq+0x2bc>)
241075ee:	4293      	cmp	r3, r2
241075f0:	f200 814b 	bhi.w	2410788a <RCCEx_GetLPTIMCLKFreq+0x33a>
241075f4:	4a86      	ldr	r2, [pc, #536]	@ (24107810 <RCCEx_GetLPTIMCLKFreq+0x2c0>)
241075f6:	4293      	cmp	r3, r2
241075f8:	f000 8134 	beq.w	24107864 <RCCEx_GetLPTIMCLKFreq+0x314>
241075fc:	4a84      	ldr	r2, [pc, #528]	@ (24107810 <RCCEx_GetLPTIMCLKFreq+0x2c0>)
241075fe:	4293      	cmp	r3, r2
24107600:	f200 8143 	bhi.w	2410788a <RCCEx_GetLPTIMCLKFreq+0x33a>
24107604:	4a83      	ldr	r2, [pc, #524]	@ (24107814 <RCCEx_GetLPTIMCLKFreq+0x2c4>)
24107606:	4293      	cmp	r3, r2
24107608:	f000 80e7 	beq.w	241077da <RCCEx_GetLPTIMCLKFreq+0x28a>
2410760c:	4a81      	ldr	r2, [pc, #516]	@ (24107814 <RCCEx_GetLPTIMCLKFreq+0x2c4>)
2410760e:	4293      	cmp	r3, r2
24107610:	f200 813b 	bhi.w	2410788a <RCCEx_GetLPTIMCLKFreq+0x33a>
24107614:	4a80      	ldr	r2, [pc, #512]	@ (24107818 <RCCEx_GetLPTIMCLKFreq+0x2c8>)
24107616:	4293      	cmp	r3, r2
24107618:	f000 80df 	beq.w	241077da <RCCEx_GetLPTIMCLKFreq+0x28a>
2410761c:	4a7e      	ldr	r2, [pc, #504]	@ (24107818 <RCCEx_GetLPTIMCLKFreq+0x2c8>)
2410761e:	4293      	cmp	r3, r2
24107620:	f200 8133 	bhi.w	2410788a <RCCEx_GetLPTIMCLKFreq+0x33a>
24107624:	4a7d      	ldr	r2, [pc, #500]	@ (2410781c <RCCEx_GetLPTIMCLKFreq+0x2cc>)
24107626:	4293      	cmp	r3, r2
24107628:	f000 80d7 	beq.w	241077da <RCCEx_GetLPTIMCLKFreq+0x28a>
2410762c:	4a7b      	ldr	r2, [pc, #492]	@ (2410781c <RCCEx_GetLPTIMCLKFreq+0x2cc>)
2410762e:	4293      	cmp	r3, r2
24107630:	f200 812b 	bhi.w	2410788a <RCCEx_GetLPTIMCLKFreq+0x33a>
24107634:	4a7a      	ldr	r2, [pc, #488]	@ (24107820 <RCCEx_GetLPTIMCLKFreq+0x2d0>)
24107636:	4293      	cmp	r3, r2
24107638:	f000 80cf 	beq.w	241077da <RCCEx_GetLPTIMCLKFreq+0x28a>
2410763c:	4a78      	ldr	r2, [pc, #480]	@ (24107820 <RCCEx_GetLPTIMCLKFreq+0x2d0>)
2410763e:	4293      	cmp	r3, r2
24107640:	f200 8123 	bhi.w	2410788a <RCCEx_GetLPTIMCLKFreq+0x33a>
24107644:	4a77      	ldr	r2, [pc, #476]	@ (24107824 <RCCEx_GetLPTIMCLKFreq+0x2d4>)
24107646:	4293      	cmp	r3, r2
24107648:	f000 80c7 	beq.w	241077da <RCCEx_GetLPTIMCLKFreq+0x28a>
2410764c:	4a75      	ldr	r2, [pc, #468]	@ (24107824 <RCCEx_GetLPTIMCLKFreq+0x2d4>)
2410764e:	4293      	cmp	r3, r2
24107650:	f200 811b 	bhi.w	2410788a <RCCEx_GetLPTIMCLKFreq+0x33a>
24107654:	4a74      	ldr	r2, [pc, #464]	@ (24107828 <RCCEx_GetLPTIMCLKFreq+0x2d8>)
24107656:	4293      	cmp	r3, r2
24107658:	d07b      	beq.n	24107752 <RCCEx_GetLPTIMCLKFreq+0x202>
2410765a:	4a73      	ldr	r2, [pc, #460]	@ (24107828 <RCCEx_GetLPTIMCLKFreq+0x2d8>)
2410765c:	4293      	cmp	r3, r2
2410765e:	f200 8114 	bhi.w	2410788a <RCCEx_GetLPTIMCLKFreq+0x33a>
24107662:	4a72      	ldr	r2, [pc, #456]	@ (2410782c <RCCEx_GetLPTIMCLKFreq+0x2dc>)
24107664:	4293      	cmp	r3, r2
24107666:	d074      	beq.n	24107752 <RCCEx_GetLPTIMCLKFreq+0x202>
24107668:	4a70      	ldr	r2, [pc, #448]	@ (2410782c <RCCEx_GetLPTIMCLKFreq+0x2dc>)
2410766a:	4293      	cmp	r3, r2
2410766c:	f200 810d 	bhi.w	2410788a <RCCEx_GetLPTIMCLKFreq+0x33a>
24107670:	4a6f      	ldr	r2, [pc, #444]	@ (24107830 <RCCEx_GetLPTIMCLKFreq+0x2e0>)
24107672:	4293      	cmp	r3, r2
24107674:	d06d      	beq.n	24107752 <RCCEx_GetLPTIMCLKFreq+0x202>
24107676:	4a6e      	ldr	r2, [pc, #440]	@ (24107830 <RCCEx_GetLPTIMCLKFreq+0x2e0>)
24107678:	4293      	cmp	r3, r2
2410767a:	f200 8106 	bhi.w	2410788a <RCCEx_GetLPTIMCLKFreq+0x33a>
2410767e:	4a6d      	ldr	r2, [pc, #436]	@ (24107834 <RCCEx_GetLPTIMCLKFreq+0x2e4>)
24107680:	4293      	cmp	r3, r2
24107682:	d066      	beq.n	24107752 <RCCEx_GetLPTIMCLKFreq+0x202>
24107684:	4a6b      	ldr	r2, [pc, #428]	@ (24107834 <RCCEx_GetLPTIMCLKFreq+0x2e4>)
24107686:	4293      	cmp	r3, r2
24107688:	f200 80ff 	bhi.w	2410788a <RCCEx_GetLPTIMCLKFreq+0x33a>
2410768c:	4a6a      	ldr	r2, [pc, #424]	@ (24107838 <RCCEx_GetLPTIMCLKFreq+0x2e8>)
2410768e:	4293      	cmp	r3, r2
24107690:	d05f      	beq.n	24107752 <RCCEx_GetLPTIMCLKFreq+0x202>
24107692:	4a69      	ldr	r2, [pc, #420]	@ (24107838 <RCCEx_GetLPTIMCLKFreq+0x2e8>)
24107694:	4293      	cmp	r3, r2
24107696:	f200 80f8 	bhi.w	2410788a <RCCEx_GetLPTIMCLKFreq+0x33a>
2410769a:	4a68      	ldr	r2, [pc, #416]	@ (2410783c <RCCEx_GetLPTIMCLKFreq+0x2ec>)
2410769c:	4293      	cmp	r3, r2
2410769e:	d053      	beq.n	24107748 <RCCEx_GetLPTIMCLKFreq+0x1f8>
241076a0:	4a66      	ldr	r2, [pc, #408]	@ (2410783c <RCCEx_GetLPTIMCLKFreq+0x2ec>)
241076a2:	4293      	cmp	r3, r2
241076a4:	f200 80f1 	bhi.w	2410788a <RCCEx_GetLPTIMCLKFreq+0x33a>
241076a8:	4a65      	ldr	r2, [pc, #404]	@ (24107840 <RCCEx_GetLPTIMCLKFreq+0x2f0>)
241076aa:	4293      	cmp	r3, r2
241076ac:	d04c      	beq.n	24107748 <RCCEx_GetLPTIMCLKFreq+0x1f8>
241076ae:	4a64      	ldr	r2, [pc, #400]	@ (24107840 <RCCEx_GetLPTIMCLKFreq+0x2f0>)
241076b0:	4293      	cmp	r3, r2
241076b2:	f200 80ea 	bhi.w	2410788a <RCCEx_GetLPTIMCLKFreq+0x33a>
241076b6:	4a63      	ldr	r2, [pc, #396]	@ (24107844 <RCCEx_GetLPTIMCLKFreq+0x2f4>)
241076b8:	4293      	cmp	r3, r2
241076ba:	d045      	beq.n	24107748 <RCCEx_GetLPTIMCLKFreq+0x1f8>
241076bc:	4a61      	ldr	r2, [pc, #388]	@ (24107844 <RCCEx_GetLPTIMCLKFreq+0x2f4>)
241076be:	4293      	cmp	r3, r2
241076c0:	f200 80e3 	bhi.w	2410788a <RCCEx_GetLPTIMCLKFreq+0x33a>
241076c4:	4a60      	ldr	r2, [pc, #384]	@ (24107848 <RCCEx_GetLPTIMCLKFreq+0x2f8>)
241076c6:	4293      	cmp	r3, r2
241076c8:	d03e      	beq.n	24107748 <RCCEx_GetLPTIMCLKFreq+0x1f8>
241076ca:	4a5f      	ldr	r2, [pc, #380]	@ (24107848 <RCCEx_GetLPTIMCLKFreq+0x2f8>)
241076cc:	4293      	cmp	r3, r2
241076ce:	f200 80dc 	bhi.w	2410788a <RCCEx_GetLPTIMCLKFreq+0x33a>
241076d2:	4a5e      	ldr	r2, [pc, #376]	@ (2410784c <RCCEx_GetLPTIMCLKFreq+0x2fc>)
241076d4:	4293      	cmp	r3, r2
241076d6:	d037      	beq.n	24107748 <RCCEx_GetLPTIMCLKFreq+0x1f8>
241076d8:	4a5c      	ldr	r2, [pc, #368]	@ (2410784c <RCCEx_GetLPTIMCLKFreq+0x2fc>)
241076da:	4293      	cmp	r3, r2
241076dc:	f200 80d5 	bhi.w	2410788a <RCCEx_GetLPTIMCLKFreq+0x33a>
241076e0:	4a5b      	ldr	r2, [pc, #364]	@ (24107850 <RCCEx_GetLPTIMCLKFreq+0x300>)
241076e2:	4293      	cmp	r3, r2
241076e4:	d024      	beq.n	24107730 <RCCEx_GetLPTIMCLKFreq+0x1e0>
241076e6:	4a5a      	ldr	r2, [pc, #360]	@ (24107850 <RCCEx_GetLPTIMCLKFreq+0x300>)
241076e8:	4293      	cmp	r3, r2
241076ea:	f200 80ce 	bhi.w	2410788a <RCCEx_GetLPTIMCLKFreq+0x33a>
241076ee:	4a59      	ldr	r2, [pc, #356]	@ (24107854 <RCCEx_GetLPTIMCLKFreq+0x304>)
241076f0:	4293      	cmp	r3, r2
241076f2:	d01d      	beq.n	24107730 <RCCEx_GetLPTIMCLKFreq+0x1e0>
241076f4:	4a57      	ldr	r2, [pc, #348]	@ (24107854 <RCCEx_GetLPTIMCLKFreq+0x304>)
241076f6:	4293      	cmp	r3, r2
241076f8:	f200 80c7 	bhi.w	2410788a <RCCEx_GetLPTIMCLKFreq+0x33a>
241076fc:	4a56      	ldr	r2, [pc, #344]	@ (24107858 <RCCEx_GetLPTIMCLKFreq+0x308>)
241076fe:	4293      	cmp	r3, r2
24107700:	d016      	beq.n	24107730 <RCCEx_GetLPTIMCLKFreq+0x1e0>
24107702:	4a55      	ldr	r2, [pc, #340]	@ (24107858 <RCCEx_GetLPTIMCLKFreq+0x308>)
24107704:	4293      	cmp	r3, r2
24107706:	f200 80c0 	bhi.w	2410788a <RCCEx_GetLPTIMCLKFreq+0x33a>
2410770a:	4a54      	ldr	r2, [pc, #336]	@ (2410785c <RCCEx_GetLPTIMCLKFreq+0x30c>)
2410770c:	4293      	cmp	r3, r2
2410770e:	d003      	beq.n	24107718 <RCCEx_GetLPTIMCLKFreq+0x1c8>
24107710:	4a53      	ldr	r2, [pc, #332]	@ (24107860 <RCCEx_GetLPTIMCLKFreq+0x310>)
24107712:	4293      	cmp	r3, r2
24107714:	d00c      	beq.n	24107730 <RCCEx_GetLPTIMCLKFreq+0x1e0>
      lptim_frequency = LL_RCC_CALC_TIMG_FREQ(HAL_RCC_GetSysClockFreq(), LL_RCC_GetTIMPrescaler());
      break;

    default:
      /* Unexpected case */
      break;
24107716:	e0b8      	b.n	2410788a <RCCEx_GetLPTIMCLKFreq+0x33a>
      lptim_frequency = RCCEx_GetPCLK1Freq(RCCEx_GetHCLKFreq(HAL_RCC_GetSysClockFreq()));
24107718:	f7fa f824 	bl	24101764 <HAL_RCC_GetSysClockFreq>
2410771c:	4603      	mov	r3, r0
2410771e:	4618      	mov	r0, r3
24107720:	f7fe fc86 	bl	24106030 <RCCEx_GetHCLKFreq>
24107724:	4603      	mov	r3, r0
24107726:	4618      	mov	r0, r3
24107728:	f7fe fc93 	bl	24106052 <RCCEx_GetPCLK1Freq>
2410772c:	60f8      	str	r0, [r7, #12]
      break;
2410772e:	e0b3      	b.n	24107898 <RCCEx_GetLPTIMCLKFreq+0x348>
      lptim_frequency = RCCEx_GetPCLK4Freq(RCCEx_GetHCLKFreq(HAL_RCC_GetSysClockFreq()));
24107730:	f7fa f818 	bl	24101764 <HAL_RCC_GetSysClockFreq>
24107734:	4603      	mov	r3, r0
24107736:	4618      	mov	r0, r3
24107738:	f7fe fc7a 	bl	24106030 <RCCEx_GetHCLKFreq>
2410773c:	4603      	mov	r3, r0
2410773e:	4618      	mov	r0, r3
24107740:	f7fe fca8 	bl	24106094 <RCCEx_GetPCLK4Freq>
24107744:	60f8      	str	r0, [r7, #12]
      break;
24107746:	e0a7      	b.n	24107898 <RCCEx_GetLPTIMCLKFreq+0x348>
      lptim_frequency = RCCEx_GetCLKPCLKFreq(LL_RCC_CLKP_CLKSOURCE);
24107748:	2007      	movs	r0, #7
2410774a:	f7fe ff5d 	bl	24106608 <RCCEx_GetCLKPCLKFreq>
2410774e:	60f8      	str	r0, [r7, #12]
      break;
24107750:	e0a2      	b.n	24107898 <RCCEx_GetLPTIMCLKFreq+0x348>
      if (LL_RCC_IC15_IsEnabled() != 0U)
24107752:	f7fb fa41 	bl	24102bd8 <LL_RCC_IC15_IsEnabled>
24107756:	4603      	mov	r3, r0
24107758:	2b00      	cmp	r3, #0
2410775a:	f000 8098 	beq.w	2410788e <RCCEx_GetLPTIMCLKFreq+0x33e>
        ic_divider = LL_RCC_IC15_GetDivider();
2410775e:	f7fb fa5d 	bl	24102c1c <LL_RCC_IC15_GetDivider>
24107762:	60b8      	str	r0, [r7, #8]
        switch (LL_RCC_IC15_GetSource())
24107764:	f7fb fa4c 	bl	24102c00 <LL_RCC_IC15_GetSource>
24107768:	4603      	mov	r3, r0
2410776a:	f1b3 5f40 	cmp.w	r3, #805306368	@ 0x30000000
2410776e:	d029      	beq.n	241077c4 <RCCEx_GetLPTIMCLKFreq+0x274>
24107770:	f1b3 5f40 	cmp.w	r3, #805306368	@ 0x30000000
24107774:	d82f      	bhi.n	241077d6 <RCCEx_GetLPTIMCLKFreq+0x286>
24107776:	f1b3 5f00 	cmp.w	r3, #536870912	@ 0x20000000
2410777a:	d01a      	beq.n	241077b2 <RCCEx_GetLPTIMCLKFreq+0x262>
2410777c:	f1b3 5f00 	cmp.w	r3, #536870912	@ 0x20000000
24107780:	d829      	bhi.n	241077d6 <RCCEx_GetLPTIMCLKFreq+0x286>
24107782:	2b00      	cmp	r3, #0
24107784:	d003      	beq.n	2410778e <RCCEx_GetLPTIMCLKFreq+0x23e>
24107786:	f1b3 5f80 	cmp.w	r3, #268435456	@ 0x10000000
2410778a:	d009      	beq.n	241077a0 <RCCEx_GetLPTIMCLKFreq+0x250>
            break;
2410778c:	e023      	b.n	241077d6 <RCCEx_GetLPTIMCLKFreq+0x286>
            lptim_frequency = HAL_RCCEx_GetPLL1CLKFreq();
2410778e:	f7fe fb37 	bl	24105e00 <HAL_RCCEx_GetPLL1CLKFreq>
24107792:	60f8      	str	r0, [r7, #12]
            lptim_frequency = lptim_frequency / ic_divider;
24107794:	68fa      	ldr	r2, [r7, #12]
24107796:	68bb      	ldr	r3, [r7, #8]
24107798:	fbb2 f3f3 	udiv	r3, r2, r3
2410779c:	60fb      	str	r3, [r7, #12]
            break;
2410779e:	e01b      	b.n	241077d8 <RCCEx_GetLPTIMCLKFreq+0x288>
            lptim_frequency = HAL_RCCEx_GetPLL2CLKFreq();
241077a0:	f7fe fb74 	bl	24105e8c <HAL_RCCEx_GetPLL2CLKFreq>
241077a4:	60f8      	str	r0, [r7, #12]
            lptim_frequency = lptim_frequency / ic_divider;
241077a6:	68fa      	ldr	r2, [r7, #12]
241077a8:	68bb      	ldr	r3, [r7, #8]
241077aa:	fbb2 f3f3 	udiv	r3, r2, r3
241077ae:	60fb      	str	r3, [r7, #12]
            break;
241077b0:	e012      	b.n	241077d8 <RCCEx_GetLPTIMCLKFreq+0x288>
            lptim_frequency = HAL_RCCEx_GetPLL3CLKFreq();
241077b2:	f7fe fbb1 	bl	24105f18 <HAL_RCCEx_GetPLL3CLKFreq>
241077b6:	60f8      	str	r0, [r7, #12]
            lptim_frequency = lptim_frequency / ic_divider;
241077b8:	68fa      	ldr	r2, [r7, #12]
241077ba:	68bb      	ldr	r3, [r7, #8]
241077bc:	fbb2 f3f3 	udiv	r3, r2, r3
241077c0:	60fb      	str	r3, [r7, #12]
            break;
241077c2:	e009      	b.n	241077d8 <RCCEx_GetLPTIMCLKFreq+0x288>
            lptim_frequency = HAL_RCCEx_GetPLL4CLKFreq();
241077c4:	f7fe fbee 	bl	24105fa4 <HAL_RCCEx_GetPLL4CLKFreq>
241077c8:	60f8      	str	r0, [r7, #12]
            lptim_frequency = lptim_frequency / ic_divider;
241077ca:	68fa      	ldr	r2, [r7, #12]
241077cc:	68bb      	ldr	r3, [r7, #8]
241077ce:	fbb2 f3f3 	udiv	r3, r2, r3
241077d2:	60fb      	str	r3, [r7, #12]
            break;
241077d4:	e000      	b.n	241077d8 <RCCEx_GetLPTIMCLKFreq+0x288>
            break;
241077d6:	bf00      	nop
      break;
241077d8:	e059      	b.n	2410788e <RCCEx_GetLPTIMCLKFreq+0x33e>
      if (LL_RCC_LSE_IsReady() != 0U)
241077da:	f7fa f8d9 	bl	24101990 <LL_RCC_LSE_IsReady>
241077de:	4603      	mov	r3, r0
241077e0:	2b00      	cmp	r3, #0
241077e2:	d056      	beq.n	24107892 <RCCEx_GetLPTIMCLKFreq+0x342>
        lptim_frequency = LSE_VALUE;
241077e4:	f44f 4300 	mov.w	r3, #32768	@ 0x8000
241077e8:	60fb      	str	r3, [r7, #12]
      break;
241077ea:	e052      	b.n	24107892 <RCCEx_GetLPTIMCLKFreq+0x342>
241077ec:	0705182c 	.word	0x0705182c
241077f0:	0705142c 	.word	0x0705142c
241077f4:	0705102c 	.word	0x0705102c
241077f8:	07050c2c 	.word	0x07050c2c
241077fc:	0705082c 	.word	0x0705082c
24107800:	0704182c 	.word	0x0704182c
24107804:	0704142c 	.word	0x0704142c
24107808:	0704102c 	.word	0x0704102c
2410780c:	07040c2c 	.word	0x07040c2c
24107810:	0704082c 	.word	0x0704082c
24107814:	0703182c 	.word	0x0703182c
24107818:	0703142c 	.word	0x0703142c
2410781c:	0703102c 	.word	0x0703102c
24107820:	07030c2c 	.word	0x07030c2c
24107824:	0703082c 	.word	0x0703082c
24107828:	0702182c 	.word	0x0702182c
2410782c:	0702142c 	.word	0x0702142c
24107830:	0702102c 	.word	0x0702102c
24107834:	07020c2c 	.word	0x07020c2c
24107838:	0702082c 	.word	0x0702082c
2410783c:	0701182c 	.word	0x0701182c
24107840:	0701142c 	.word	0x0701142c
24107844:	0701102c 	.word	0x0701102c
24107848:	07010c2c 	.word	0x07010c2c
2410784c:	0701082c 	.word	0x0701082c
24107850:	0700182c 	.word	0x0700182c
24107854:	0700142c 	.word	0x0700142c
24107858:	0700102c 	.word	0x0700102c
2410785c:	0700082c 	.word	0x0700082c
24107860:	07000c2c 	.word	0x07000c2c
      if (LL_RCC_LSI_IsReady() != 0U)
24107864:	f7fa f8a6 	bl	241019b4 <LL_RCC_LSI_IsReady>
24107868:	4603      	mov	r3, r0
2410786a:	2b00      	cmp	r3, #0
2410786c:	d013      	beq.n	24107896 <RCCEx_GetLPTIMCLKFreq+0x346>
        lptim_frequency = LSI_VALUE;
2410786e:	f44f 43fa 	mov.w	r3, #32000	@ 0x7d00
24107872:	60fb      	str	r3, [r7, #12]
      break;
24107874:	e00f      	b.n	24107896 <RCCEx_GetLPTIMCLKFreq+0x346>
      lptim_frequency = LL_RCC_CALC_TIMG_FREQ(HAL_RCC_GetSysClockFreq(), LL_RCC_GetTIMPrescaler());
24107876:	f7f9 ff75 	bl	24101764 <HAL_RCC_GetSysClockFreq>
2410787a:	4604      	mov	r4, r0
2410787c:	f7fa fcb0 	bl	241021e0 <LL_RCC_GetTIMPrescaler>
24107880:	4603      	mov	r3, r0
24107882:	fa24 f303 	lsr.w	r3, r4, r3
24107886:	60fb      	str	r3, [r7, #12]
      break;
24107888:	e006      	b.n	24107898 <RCCEx_GetLPTIMCLKFreq+0x348>
      break;
2410788a:	bf00      	nop
2410788c:	e004      	b.n	24107898 <RCCEx_GetLPTIMCLKFreq+0x348>
      break;
2410788e:	bf00      	nop
24107890:	e002      	b.n	24107898 <RCCEx_GetLPTIMCLKFreq+0x348>
      break;
24107892:	bf00      	nop
24107894:	e000      	b.n	24107898 <RCCEx_GetLPTIMCLKFreq+0x348>
      break;
24107896:	bf00      	nop
  }

  return lptim_frequency;
24107898:	68fb      	ldr	r3, [r7, #12]
}
2410789a:	4618      	mov	r0, r3
2410789c:	3714      	adds	r7, #20
2410789e:	46bd      	mov	sp, r7
241078a0:	bd90      	pop	{r4, r7, pc}
241078a2:	bf00      	nop

241078a4 <RCCEx_GetLPUARTCLKFreq>:
  *         @arg @ref RCCEx_LPUART1_Clock_Source
  * @retval LPUART clock frequency (in Hz)
  *         - @ref  RCC_PERIPH_FREQUENCY_NO indicates that oscillator is not ready
  */
static uint32_t RCCEx_GetLPUARTCLKFreq(uint32_t LPUARTxSource)
{
241078a4:	b580      	push	{r7, lr}
241078a6:	b084      	sub	sp, #16
241078a8:	af00      	add	r7, sp, #0
241078aa:	6078      	str	r0, [r7, #4]
  uint32_t lpuart_frequency = RCC_PERIPH_FREQUENCY_NO;
241078ac:	2300      	movs	r3, #0
241078ae:	60fb      	str	r3, [r7, #12]
  uint32_t ic_divider;

  switch (LL_RCC_GetLPUARTClockSource(LPUARTxSource))
241078b0:	6878      	ldr	r0, [r7, #4]
241078b2:	f7fa fb97 	bl	24101fe4 <LL_RCC_GetLPUARTClockSource>
241078b6:	4603      	mov	r3, r0
241078b8:	f5b3 6fc0 	cmp.w	r3, #1536	@ 0x600
241078bc:	f000 80c0 	beq.w	24107a40 <RCCEx_GetLPUARTCLKFreq+0x19c>
241078c0:	f5b3 6fc0 	cmp.w	r3, #1536	@ 0x600
241078c4:	f200 80db 	bhi.w	24107a7e <RCCEx_GetLPUARTCLKFreq+0x1da>
241078c8:	f5b3 6fa0 	cmp.w	r3, #1280	@ 0x500
241078cc:	f000 80c6 	beq.w	24107a5c <RCCEx_GetLPUARTCLKFreq+0x1b8>
241078d0:	f5b3 6fa0 	cmp.w	r3, #1280	@ 0x500
241078d4:	f200 80d3 	bhi.w	24107a7e <RCCEx_GetLPUARTCLKFreq+0x1da>
241078d8:	f5b3 6f80 	cmp.w	r3, #1024	@ 0x400
241078dc:	f000 80c6 	beq.w	24107a6c <RCCEx_GetLPUARTCLKFreq+0x1c8>
241078e0:	f5b3 6f80 	cmp.w	r3, #1024	@ 0x400
241078e4:	f200 80cb 	bhi.w	24107a7e <RCCEx_GetLPUARTCLKFreq+0x1da>
241078e8:	f5b3 7f40 	cmp.w	r3, #768	@ 0x300
241078ec:	d065      	beq.n	241079ba <RCCEx_GetLPUARTCLKFreq+0x116>
241078ee:	f5b3 7f40 	cmp.w	r3, #768	@ 0x300
241078f2:	f200 80c4 	bhi.w	24107a7e <RCCEx_GetLPUARTCLKFreq+0x1da>
241078f6:	f5b3 7f00 	cmp.w	r3, #512	@ 0x200
241078fa:	d01a      	beq.n	24107932 <RCCEx_GetLPUARTCLKFreq+0x8e>
241078fc:	f5b3 7f00 	cmp.w	r3, #512	@ 0x200
24107900:	f200 80bd 	bhi.w	24107a7e <RCCEx_GetLPUARTCLKFreq+0x1da>
24107904:	2b00      	cmp	r3, #0
24107906:	d003      	beq.n	24107910 <RCCEx_GetLPUARTCLKFreq+0x6c>
24107908:	f5b3 7f80 	cmp.w	r3, #256	@ 0x100
2410790c:	d00c      	beq.n	24107928 <RCCEx_GetLPUARTCLKFreq+0x84>
      }
      break;

    default:
      /* Unexpected case */
      break;
2410790e:	e0b6      	b.n	24107a7e <RCCEx_GetLPUARTCLKFreq+0x1da>
      lpuart_frequency = RCCEx_GetPCLK4Freq(RCCEx_GetHCLKFreq(HAL_RCC_GetSysClockFreq()));
24107910:	f7f9 ff28 	bl	24101764 <HAL_RCC_GetSysClockFreq>
24107914:	4603      	mov	r3, r0
24107916:	4618      	mov	r0, r3
24107918:	f7fe fb8a 	bl	24106030 <RCCEx_GetHCLKFreq>
2410791c:	4603      	mov	r3, r0
2410791e:	4618      	mov	r0, r3
24107920:	f7fe fbb8 	bl	24106094 <RCCEx_GetPCLK4Freq>
24107924:	60f8      	str	r0, [r7, #12]
      break;
24107926:	e0b5      	b.n	24107a94 <RCCEx_GetLPUARTCLKFreq+0x1f0>
      lpuart_frequency = RCCEx_GetCLKPCLKFreq(LL_RCC_CLKP_CLKSOURCE);
24107928:	2007      	movs	r0, #7
2410792a:	f7fe fe6d 	bl	24106608 <RCCEx_GetCLKPCLKFreq>
2410792e:	60f8      	str	r0, [r7, #12]
      break;
24107930:	e0b0      	b.n	24107a94 <RCCEx_GetLPUARTCLKFreq+0x1f0>
      if (LL_RCC_IC9_IsEnabled() != 0U)
24107932:	f7fb f811 	bl	24102958 <LL_RCC_IC9_IsEnabled>
24107936:	4603      	mov	r3, r0
24107938:	2b00      	cmp	r3, #0
2410793a:	f000 80a2 	beq.w	24107a82 <RCCEx_GetLPUARTCLKFreq+0x1de>
        ic_divider = LL_RCC_IC9_GetDivider();
2410793e:	f7fb f82d 	bl	2410299c <LL_RCC_IC9_GetDivider>
24107942:	60b8      	str	r0, [r7, #8]
        switch (LL_RCC_IC9_GetSource())
24107944:	f7fb f81c 	bl	24102980 <LL_RCC_IC9_GetSource>
24107948:	4603      	mov	r3, r0
2410794a:	f1b3 5f40 	cmp.w	r3, #805306368	@ 0x30000000
2410794e:	d029      	beq.n	241079a4 <RCCEx_GetLPUARTCLKFreq+0x100>
24107950:	f1b3 5f40 	cmp.w	r3, #805306368	@ 0x30000000
24107954:	d82f      	bhi.n	241079b6 <RCCEx_GetLPUARTCLKFreq+0x112>
24107956:	f1b3 5f00 	cmp.w	r3, #536870912	@ 0x20000000
2410795a:	d01a      	beq.n	24107992 <RCCEx_GetLPUARTCLKFreq+0xee>
2410795c:	f1b3 5f00 	cmp.w	r3, #536870912	@ 0x20000000
24107960:	d829      	bhi.n	241079b6 <RCCEx_GetLPUARTCLKFreq+0x112>
24107962:	2b00      	cmp	r3, #0
24107964:	d003      	beq.n	2410796e <RCCEx_GetLPUARTCLKFreq+0xca>
24107966:	f1b3 5f80 	cmp.w	r3, #268435456	@ 0x10000000
2410796a:	d009      	beq.n	24107980 <RCCEx_GetLPUARTCLKFreq+0xdc>
            break;
2410796c:	e023      	b.n	241079b6 <RCCEx_GetLPUARTCLKFreq+0x112>
            lpuart_frequency = HAL_RCCEx_GetPLL1CLKFreq();
2410796e:	f7fe fa47 	bl	24105e00 <HAL_RCCEx_GetPLL1CLKFreq>
24107972:	60f8      	str	r0, [r7, #12]
            lpuart_frequency = lpuart_frequency / ic_divider;
24107974:	68fa      	ldr	r2, [r7, #12]
24107976:	68bb      	ldr	r3, [r7, #8]
24107978:	fbb2 f3f3 	udiv	r3, r2, r3
2410797c:	60fb      	str	r3, [r7, #12]
            break;
2410797e:	e01b      	b.n	241079b8 <RCCEx_GetLPUARTCLKFreq+0x114>
            lpuart_frequency = HAL_RCCEx_GetPLL2CLKFreq();
24107980:	f7fe fa84 	bl	24105e8c <HAL_RCCEx_GetPLL2CLKFreq>
24107984:	60f8      	str	r0, [r7, #12]
            lpuart_frequency = lpuart_frequency / ic_divider;
24107986:	68fa      	ldr	r2, [r7, #12]
24107988:	68bb      	ldr	r3, [r7, #8]
2410798a:	fbb2 f3f3 	udiv	r3, r2, r3
2410798e:	60fb      	str	r3, [r7, #12]
            break;
24107990:	e012      	b.n	241079b8 <RCCEx_GetLPUARTCLKFreq+0x114>
            lpuart_frequency = HAL_RCCEx_GetPLL3CLKFreq();
24107992:	f7fe fac1 	bl	24105f18 <HAL_RCCEx_GetPLL3CLKFreq>
24107996:	60f8      	str	r0, [r7, #12]
            lpuart_frequency = lpuart_frequency / ic_divider;
24107998:	68fa      	ldr	r2, [r7, #12]
2410799a:	68bb      	ldr	r3, [r7, #8]
2410799c:	fbb2 f3f3 	udiv	r3, r2, r3
241079a0:	60fb      	str	r3, [r7, #12]
            break;
241079a2:	e009      	b.n	241079b8 <RCCEx_GetLPUARTCLKFreq+0x114>
            lpuart_frequency = HAL_RCCEx_GetPLL4CLKFreq();
241079a4:	f7fe fafe 	bl	24105fa4 <HAL_RCCEx_GetPLL4CLKFreq>
241079a8:	60f8      	str	r0, [r7, #12]
            lpuart_frequency = lpuart_frequency / ic_divider;
241079aa:	68fa      	ldr	r2, [r7, #12]
241079ac:	68bb      	ldr	r3, [r7, #8]
241079ae:	fbb2 f3f3 	udiv	r3, r2, r3
241079b2:	60fb      	str	r3, [r7, #12]
            break;
241079b4:	e000      	b.n	241079b8 <RCCEx_GetLPUARTCLKFreq+0x114>
            break;
241079b6:	bf00      	nop
      break;
241079b8:	e063      	b.n	24107a82 <RCCEx_GetLPUARTCLKFreq+0x1de>
      if (LL_RCC_IC14_IsEnabled() != 0U)
241079ba:	f7fb f8cd 	bl	24102b58 <LL_RCC_IC14_IsEnabled>
241079be:	4603      	mov	r3, r0
241079c0:	2b00      	cmp	r3, #0
241079c2:	d060      	beq.n	24107a86 <RCCEx_GetLPUARTCLKFreq+0x1e2>
        ic_divider = LL_RCC_IC14_GetDivider();
241079c4:	f7fb f8ea 	bl	24102b9c <LL_RCC_IC14_GetDivider>
241079c8:	60b8      	str	r0, [r7, #8]
        switch (LL_RCC_IC14_GetSource())
241079ca:	f7fb f8d9 	bl	24102b80 <LL_RCC_IC14_GetSource>
241079ce:	4603      	mov	r3, r0
241079d0:	f1b3 5f40 	cmp.w	r3, #805306368	@ 0x30000000
241079d4:	d029      	beq.n	24107a2a <RCCEx_GetLPUARTCLKFreq+0x186>
241079d6:	f1b3 5f40 	cmp.w	r3, #805306368	@ 0x30000000
241079da:	d82f      	bhi.n	24107a3c <RCCEx_GetLPUARTCLKFreq+0x198>
241079dc:	f1b3 5f00 	cmp.w	r3, #536870912	@ 0x20000000
241079e0:	d01a      	beq.n	24107a18 <RCCEx_GetLPUARTCLKFreq+0x174>
241079e2:	f1b3 5f00 	cmp.w	r3, #536870912	@ 0x20000000
241079e6:	d829      	bhi.n	24107a3c <RCCEx_GetLPUARTCLKFreq+0x198>
241079e8:	2b00      	cmp	r3, #0
241079ea:	d003      	beq.n	241079f4 <RCCEx_GetLPUARTCLKFreq+0x150>
241079ec:	f1b3 5f80 	cmp.w	r3, #268435456	@ 0x10000000
241079f0:	d009      	beq.n	24107a06 <RCCEx_GetLPUARTCLKFreq+0x162>
            break;
241079f2:	e023      	b.n	24107a3c <RCCEx_GetLPUARTCLKFreq+0x198>
            lpuart_frequency = HAL_RCCEx_GetPLL1CLKFreq();
241079f4:	f7fe fa04 	bl	24105e00 <HAL_RCCEx_GetPLL1CLKFreq>
241079f8:	60f8      	str	r0, [r7, #12]
            lpuart_frequency = lpuart_frequency / ic_divider;
241079fa:	68fa      	ldr	r2, [r7, #12]
241079fc:	68bb      	ldr	r3, [r7, #8]
241079fe:	fbb2 f3f3 	udiv	r3, r2, r3
24107a02:	60fb      	str	r3, [r7, #12]
            break;
24107a04:	e01b      	b.n	24107a3e <RCCEx_GetLPUARTCLKFreq+0x19a>
            lpuart_frequency = HAL_RCCEx_GetPLL2CLKFreq();
24107a06:	f7fe fa41 	bl	24105e8c <HAL_RCCEx_GetPLL2CLKFreq>
24107a0a:	60f8      	str	r0, [r7, #12]
            lpuart_frequency = lpuart_frequency / ic_divider;
24107a0c:	68fa      	ldr	r2, [r7, #12]
24107a0e:	68bb      	ldr	r3, [r7, #8]
24107a10:	fbb2 f3f3 	udiv	r3, r2, r3
24107a14:	60fb      	str	r3, [r7, #12]
            break;
24107a16:	e012      	b.n	24107a3e <RCCEx_GetLPUARTCLKFreq+0x19a>
            lpuart_frequency = HAL_RCCEx_GetPLL3CLKFreq();
24107a18:	f7fe fa7e 	bl	24105f18 <HAL_RCCEx_GetPLL3CLKFreq>
24107a1c:	60f8      	str	r0, [r7, #12]
            lpuart_frequency = lpuart_frequency / ic_divider;
24107a1e:	68fa      	ldr	r2, [r7, #12]
24107a20:	68bb      	ldr	r3, [r7, #8]
24107a22:	fbb2 f3f3 	udiv	r3, r2, r3
24107a26:	60fb      	str	r3, [r7, #12]
            break;
24107a28:	e009      	b.n	24107a3e <RCCEx_GetLPUARTCLKFreq+0x19a>
            lpuart_frequency = HAL_RCCEx_GetPLL4CLKFreq();
24107a2a:	f7fe fabb 	bl	24105fa4 <HAL_RCCEx_GetPLL4CLKFreq>
24107a2e:	60f8      	str	r0, [r7, #12]
            lpuart_frequency = lpuart_frequency / ic_divider;
24107a30:	68fa      	ldr	r2, [r7, #12]
24107a32:	68bb      	ldr	r3, [r7, #8]
24107a34:	fbb2 f3f3 	udiv	r3, r2, r3
24107a38:	60fb      	str	r3, [r7, #12]
            break;
24107a3a:	e000      	b.n	24107a3e <RCCEx_GetLPUARTCLKFreq+0x19a>
            break;
24107a3c:	bf00      	nop
      break;
24107a3e:	e022      	b.n	24107a86 <RCCEx_GetLPUARTCLKFreq+0x1e2>
      if (LL_RCC_HSI_IsReady() != 0U)
24107a40:	f7f9 ff66 	bl	24101910 <LL_RCC_HSI_IsReady>
24107a44:	4603      	mov	r3, r0
24107a46:	2b00      	cmp	r3, #0
24107a48:	d01f      	beq.n	24107a8a <RCCEx_GetLPUARTCLKFreq+0x1e6>
        lpuart_frequency = HSI_VALUE >> (LL_RCC_HSI_GetDivider() >> RCC_HSICFGR_HSIDIV_Pos);
24107a4a:	f7f9 ff73 	bl	24101934 <LL_RCC_HSI_GetDivider>
24107a4e:	4603      	mov	r3, r0
24107a50:	09db      	lsrs	r3, r3, #7
24107a52:	4a13      	ldr	r2, [pc, #76]	@ (24107aa0 <RCCEx_GetLPUARTCLKFreq+0x1fc>)
24107a54:	fa22 f303 	lsr.w	r3, r2, r3
24107a58:	60fb      	str	r3, [r7, #12]
      break;
24107a5a:	e016      	b.n	24107a8a <RCCEx_GetLPUARTCLKFreq+0x1e6>
      if (LL_RCC_MSI_IsReady() != 0U)
24107a5c:	f7f9 ff78 	bl	24101950 <LL_RCC_MSI_IsReady>
24107a60:	4603      	mov	r3, r0
24107a62:	2b00      	cmp	r3, #0
24107a64:	d013      	beq.n	24107a8e <RCCEx_GetLPUARTCLKFreq+0x1ea>
        lpuart_frequency = MSI_VALUE;
24107a66:	4b0f      	ldr	r3, [pc, #60]	@ (24107aa4 <RCCEx_GetLPUARTCLKFreq+0x200>)
24107a68:	60fb      	str	r3, [r7, #12]
      break;
24107a6a:	e010      	b.n	24107a8e <RCCEx_GetLPUARTCLKFreq+0x1ea>
      if (LL_RCC_LSE_IsReady() != 0U)
24107a6c:	f7f9 ff90 	bl	24101990 <LL_RCC_LSE_IsReady>
24107a70:	4603      	mov	r3, r0
24107a72:	2b00      	cmp	r3, #0
24107a74:	d00d      	beq.n	24107a92 <RCCEx_GetLPUARTCLKFreq+0x1ee>
        lpuart_frequency = LSE_VALUE;
24107a76:	f44f 4300 	mov.w	r3, #32768	@ 0x8000
24107a7a:	60fb      	str	r3, [r7, #12]
      break;
24107a7c:	e009      	b.n	24107a92 <RCCEx_GetLPUARTCLKFreq+0x1ee>
      break;
24107a7e:	bf00      	nop
24107a80:	e008      	b.n	24107a94 <RCCEx_GetLPUARTCLKFreq+0x1f0>
      break;
24107a82:	bf00      	nop
24107a84:	e006      	b.n	24107a94 <RCCEx_GetLPUARTCLKFreq+0x1f0>
      break;
24107a86:	bf00      	nop
24107a88:	e004      	b.n	24107a94 <RCCEx_GetLPUARTCLKFreq+0x1f0>
      break;
24107a8a:	bf00      	nop
24107a8c:	e002      	b.n	24107a94 <RCCEx_GetLPUARTCLKFreq+0x1f0>
      break;
24107a8e:	bf00      	nop
24107a90:	e000      	b.n	24107a94 <RCCEx_GetLPUARTCLKFreq+0x1f0>
      break;
24107a92:	bf00      	nop
  }

  return lpuart_frequency;
24107a94:	68fb      	ldr	r3, [r7, #12]
}
24107a96:	4618      	mov	r0, r3
24107a98:	3710      	adds	r7, #16
24107a9a:	46bd      	mov	sp, r7
24107a9c:	bd80      	pop	{r7, pc}
24107a9e:	bf00      	nop
24107aa0:	03d09000 	.word	0x03d09000
24107aa4:	003d0900 	.word	0x003d0900

24107aa8 <RCCEx_GetLTDCCLKFreq>:
  *         @arg @ref RCCEx_LTDC_Clock_Source
  * @retval LTDC clock frequency (in Hz)
  *         - @ref  RCC_PERIPH_FREQUENCY_NO indicates that oscillator is not ready
  */
static uint32_t RCCEx_GetLTDCCLKFreq(uint32_t LTDCxSource)
{
24107aa8:	b580      	push	{r7, lr}
24107aaa:	b084      	sub	sp, #16
24107aac:	af00      	add	r7, sp, #0
24107aae:	6078      	str	r0, [r7, #4]
  uint32_t ltdc_frequency = RCC_PERIPH_FREQUENCY_NO;
24107ab0:	2300      	movs	r3, #0
24107ab2:	60fb      	str	r3, [r7, #12]
  uint32_t ic_divider;

  switch (LL_RCC_GetLTDCClockSource(LTDCxSource))
24107ab4:	6878      	ldr	r0, [r7, #4]
24107ab6:	f7fa faa7 	bl	24102008 <LL_RCC_GetLTDCClockSource>
24107aba:	4603      	mov	r3, r0
24107abc:	f1b3 7f40 	cmp.w	r3, #50331648	@ 0x3000000
24107ac0:	d062      	beq.n	24107b88 <RCCEx_GetLTDCCLKFreq+0xe0>
24107ac2:	f1b3 7f40 	cmp.w	r3, #50331648	@ 0x3000000
24107ac6:	d86d      	bhi.n	24107ba4 <RCCEx_GetLTDCCLKFreq+0xfc>
24107ac8:	f1b3 7f00 	cmp.w	r3, #33554432	@ 0x2000000
24107acc:	d019      	beq.n	24107b02 <RCCEx_GetLTDCCLKFreq+0x5a>
24107ace:	f1b3 7f00 	cmp.w	r3, #33554432	@ 0x2000000
24107ad2:	d867      	bhi.n	24107ba4 <RCCEx_GetLTDCCLKFreq+0xfc>
24107ad4:	2b00      	cmp	r3, #0
24107ad6:	d003      	beq.n	24107ae0 <RCCEx_GetLTDCCLKFreq+0x38>
24107ad8:	f1b3 7f80 	cmp.w	r3, #16777216	@ 0x1000000
24107adc:	d00c      	beq.n	24107af8 <RCCEx_GetLTDCCLKFreq+0x50>
      }
      break;

    default:
      /* Unexpected case */
      break;
24107ade:	e061      	b.n	24107ba4 <RCCEx_GetLTDCCLKFreq+0xfc>
      ltdc_frequency = RCCEx_GetPCLK5Freq(RCCEx_GetHCLKFreq(HAL_RCC_GetSysClockFreq()));
24107ae0:	f7f9 fe40 	bl	24101764 <HAL_RCC_GetSysClockFreq>
24107ae4:	4603      	mov	r3, r0
24107ae6:	4618      	mov	r0, r3
24107ae8:	f7fe faa2 	bl	24106030 <RCCEx_GetHCLKFreq>
24107aec:	4603      	mov	r3, r0
24107aee:	4618      	mov	r0, r3
24107af0:	f7fe fae1 	bl	241060b6 <RCCEx_GetPCLK5Freq>
24107af4:	60f8      	str	r0, [r7, #12]
      break;
24107af6:	e05a      	b.n	24107bae <RCCEx_GetLTDCCLKFreq+0x106>
      ltdc_frequency = RCCEx_GetCLKPCLKFreq(LL_RCC_CLKP_CLKSOURCE);
24107af8:	2007      	movs	r0, #7
24107afa:	f7fe fd85 	bl	24106608 <RCCEx_GetCLKPCLKFreq>
24107afe:	60f8      	str	r0, [r7, #12]
      break;
24107b00:	e055      	b.n	24107bae <RCCEx_GetLTDCCLKFreq+0x106>
      if (LL_RCC_IC16_IsEnabled() != 0U)
24107b02:	f7fb f8a9 	bl	24102c58 <LL_RCC_IC16_IsEnabled>
24107b06:	4603      	mov	r3, r0
24107b08:	2b00      	cmp	r3, #0
24107b0a:	d04d      	beq.n	24107ba8 <RCCEx_GetLTDCCLKFreq+0x100>
        ic_divider = LL_RCC_IC16_GetDivider();
24107b0c:	f7fb f8c6 	bl	24102c9c <LL_RCC_IC16_GetDivider>
24107b10:	60b8      	str	r0, [r7, #8]
        switch (LL_RCC_IC16_GetSource())
24107b12:	f7fb f8b5 	bl	24102c80 <LL_RCC_IC16_GetSource>
24107b16:	4603      	mov	r3, r0
24107b18:	f1b3 5f40 	cmp.w	r3, #805306368	@ 0x30000000
24107b1c:	d029      	beq.n	24107b72 <RCCEx_GetLTDCCLKFreq+0xca>
24107b1e:	f1b3 5f40 	cmp.w	r3, #805306368	@ 0x30000000
24107b22:	d82f      	bhi.n	24107b84 <RCCEx_GetLTDCCLKFreq+0xdc>
24107b24:	f1b3 5f00 	cmp.w	r3, #536870912	@ 0x20000000
24107b28:	d01a      	beq.n	24107b60 <RCCEx_GetLTDCCLKFreq+0xb8>
24107b2a:	f1b3 5f00 	cmp.w	r3, #536870912	@ 0x20000000
24107b2e:	d829      	bhi.n	24107b84 <RCCEx_GetLTDCCLKFreq+0xdc>
24107b30:	2b00      	cmp	r3, #0
24107b32:	d003      	beq.n	24107b3c <RCCEx_GetLTDCCLKFreq+0x94>
24107b34:	f1b3 5f80 	cmp.w	r3, #268435456	@ 0x10000000
24107b38:	d009      	beq.n	24107b4e <RCCEx_GetLTDCCLKFreq+0xa6>
            break;
24107b3a:	e023      	b.n	24107b84 <RCCEx_GetLTDCCLKFreq+0xdc>
            ltdc_frequency = HAL_RCCEx_GetPLL1CLKFreq();
24107b3c:	f7fe f960 	bl	24105e00 <HAL_RCCEx_GetPLL1CLKFreq>
24107b40:	60f8      	str	r0, [r7, #12]
            ltdc_frequency = ltdc_frequency / ic_divider;
24107b42:	68fa      	ldr	r2, [r7, #12]
24107b44:	68bb      	ldr	r3, [r7, #8]
24107b46:	fbb2 f3f3 	udiv	r3, r2, r3
24107b4a:	60fb      	str	r3, [r7, #12]
            break;
24107b4c:	e01b      	b.n	24107b86 <RCCEx_GetLTDCCLKFreq+0xde>
            ltdc_frequency = HAL_RCCEx_GetPLL2CLKFreq();
24107b4e:	f7fe f99d 	bl	24105e8c <HAL_RCCEx_GetPLL2CLKFreq>
24107b52:	60f8      	str	r0, [r7, #12]
            ltdc_frequency = ltdc_frequency / ic_divider;
24107b54:	68fa      	ldr	r2, [r7, #12]
24107b56:	68bb      	ldr	r3, [r7, #8]
24107b58:	fbb2 f3f3 	udiv	r3, r2, r3
24107b5c:	60fb      	str	r3, [r7, #12]
            break;
24107b5e:	e012      	b.n	24107b86 <RCCEx_GetLTDCCLKFreq+0xde>
            ltdc_frequency = HAL_RCCEx_GetPLL3CLKFreq();
24107b60:	f7fe f9da 	bl	24105f18 <HAL_RCCEx_GetPLL3CLKFreq>
24107b64:	60f8      	str	r0, [r7, #12]
            ltdc_frequency = ltdc_frequency / ic_divider;
24107b66:	68fa      	ldr	r2, [r7, #12]
24107b68:	68bb      	ldr	r3, [r7, #8]
24107b6a:	fbb2 f3f3 	udiv	r3, r2, r3
24107b6e:	60fb      	str	r3, [r7, #12]
            break;
24107b70:	e009      	b.n	24107b86 <RCCEx_GetLTDCCLKFreq+0xde>
            ltdc_frequency = HAL_RCCEx_GetPLL4CLKFreq();
24107b72:	f7fe fa17 	bl	24105fa4 <HAL_RCCEx_GetPLL4CLKFreq>
24107b76:	60f8      	str	r0, [r7, #12]
            ltdc_frequency = ltdc_frequency / ic_divider;
24107b78:	68fa      	ldr	r2, [r7, #12]
24107b7a:	68bb      	ldr	r3, [r7, #8]
24107b7c:	fbb2 f3f3 	udiv	r3, r2, r3
24107b80:	60fb      	str	r3, [r7, #12]
            break;
24107b82:	e000      	b.n	24107b86 <RCCEx_GetLTDCCLKFreq+0xde>
            break;
24107b84:	bf00      	nop
      break;
24107b86:	e00f      	b.n	24107ba8 <RCCEx_GetLTDCCLKFreq+0x100>
      if (LL_RCC_HSI_IsReady() != 0U)
24107b88:	f7f9 fec2 	bl	24101910 <LL_RCC_HSI_IsReady>
24107b8c:	4603      	mov	r3, r0
24107b8e:	2b00      	cmp	r3, #0
24107b90:	d00c      	beq.n	24107bac <RCCEx_GetLTDCCLKFreq+0x104>
        ltdc_frequency = HSI_VALUE >> (LL_RCC_HSI_GetDivider() >> RCC_HSICFGR_HSIDIV_Pos);
24107b92:	f7f9 fecf 	bl	24101934 <LL_RCC_HSI_GetDivider>
24107b96:	4603      	mov	r3, r0
24107b98:	09db      	lsrs	r3, r3, #7
24107b9a:	4a07      	ldr	r2, [pc, #28]	@ (24107bb8 <RCCEx_GetLTDCCLKFreq+0x110>)
24107b9c:	fa22 f303 	lsr.w	r3, r2, r3
24107ba0:	60fb      	str	r3, [r7, #12]
      break;
24107ba2:	e003      	b.n	24107bac <RCCEx_GetLTDCCLKFreq+0x104>
      break;
24107ba4:	bf00      	nop
24107ba6:	e002      	b.n	24107bae <RCCEx_GetLTDCCLKFreq+0x106>
      break;
24107ba8:	bf00      	nop
24107baa:	e000      	b.n	24107bae <RCCEx_GetLTDCCLKFreq+0x106>
      break;
24107bac:	bf00      	nop
  }

  return ltdc_frequency;
24107bae:	68fb      	ldr	r3, [r7, #12]
}
24107bb0:	4618      	mov	r0, r3
24107bb2:	3710      	adds	r7, #16
24107bb4:	46bd      	mov	sp, r7
24107bb6:	bd80      	pop	{r7, pc}
24107bb8:	03d09000 	.word	0x03d09000

24107bbc <RCCEx_GetMDFCLKFreq>:
  *         @arg @ref RCCEx_MDF1_Clock_Source
  * @retval MDF clock frequency (in Hz)
  *         - @ref  RCC_PERIPH_FREQUENCY_NO indicates that oscillator is not ready
  */
static uint32_t RCCEx_GetMDFCLKFreq(uint32_t MDFxSource)
{
24107bbc:	b590      	push	{r4, r7, lr}
24107bbe:	b085      	sub	sp, #20
24107bc0:	af00      	add	r7, sp, #0
24107bc2:	6078      	str	r0, [r7, #4]
  uint32_t adf_frequency = RCC_PERIPH_FREQUENCY_NO;
24107bc4:	2300      	movs	r3, #0
24107bc6:	60fb      	str	r3, [r7, #12]
  uint32_t ic_divider;

  switch (LL_RCC_GetMDFClockSource(MDFxSource))
24107bc8:	6878      	ldr	r0, [r7, #4]
24107bca:	f7fa fa2f 	bl	2410202c <LL_RCC_GetMDFClockSource>
24107bce:	4603      	mov	r3, r0
24107bd0:	f5b3 2fe0 	cmp.w	r3, #458752	@ 0x70000
24107bd4:	f000 80dd 	beq.w	24107d92 <RCCEx_GetMDFCLKFreq+0x1d6>
24107bd8:	f5b3 2fe0 	cmp.w	r3, #458752	@ 0x70000
24107bdc:	f200 80e3 	bhi.w	24107da6 <RCCEx_GetMDFCLKFreq+0x1ea>
24107be0:	f5b3 2fc0 	cmp.w	r3, #393216	@ 0x60000
24107be4:	f000 80d2 	beq.w	24107d8c <RCCEx_GetMDFCLKFreq+0x1d0>
24107be8:	f5b3 2fc0 	cmp.w	r3, #393216	@ 0x60000
24107bec:	f200 80db 	bhi.w	24107da6 <RCCEx_GetMDFCLKFreq+0x1ea>
24107bf0:	f5b3 2fa0 	cmp.w	r3, #327680	@ 0x50000
24107bf4:	f000 80b4 	beq.w	24107d60 <RCCEx_GetMDFCLKFreq+0x1a4>
24107bf8:	f5b3 2fa0 	cmp.w	r3, #327680	@ 0x50000
24107bfc:	f200 80d3 	bhi.w	24107da6 <RCCEx_GetMDFCLKFreq+0x1ea>
24107c00:	f5b3 2f80 	cmp.w	r3, #262144	@ 0x40000
24107c04:	f000 80ba 	beq.w	24107d7c <RCCEx_GetMDFCLKFreq+0x1c0>
24107c08:	f5b3 2f80 	cmp.w	r3, #262144	@ 0x40000
24107c0c:	f200 80cb 	bhi.w	24107da6 <RCCEx_GetMDFCLKFreq+0x1ea>
24107c10:	f5b3 3f40 	cmp.w	r3, #196608	@ 0x30000
24107c14:	d061      	beq.n	24107cda <RCCEx_GetMDFCLKFreq+0x11e>
24107c16:	f5b3 3f40 	cmp.w	r3, #196608	@ 0x30000
24107c1a:	f200 80c4 	bhi.w	24107da6 <RCCEx_GetMDFCLKFreq+0x1ea>
24107c1e:	f5b3 3f00 	cmp.w	r3, #131072	@ 0x20000
24107c22:	d016      	beq.n	24107c52 <RCCEx_GetMDFCLKFreq+0x96>
24107c24:	f5b3 3f00 	cmp.w	r3, #131072	@ 0x20000
24107c28:	f200 80bd 	bhi.w	24107da6 <RCCEx_GetMDFCLKFreq+0x1ea>
24107c2c:	2b00      	cmp	r3, #0
24107c2e:	d003      	beq.n	24107c38 <RCCEx_GetMDFCLKFreq+0x7c>
24107c30:	f5b3 3f80 	cmp.w	r3, #65536	@ 0x10000
24107c34:	d008      	beq.n	24107c48 <RCCEx_GetMDFCLKFreq+0x8c>
      adf_frequency = LL_RCC_CALC_TIMG_FREQ(HAL_RCC_GetSysClockFreq(), LL_RCC_GetTIMPrescaler());
      break;

    default:
      /* Unexpected case */
      break;
24107c36:	e0b6      	b.n	24107da6 <RCCEx_GetMDFCLKFreq+0x1ea>
      adf_frequency = RCCEx_GetHCLKFreq(HAL_RCC_GetSysClockFreq());
24107c38:	f7f9 fd94 	bl	24101764 <HAL_RCC_GetSysClockFreq>
24107c3c:	4603      	mov	r3, r0
24107c3e:	4618      	mov	r0, r3
24107c40:	f7fe f9f6 	bl	24106030 <RCCEx_GetHCLKFreq>
24107c44:	60f8      	str	r0, [r7, #12]
      break;
24107c46:	e0b7      	b.n	24107db8 <RCCEx_GetMDFCLKFreq+0x1fc>
      adf_frequency = RCCEx_GetCLKPCLKFreq(LL_RCC_CLKP_CLKSOURCE);
24107c48:	2007      	movs	r0, #7
24107c4a:	f7fe fcdd 	bl	24106608 <RCCEx_GetCLKPCLKFreq>
24107c4e:	60f8      	str	r0, [r7, #12]
      break;
24107c50:	e0b2      	b.n	24107db8 <RCCEx_GetMDFCLKFreq+0x1fc>
      if (LL_RCC_IC7_IsEnabled() != 0U)
24107c52:	f7fa fe01 	bl	24102858 <LL_RCC_IC7_IsEnabled>
24107c56:	4603      	mov	r3, r0
24107c58:	2b00      	cmp	r3, #0
24107c5a:	f000 80a6 	beq.w	24107daa <RCCEx_GetMDFCLKFreq+0x1ee>
        ic_divider = LL_RCC_IC7_GetDivider();
24107c5e:	f7fa fe1d 	bl	2410289c <LL_RCC_IC7_GetDivider>
24107c62:	60b8      	str	r0, [r7, #8]
        switch (LL_RCC_IC7_GetSource())
24107c64:	f7fa fe0c 	bl	24102880 <LL_RCC_IC7_GetSource>
24107c68:	4603      	mov	r3, r0
24107c6a:	f1b3 5f40 	cmp.w	r3, #805306368	@ 0x30000000
24107c6e:	d029      	beq.n	24107cc4 <RCCEx_GetMDFCLKFreq+0x108>
24107c70:	f1b3 5f40 	cmp.w	r3, #805306368	@ 0x30000000
24107c74:	d82f      	bhi.n	24107cd6 <RCCEx_GetMDFCLKFreq+0x11a>
24107c76:	f1b3 5f00 	cmp.w	r3, #536870912	@ 0x20000000
24107c7a:	d01a      	beq.n	24107cb2 <RCCEx_GetMDFCLKFreq+0xf6>
24107c7c:	f1b3 5f00 	cmp.w	r3, #536870912	@ 0x20000000
24107c80:	d829      	bhi.n	24107cd6 <RCCEx_GetMDFCLKFreq+0x11a>
24107c82:	2b00      	cmp	r3, #0
24107c84:	d003      	beq.n	24107c8e <RCCEx_GetMDFCLKFreq+0xd2>
24107c86:	f1b3 5f80 	cmp.w	r3, #268435456	@ 0x10000000
24107c8a:	d009      	beq.n	24107ca0 <RCCEx_GetMDFCLKFreq+0xe4>
            break;
24107c8c:	e023      	b.n	24107cd6 <RCCEx_GetMDFCLKFreq+0x11a>
            adf_frequency = HAL_RCCEx_GetPLL1CLKFreq();
24107c8e:	f7fe f8b7 	bl	24105e00 <HAL_RCCEx_GetPLL1CLKFreq>
24107c92:	60f8      	str	r0, [r7, #12]
            adf_frequency = adf_frequency / ic_divider;
24107c94:	68fa      	ldr	r2, [r7, #12]
24107c96:	68bb      	ldr	r3, [r7, #8]
24107c98:	fbb2 f3f3 	udiv	r3, r2, r3
24107c9c:	60fb      	str	r3, [r7, #12]
            break;
24107c9e:	e01b      	b.n	24107cd8 <RCCEx_GetMDFCLKFreq+0x11c>
            adf_frequency = HAL_RCCEx_GetPLL2CLKFreq();
24107ca0:	f7fe f8f4 	bl	24105e8c <HAL_RCCEx_GetPLL2CLKFreq>
24107ca4:	60f8      	str	r0, [r7, #12]
            adf_frequency = adf_frequency / ic_divider;
24107ca6:	68fa      	ldr	r2, [r7, #12]
24107ca8:	68bb      	ldr	r3, [r7, #8]
24107caa:	fbb2 f3f3 	udiv	r3, r2, r3
24107cae:	60fb      	str	r3, [r7, #12]
            break;
24107cb0:	e012      	b.n	24107cd8 <RCCEx_GetMDFCLKFreq+0x11c>
            adf_frequency = HAL_RCCEx_GetPLL3CLKFreq();
24107cb2:	f7fe f931 	bl	24105f18 <HAL_RCCEx_GetPLL3CLKFreq>
24107cb6:	60f8      	str	r0, [r7, #12]
            adf_frequency = adf_frequency / ic_divider;
24107cb8:	68fa      	ldr	r2, [r7, #12]
24107cba:	68bb      	ldr	r3, [r7, #8]
24107cbc:	fbb2 f3f3 	udiv	r3, r2, r3
24107cc0:	60fb      	str	r3, [r7, #12]
            break;
24107cc2:	e009      	b.n	24107cd8 <RCCEx_GetMDFCLKFreq+0x11c>
            adf_frequency = HAL_RCCEx_GetPLL4CLKFreq();
24107cc4:	f7fe f96e 	bl	24105fa4 <HAL_RCCEx_GetPLL4CLKFreq>
24107cc8:	60f8      	str	r0, [r7, #12]
            adf_frequency = adf_frequency / ic_divider;
24107cca:	68fa      	ldr	r2, [r7, #12]
24107ccc:	68bb      	ldr	r3, [r7, #8]
24107cce:	fbb2 f3f3 	udiv	r3, r2, r3
24107cd2:	60fb      	str	r3, [r7, #12]
            break;
24107cd4:	e000      	b.n	24107cd8 <RCCEx_GetMDFCLKFreq+0x11c>
            break;
24107cd6:	bf00      	nop
      break;
24107cd8:	e067      	b.n	24107daa <RCCEx_GetMDFCLKFreq+0x1ee>
      if (LL_RCC_IC8_IsEnabled() != 0U)
24107cda:	f7fa fdfd 	bl	241028d8 <LL_RCC_IC8_IsEnabled>
24107cde:	4603      	mov	r3, r0
24107ce0:	2b00      	cmp	r3, #0
24107ce2:	d064      	beq.n	24107dae <RCCEx_GetMDFCLKFreq+0x1f2>
        ic_divider = LL_RCC_IC8_GetDivider();
24107ce4:	f7fa fe1a 	bl	2410291c <LL_RCC_IC8_GetDivider>
24107ce8:	60b8      	str	r0, [r7, #8]
        switch (LL_RCC_IC8_GetSource())
24107cea:	f7fa fe09 	bl	24102900 <LL_RCC_IC8_GetSource>
24107cee:	4603      	mov	r3, r0
24107cf0:	f1b3 5f40 	cmp.w	r3, #805306368	@ 0x30000000
24107cf4:	d029      	beq.n	24107d4a <RCCEx_GetMDFCLKFreq+0x18e>
24107cf6:	f1b3 5f40 	cmp.w	r3, #805306368	@ 0x30000000
24107cfa:	d82f      	bhi.n	24107d5c <RCCEx_GetMDFCLKFreq+0x1a0>
24107cfc:	f1b3 5f00 	cmp.w	r3, #536870912	@ 0x20000000
24107d00:	d01a      	beq.n	24107d38 <RCCEx_GetMDFCLKFreq+0x17c>
24107d02:	f1b3 5f00 	cmp.w	r3, #536870912	@ 0x20000000
24107d06:	d829      	bhi.n	24107d5c <RCCEx_GetMDFCLKFreq+0x1a0>
24107d08:	2b00      	cmp	r3, #0
24107d0a:	d003      	beq.n	24107d14 <RCCEx_GetMDFCLKFreq+0x158>
24107d0c:	f1b3 5f80 	cmp.w	r3, #268435456	@ 0x10000000
24107d10:	d009      	beq.n	24107d26 <RCCEx_GetMDFCLKFreq+0x16a>
            break;
24107d12:	e023      	b.n	24107d5c <RCCEx_GetMDFCLKFreq+0x1a0>
            adf_frequency = HAL_RCCEx_GetPLL1CLKFreq();
24107d14:	f7fe f874 	bl	24105e00 <HAL_RCCEx_GetPLL1CLKFreq>
24107d18:	60f8      	str	r0, [r7, #12]
            adf_frequency = adf_frequency / ic_divider;
24107d1a:	68fa      	ldr	r2, [r7, #12]
24107d1c:	68bb      	ldr	r3, [r7, #8]
24107d1e:	fbb2 f3f3 	udiv	r3, r2, r3
24107d22:	60fb      	str	r3, [r7, #12]
            break;
24107d24:	e01b      	b.n	24107d5e <RCCEx_GetMDFCLKFreq+0x1a2>
            adf_frequency = HAL_RCCEx_GetPLL2CLKFreq();
24107d26:	f7fe f8b1 	bl	24105e8c <HAL_RCCEx_GetPLL2CLKFreq>
24107d2a:	60f8      	str	r0, [r7, #12]
            adf_frequency = adf_frequency / ic_divider;
24107d2c:	68fa      	ldr	r2, [r7, #12]
24107d2e:	68bb      	ldr	r3, [r7, #8]
24107d30:	fbb2 f3f3 	udiv	r3, r2, r3
24107d34:	60fb      	str	r3, [r7, #12]
            break;
24107d36:	e012      	b.n	24107d5e <RCCEx_GetMDFCLKFreq+0x1a2>
            adf_frequency = HAL_RCCEx_GetPLL3CLKFreq();
24107d38:	f7fe f8ee 	bl	24105f18 <HAL_RCCEx_GetPLL3CLKFreq>
24107d3c:	60f8      	str	r0, [r7, #12]
            adf_frequency = adf_frequency / ic_divider;
24107d3e:	68fa      	ldr	r2, [r7, #12]
24107d40:	68bb      	ldr	r3, [r7, #8]
24107d42:	fbb2 f3f3 	udiv	r3, r2, r3
24107d46:	60fb      	str	r3, [r7, #12]
            break;
24107d48:	e009      	b.n	24107d5e <RCCEx_GetMDFCLKFreq+0x1a2>
            adf_frequency = HAL_RCCEx_GetPLL4CLKFreq();
24107d4a:	f7fe f92b 	bl	24105fa4 <HAL_RCCEx_GetPLL4CLKFreq>
24107d4e:	60f8      	str	r0, [r7, #12]
            adf_frequency = adf_frequency / ic_divider;
24107d50:	68fa      	ldr	r2, [r7, #12]
24107d52:	68bb      	ldr	r3, [r7, #8]
24107d54:	fbb2 f3f3 	udiv	r3, r2, r3
24107d58:	60fb      	str	r3, [r7, #12]
            break;
24107d5a:	e000      	b.n	24107d5e <RCCEx_GetMDFCLKFreq+0x1a2>
            break;
24107d5c:	bf00      	nop
      break;
24107d5e:	e026      	b.n	24107dae <RCCEx_GetMDFCLKFreq+0x1f2>
      if (LL_RCC_HSI_IsReady() != 0U)
24107d60:	f7f9 fdd6 	bl	24101910 <LL_RCC_HSI_IsReady>
24107d64:	4603      	mov	r3, r0
24107d66:	2b00      	cmp	r3, #0
24107d68:	d023      	beq.n	24107db2 <RCCEx_GetMDFCLKFreq+0x1f6>
        adf_frequency = HSI_VALUE >> (LL_RCC_HSI_GetDivider() >> RCC_HSICFGR_HSIDIV_Pos);
24107d6a:	f7f9 fde3 	bl	24101934 <LL_RCC_HSI_GetDivider>
24107d6e:	4603      	mov	r3, r0
24107d70:	09db      	lsrs	r3, r3, #7
24107d72:	4a14      	ldr	r2, [pc, #80]	@ (24107dc4 <RCCEx_GetMDFCLKFreq+0x208>)
24107d74:	fa22 f303 	lsr.w	r3, r2, r3
24107d78:	60fb      	str	r3, [r7, #12]
      break;
24107d7a:	e01a      	b.n	24107db2 <RCCEx_GetMDFCLKFreq+0x1f6>
      if (LL_RCC_MSI_IsReady() != 0U)
24107d7c:	f7f9 fde8 	bl	24101950 <LL_RCC_MSI_IsReady>
24107d80:	4603      	mov	r3, r0
24107d82:	2b00      	cmp	r3, #0
24107d84:	d017      	beq.n	24107db6 <RCCEx_GetMDFCLKFreq+0x1fa>
        adf_frequency = MSI_VALUE;
24107d86:	4b10      	ldr	r3, [pc, #64]	@ (24107dc8 <RCCEx_GetMDFCLKFreq+0x20c>)
24107d88:	60fb      	str	r3, [r7, #12]
      break;
24107d8a:	e014      	b.n	24107db6 <RCCEx_GetMDFCLKFreq+0x1fa>
      adf_frequency = EXTERNAL_CLOCK_VALUE;
24107d8c:	4b0f      	ldr	r3, [pc, #60]	@ (24107dcc <RCCEx_GetMDFCLKFreq+0x210>)
24107d8e:	60fb      	str	r3, [r7, #12]
      break;
24107d90:	e012      	b.n	24107db8 <RCCEx_GetMDFCLKFreq+0x1fc>
      adf_frequency = LL_RCC_CALC_TIMG_FREQ(HAL_RCC_GetSysClockFreq(), LL_RCC_GetTIMPrescaler());
24107d92:	f7f9 fce7 	bl	24101764 <HAL_RCC_GetSysClockFreq>
24107d96:	4604      	mov	r4, r0
24107d98:	f7fa fa22 	bl	241021e0 <LL_RCC_GetTIMPrescaler>
24107d9c:	4603      	mov	r3, r0
24107d9e:	fa24 f303 	lsr.w	r3, r4, r3
24107da2:	60fb      	str	r3, [r7, #12]
      break;
24107da4:	e008      	b.n	24107db8 <RCCEx_GetMDFCLKFreq+0x1fc>
      break;
24107da6:	bf00      	nop
24107da8:	e006      	b.n	24107db8 <RCCEx_GetMDFCLKFreq+0x1fc>
      break;
24107daa:	bf00      	nop
24107dac:	e004      	b.n	24107db8 <RCCEx_GetMDFCLKFreq+0x1fc>
      break;
24107dae:	bf00      	nop
24107db0:	e002      	b.n	24107db8 <RCCEx_GetMDFCLKFreq+0x1fc>
      break;
24107db2:	bf00      	nop
24107db4:	e000      	b.n	24107db8 <RCCEx_GetMDFCLKFreq+0x1fc>
      break;
24107db6:	bf00      	nop
  }

  return adf_frequency;
24107db8:	68fb      	ldr	r3, [r7, #12]
}
24107dba:	4618      	mov	r0, r3
24107dbc:	3714      	adds	r7, #20
24107dbe:	46bd      	mov	sp, r7
24107dc0:	bd90      	pop	{r4, r7, pc}
24107dc2:	bf00      	nop
24107dc4:	03d09000 	.word	0x03d09000
24107dc8:	003d0900 	.word	0x003d0900
24107dcc:	00bb8000 	.word	0x00bb8000

24107dd0 <RCCEx_GetPSSICLKFreq>:
  *         @arg @ref RCCEx_PSSI_Clock_Source
  * @retval PSSI clock frequency (in Hz)
  *         - @ref  RCC_PERIPH_FREQUENCY_NO indicates that oscillator is not ready
  */
static uint32_t RCCEx_GetPSSICLKFreq(uint32_t PSSIxSource)
{
24107dd0:	b580      	push	{r7, lr}
24107dd2:	b084      	sub	sp, #16
24107dd4:	af00      	add	r7, sp, #0
24107dd6:	6078      	str	r0, [r7, #4]
  uint32_t pssi_frequency = RCC_PERIPH_FREQUENCY_NO;
24107dd8:	2300      	movs	r3, #0
24107dda:	60fb      	str	r3, [r7, #12]
  uint32_t ic_divider;

  switch (LL_RCC_GetPSSIClockSource(PSSIxSource))
24107ddc:	6878      	ldr	r0, [r7, #4]
24107dde:	f7fa f937 	bl	24102050 <LL_RCC_GetPSSIClockSource>
24107de2:	4603      	mov	r3, r0
24107de4:	2b30      	cmp	r3, #48	@ 0x30
24107de6:	d05a      	beq.n	24107e9e <RCCEx_GetPSSICLKFreq+0xce>
24107de8:	2b30      	cmp	r3, #48	@ 0x30
24107dea:	d866      	bhi.n	24107eba <RCCEx_GetPSSICLKFreq+0xea>
24107dec:	2b20      	cmp	r3, #32
24107dee:	d013      	beq.n	24107e18 <RCCEx_GetPSSICLKFreq+0x48>
24107df0:	2b20      	cmp	r3, #32
24107df2:	d862      	bhi.n	24107eba <RCCEx_GetPSSICLKFreq+0xea>
24107df4:	2b00      	cmp	r3, #0
24107df6:	d002      	beq.n	24107dfe <RCCEx_GetPSSICLKFreq+0x2e>
24107df8:	2b10      	cmp	r3, #16
24107dfa:	d008      	beq.n	24107e0e <RCCEx_GetPSSICLKFreq+0x3e>
      }
      break;

    default:
      /* Unexpected case */
      break;
24107dfc:	e05d      	b.n	24107eba <RCCEx_GetPSSICLKFreq+0xea>
      pssi_frequency = RCCEx_GetHCLKFreq(HAL_RCC_GetSysClockFreq());
24107dfe:	f7f9 fcb1 	bl	24101764 <HAL_RCC_GetSysClockFreq>
24107e02:	4603      	mov	r3, r0
24107e04:	4618      	mov	r0, r3
24107e06:	f7fe f913 	bl	24106030 <RCCEx_GetHCLKFreq>
24107e0a:	60f8      	str	r0, [r7, #12]
      break;
24107e0c:	e05a      	b.n	24107ec4 <RCCEx_GetPSSICLKFreq+0xf4>
      pssi_frequency = RCCEx_GetCLKPCLKFreq(LL_RCC_CLKP_CLKSOURCE);
24107e0e:	2007      	movs	r0, #7
24107e10:	f7fe fbfa 	bl	24106608 <RCCEx_GetCLKPCLKFreq>
24107e14:	60f8      	str	r0, [r7, #12]
      break;
24107e16:	e055      	b.n	24107ec4 <RCCEx_GetPSSICLKFreq+0xf4>
      if (LL_RCC_IC20_IsEnabled() != 0U)
24107e18:	f7fb f81e 	bl	24102e58 <LL_RCC_IC20_IsEnabled>
24107e1c:	4603      	mov	r3, r0
24107e1e:	2b00      	cmp	r3, #0
24107e20:	d04d      	beq.n	24107ebe <RCCEx_GetPSSICLKFreq+0xee>
        ic_divider = LL_RCC_IC20_GetDivider();
24107e22:	f7fb f83b 	bl	24102e9c <LL_RCC_IC20_GetDivider>
24107e26:	60b8      	str	r0, [r7, #8]
        switch (LL_RCC_IC20_GetSource())
24107e28:	f7fb f82a 	bl	24102e80 <LL_RCC_IC20_GetSource>
24107e2c:	4603      	mov	r3, r0
24107e2e:	f1b3 5f40 	cmp.w	r3, #805306368	@ 0x30000000
24107e32:	d029      	beq.n	24107e88 <RCCEx_GetPSSICLKFreq+0xb8>
24107e34:	f1b3 5f40 	cmp.w	r3, #805306368	@ 0x30000000
24107e38:	d82f      	bhi.n	24107e9a <RCCEx_GetPSSICLKFreq+0xca>
24107e3a:	f1b3 5f00 	cmp.w	r3, #536870912	@ 0x20000000
24107e3e:	d01a      	beq.n	24107e76 <RCCEx_GetPSSICLKFreq+0xa6>
24107e40:	f1b3 5f00 	cmp.w	r3, #536870912	@ 0x20000000
24107e44:	d829      	bhi.n	24107e9a <RCCEx_GetPSSICLKFreq+0xca>
24107e46:	2b00      	cmp	r3, #0
24107e48:	d003      	beq.n	24107e52 <RCCEx_GetPSSICLKFreq+0x82>
24107e4a:	f1b3 5f80 	cmp.w	r3, #268435456	@ 0x10000000
24107e4e:	d009      	beq.n	24107e64 <RCCEx_GetPSSICLKFreq+0x94>
            break;
24107e50:	e023      	b.n	24107e9a <RCCEx_GetPSSICLKFreq+0xca>
            pssi_frequency = HAL_RCCEx_GetPLL1CLKFreq();
24107e52:	f7fd ffd5 	bl	24105e00 <HAL_RCCEx_GetPLL1CLKFreq>
24107e56:	60f8      	str	r0, [r7, #12]
            pssi_frequency = pssi_frequency / ic_divider;
24107e58:	68fa      	ldr	r2, [r7, #12]
24107e5a:	68bb      	ldr	r3, [r7, #8]
24107e5c:	fbb2 f3f3 	udiv	r3, r2, r3
24107e60:	60fb      	str	r3, [r7, #12]
            break;
24107e62:	e01b      	b.n	24107e9c <RCCEx_GetPSSICLKFreq+0xcc>
            pssi_frequency = HAL_RCCEx_GetPLL2CLKFreq();
24107e64:	f7fe f812 	bl	24105e8c <HAL_RCCEx_GetPLL2CLKFreq>
24107e68:	60f8      	str	r0, [r7, #12]
            pssi_frequency = pssi_frequency / ic_divider;
24107e6a:	68fa      	ldr	r2, [r7, #12]
24107e6c:	68bb      	ldr	r3, [r7, #8]
24107e6e:	fbb2 f3f3 	udiv	r3, r2, r3
24107e72:	60fb      	str	r3, [r7, #12]
            break;
24107e74:	e012      	b.n	24107e9c <RCCEx_GetPSSICLKFreq+0xcc>
            pssi_frequency = HAL_RCCEx_GetPLL3CLKFreq();
24107e76:	f7fe f84f 	bl	24105f18 <HAL_RCCEx_GetPLL3CLKFreq>
24107e7a:	60f8      	str	r0, [r7, #12]
            pssi_frequency = pssi_frequency / ic_divider;
24107e7c:	68fa      	ldr	r2, [r7, #12]
24107e7e:	68bb      	ldr	r3, [r7, #8]
24107e80:	fbb2 f3f3 	udiv	r3, r2, r3
24107e84:	60fb      	str	r3, [r7, #12]
            break;
24107e86:	e009      	b.n	24107e9c <RCCEx_GetPSSICLKFreq+0xcc>
            pssi_frequency = HAL_RCCEx_GetPLL4CLKFreq();
24107e88:	f7fe f88c 	bl	24105fa4 <HAL_RCCEx_GetPLL4CLKFreq>
24107e8c:	60f8      	str	r0, [r7, #12]
            pssi_frequency = pssi_frequency / ic_divider;
24107e8e:	68fa      	ldr	r2, [r7, #12]
24107e90:	68bb      	ldr	r3, [r7, #8]
24107e92:	fbb2 f3f3 	udiv	r3, r2, r3
24107e96:	60fb      	str	r3, [r7, #12]
            break;
24107e98:	e000      	b.n	24107e9c <RCCEx_GetPSSICLKFreq+0xcc>
            break;
24107e9a:	bf00      	nop
      break;
24107e9c:	e00f      	b.n	24107ebe <RCCEx_GetPSSICLKFreq+0xee>
      if (LL_RCC_HSI_IsReady() != 0U)
24107e9e:	f7f9 fd37 	bl	24101910 <LL_RCC_HSI_IsReady>
24107ea2:	4603      	mov	r3, r0
24107ea4:	2b00      	cmp	r3, #0
24107ea6:	d00c      	beq.n	24107ec2 <RCCEx_GetPSSICLKFreq+0xf2>
        pssi_frequency = HSI_VALUE >> (LL_RCC_HSI_GetDivider() >> RCC_HSICFGR_HSIDIV_Pos);
24107ea8:	f7f9 fd44 	bl	24101934 <LL_RCC_HSI_GetDivider>
24107eac:	4603      	mov	r3, r0
24107eae:	09db      	lsrs	r3, r3, #7
24107eb0:	4a07      	ldr	r2, [pc, #28]	@ (24107ed0 <RCCEx_GetPSSICLKFreq+0x100>)
24107eb2:	fa22 f303 	lsr.w	r3, r2, r3
24107eb6:	60fb      	str	r3, [r7, #12]
      break;
24107eb8:	e003      	b.n	24107ec2 <RCCEx_GetPSSICLKFreq+0xf2>
      break;
24107eba:	bf00      	nop
24107ebc:	e002      	b.n	24107ec4 <RCCEx_GetPSSICLKFreq+0xf4>
      break;
24107ebe:	bf00      	nop
24107ec0:	e000      	b.n	24107ec4 <RCCEx_GetPSSICLKFreq+0xf4>
      break;
24107ec2:	bf00      	nop
  }

  return pssi_frequency;
24107ec4:	68fb      	ldr	r3, [r7, #12]
}
24107ec6:	4618      	mov	r0, r3
24107ec8:	3710      	adds	r7, #16
24107eca:	46bd      	mov	sp, r7
24107ecc:	bd80      	pop	{r7, pc}
24107ece:	bf00      	nop
24107ed0:	03d09000 	.word	0x03d09000

24107ed4 <RCCEx_GetRTCCLKFreq>:
  * @brief  Return RTC clock frequency
  * @retval RTC clock frequency (in Hz)
  *         - @ref  RCC_PERIPH_FREQUENCY_NO indicates that oscillator is not ready
  */
static uint32_t RCCEx_GetRTCCLKFreq()
{
24107ed4:	b580      	push	{r7, lr}
24107ed6:	b082      	sub	sp, #8
24107ed8:	af00      	add	r7, sp, #0
  uint32_t rtc_frequency = RCC_PERIPH_FREQUENCY_NO;
24107eda:	2300      	movs	r3, #0
24107edc:	607b      	str	r3, [r7, #4]

  switch (LL_RCC_GetRTCClockSource())
24107ede:	f7fa f945 	bl	2410216c <LL_RCC_GetRTCClockSource>
24107ee2:	4603      	mov	r3, r0
24107ee4:	f5b3 7f40 	cmp.w	r3, #768	@ 0x300
24107ee8:	d020      	beq.n	24107f2c <RCCEx_GetRTCCLKFreq+0x58>
24107eea:	f5b3 7f40 	cmp.w	r3, #768	@ 0x300
24107eee:	d830      	bhi.n	24107f52 <RCCEx_GetRTCCLKFreq+0x7e>
24107ef0:	f5b3 7f00 	cmp.w	r3, #512	@ 0x200
24107ef4:	d011      	beq.n	24107f1a <RCCEx_GetRTCCLKFreq+0x46>
24107ef6:	f5b3 7f00 	cmp.w	r3, #512	@ 0x200
24107efa:	d82a      	bhi.n	24107f52 <RCCEx_GetRTCCLKFreq+0x7e>
24107efc:	2b00      	cmp	r3, #0
24107efe:	d02a      	beq.n	24107f56 <RCCEx_GetRTCCLKFreq+0x82>
24107f00:	f5b3 7f80 	cmp.w	r3, #256	@ 0x100
24107f04:	d000      	beq.n	24107f08 <RCCEx_GetRTCCLKFreq+0x34>
      }
      break;

    default:
      /* Unexpected case */
      break;
24107f06:	e024      	b.n	24107f52 <RCCEx_GetRTCCLKFreq+0x7e>
      if (LL_RCC_LSE_IsReady() != 0U)
24107f08:	f7f9 fd42 	bl	24101990 <LL_RCC_LSE_IsReady>
24107f0c:	4603      	mov	r3, r0
24107f0e:	2b00      	cmp	r3, #0
24107f10:	d023      	beq.n	24107f5a <RCCEx_GetRTCCLKFreq+0x86>
        rtc_frequency = LSE_VALUE;
24107f12:	f44f 4300 	mov.w	r3, #32768	@ 0x8000
24107f16:	607b      	str	r3, [r7, #4]
      break;
24107f18:	e01f      	b.n	24107f5a <RCCEx_GetRTCCLKFreq+0x86>
      if (LL_RCC_LSI_IsReady() != 0U)
24107f1a:	f7f9 fd4b 	bl	241019b4 <LL_RCC_LSI_IsReady>
24107f1e:	4603      	mov	r3, r0
24107f20:	2b00      	cmp	r3, #0
24107f22:	d01c      	beq.n	24107f5e <RCCEx_GetRTCCLKFreq+0x8a>
        rtc_frequency = LSI_VALUE;
24107f24:	f44f 43fa 	mov.w	r3, #32000	@ 0x7d00
24107f28:	607b      	str	r3, [r7, #4]
      break;
24107f2a:	e018      	b.n	24107f5e <RCCEx_GetRTCCLKFreq+0x8a>
      if (LL_RCC_HSE_IsReady() != 0U)
24107f2c:	f7f9 fcde 	bl	241018ec <LL_RCC_HSE_IsReady>
24107f30:	4603      	mov	r3, r0
24107f32:	2b00      	cmp	r3, #0
24107f34:	d015      	beq.n	24107f62 <RCCEx_GetRTCCLKFreq+0x8e>
        uint32_t prescaler = (READ_BIT(RCC->CCIPR7, RCC_CCIPR7_RTCPRE) >> RCC_CCIPR7_RTCPRE_Pos) + 1U;
24107f36:	4b0e      	ldr	r3, [pc, #56]	@ (24107f70 <RCCEx_GetRTCCLKFreq+0x9c>)
24107f38:	f8d3 315c 	ldr.w	r3, [r3, #348]	@ 0x15c
24107f3c:	0b1b      	lsrs	r3, r3, #12
24107f3e:	f003 033f 	and.w	r3, r3, #63	@ 0x3f
24107f42:	3301      	adds	r3, #1
24107f44:	603b      	str	r3, [r7, #0]
        rtc_frequency = HSE_VALUE / prescaler;
24107f46:	4a0b      	ldr	r2, [pc, #44]	@ (24107f74 <RCCEx_GetRTCCLKFreq+0xa0>)
24107f48:	683b      	ldr	r3, [r7, #0]
24107f4a:	fbb2 f3f3 	udiv	r3, r2, r3
24107f4e:	607b      	str	r3, [r7, #4]
      break;
24107f50:	e007      	b.n	24107f62 <RCCEx_GetRTCCLKFreq+0x8e>
      break;
24107f52:	bf00      	nop
24107f54:	e006      	b.n	24107f64 <RCCEx_GetRTCCLKFreq+0x90>
      break;
24107f56:	bf00      	nop
24107f58:	e004      	b.n	24107f64 <RCCEx_GetRTCCLKFreq+0x90>
      break;
24107f5a:	bf00      	nop
24107f5c:	e002      	b.n	24107f64 <RCCEx_GetRTCCLKFreq+0x90>
      break;
24107f5e:	bf00      	nop
24107f60:	e000      	b.n	24107f64 <RCCEx_GetRTCCLKFreq+0x90>
      break;
24107f62:	bf00      	nop
  }

  return rtc_frequency;
24107f64:	687b      	ldr	r3, [r7, #4]
}
24107f66:	4618      	mov	r0, r3
24107f68:	3708      	adds	r7, #8
24107f6a:	46bd      	mov	sp, r7
24107f6c:	bd80      	pop	{r7, pc}
24107f6e:	bf00      	nop
24107f70:	46028000 	.word	0x46028000
24107f74:	016e3600 	.word	0x016e3600

24107f78 <RCCEx_GetSAICLKFreq>:
  *         @arg @ref RCCEx_SAI2_Clock_Source
  * @retval SAI clock frequency (in Hz)
  *         - @ref  RCC_PERIPH_FREQUENCY_NO indicates that oscillator is not ready
  */
static uint32_t RCCEx_GetSAICLKFreq(uint32_t SAIxSource)
{
24107f78:	b580      	push	{r7, lr}
24107f7a:	b084      	sub	sp, #16
24107f7c:	af00      	add	r7, sp, #0
24107f7e:	6078      	str	r0, [r7, #4]
  uint32_t sai_frequency = RCC_PERIPH_FREQUENCY_NO;
24107f80:	2300      	movs	r3, #0
24107f82:	60fb      	str	r3, [r7, #12]
  uint32_t ic_divider;

  switch (LL_RCC_GetSAIClockSource(SAIxSource))
24107f84:	6878      	ldr	r0, [r7, #4]
24107f86:	f7fa f875 	bl	24102074 <LL_RCC_GetSAIClockSource>
24107f8a:	4603      	mov	r3, r0
24107f8c:	4a9a      	ldr	r2, [pc, #616]	@ (241081f8 <RCCEx_GetSAICLKFreq+0x280>)
24107f8e:	4293      	cmp	r3, r2
24107f90:	f000 811f 	beq.w	241081d2 <RCCEx_GetSAICLKFreq+0x25a>
24107f94:	4a98      	ldr	r2, [pc, #608]	@ (241081f8 <RCCEx_GetSAICLKFreq+0x280>)
24107f96:	4293      	cmp	r3, r2
24107f98:	f200 8120 	bhi.w	241081dc <RCCEx_GetSAICLKFreq+0x264>
24107f9c:	4a97      	ldr	r2, [pc, #604]	@ (241081fc <RCCEx_GetSAICLKFreq+0x284>)
24107f9e:	4293      	cmp	r3, r2
24107fa0:	f000 8117 	beq.w	241081d2 <RCCEx_GetSAICLKFreq+0x25a>
24107fa4:	4a95      	ldr	r2, [pc, #596]	@ (241081fc <RCCEx_GetSAICLKFreq+0x284>)
24107fa6:	4293      	cmp	r3, r2
24107fa8:	f200 8118 	bhi.w	241081dc <RCCEx_GetSAICLKFreq+0x264>
24107fac:	4a94      	ldr	r2, [pc, #592]	@ (24108200 <RCCEx_GetSAICLKFreq+0x288>)
24107fae:	4293      	cmp	r3, r2
24107fb0:	f000 810c 	beq.w	241081cc <RCCEx_GetSAICLKFreq+0x254>
24107fb4:	4a92      	ldr	r2, [pc, #584]	@ (24108200 <RCCEx_GetSAICLKFreq+0x288>)
24107fb6:	4293      	cmp	r3, r2
24107fb8:	f200 8110 	bhi.w	241081dc <RCCEx_GetSAICLKFreq+0x264>
24107fbc:	4a91      	ldr	r2, [pc, #580]	@ (24108204 <RCCEx_GetSAICLKFreq+0x28c>)
24107fbe:	4293      	cmp	r3, r2
24107fc0:	f000 8104 	beq.w	241081cc <RCCEx_GetSAICLKFreq+0x254>
24107fc4:	4a8f      	ldr	r2, [pc, #572]	@ (24108204 <RCCEx_GetSAICLKFreq+0x28c>)
24107fc6:	4293      	cmp	r3, r2
24107fc8:	f200 8108 	bhi.w	241081dc <RCCEx_GetSAICLKFreq+0x264>
24107fcc:	4a8e      	ldr	r2, [pc, #568]	@ (24108208 <RCCEx_GetSAICLKFreq+0x290>)
24107fce:	4293      	cmp	r3, r2
24107fd0:	f000 80e6 	beq.w	241081a0 <RCCEx_GetSAICLKFreq+0x228>
24107fd4:	4a8c      	ldr	r2, [pc, #560]	@ (24108208 <RCCEx_GetSAICLKFreq+0x290>)
24107fd6:	4293      	cmp	r3, r2
24107fd8:	f200 8100 	bhi.w	241081dc <RCCEx_GetSAICLKFreq+0x264>
24107fdc:	4a8b      	ldr	r2, [pc, #556]	@ (2410820c <RCCEx_GetSAICLKFreq+0x294>)
24107fde:	4293      	cmp	r3, r2
24107fe0:	f000 80de 	beq.w	241081a0 <RCCEx_GetSAICLKFreq+0x228>
24107fe4:	4a89      	ldr	r2, [pc, #548]	@ (2410820c <RCCEx_GetSAICLKFreq+0x294>)
24107fe6:	4293      	cmp	r3, r2
24107fe8:	f200 80f8 	bhi.w	241081dc <RCCEx_GetSAICLKFreq+0x264>
24107fec:	4a88      	ldr	r2, [pc, #544]	@ (24108210 <RCCEx_GetSAICLKFreq+0x298>)
24107fee:	4293      	cmp	r3, r2
24107ff0:	f000 80e4 	beq.w	241081bc <RCCEx_GetSAICLKFreq+0x244>
24107ff4:	4a86      	ldr	r2, [pc, #536]	@ (24108210 <RCCEx_GetSAICLKFreq+0x298>)
24107ff6:	4293      	cmp	r3, r2
24107ff8:	f200 80f0 	bhi.w	241081dc <RCCEx_GetSAICLKFreq+0x264>
24107ffc:	4a85      	ldr	r2, [pc, #532]	@ (24108214 <RCCEx_GetSAICLKFreq+0x29c>)
24107ffe:	4293      	cmp	r3, r2
24108000:	f000 80dc 	beq.w	241081bc <RCCEx_GetSAICLKFreq+0x244>
24108004:	4a83      	ldr	r2, [pc, #524]	@ (24108214 <RCCEx_GetSAICLKFreq+0x29c>)
24108006:	4293      	cmp	r3, r2
24108008:	f200 80e8 	bhi.w	241081dc <RCCEx_GetSAICLKFreq+0x264>
2410800c:	4a82      	ldr	r2, [pc, #520]	@ (24108218 <RCCEx_GetSAICLKFreq+0x2a0>)
2410800e:	4293      	cmp	r3, r2
24108010:	f000 8083 	beq.w	2410811a <RCCEx_GetSAICLKFreq+0x1a2>
24108014:	4a80      	ldr	r2, [pc, #512]	@ (24108218 <RCCEx_GetSAICLKFreq+0x2a0>)
24108016:	4293      	cmp	r3, r2
24108018:	f200 80e0 	bhi.w	241081dc <RCCEx_GetSAICLKFreq+0x264>
2410801c:	4a7f      	ldr	r2, [pc, #508]	@ (2410821c <RCCEx_GetSAICLKFreq+0x2a4>)
2410801e:	4293      	cmp	r3, r2
24108020:	d07b      	beq.n	2410811a <RCCEx_GetSAICLKFreq+0x1a2>
24108022:	4a7e      	ldr	r2, [pc, #504]	@ (2410821c <RCCEx_GetSAICLKFreq+0x2a4>)
24108024:	4293      	cmp	r3, r2
24108026:	f200 80d9 	bhi.w	241081dc <RCCEx_GetSAICLKFreq+0x264>
2410802a:	4a7d      	ldr	r2, [pc, #500]	@ (24108220 <RCCEx_GetSAICLKFreq+0x2a8>)
2410802c:	4293      	cmp	r3, r2
2410802e:	d030      	beq.n	24108092 <RCCEx_GetSAICLKFreq+0x11a>
24108030:	4a7b      	ldr	r2, [pc, #492]	@ (24108220 <RCCEx_GetSAICLKFreq+0x2a8>)
24108032:	4293      	cmp	r3, r2
24108034:	f200 80d2 	bhi.w	241081dc <RCCEx_GetSAICLKFreq+0x264>
24108038:	4a7a      	ldr	r2, [pc, #488]	@ (24108224 <RCCEx_GetSAICLKFreq+0x2ac>)
2410803a:	4293      	cmp	r3, r2
2410803c:	d029      	beq.n	24108092 <RCCEx_GetSAICLKFreq+0x11a>
2410803e:	4a79      	ldr	r2, [pc, #484]	@ (24108224 <RCCEx_GetSAICLKFreq+0x2ac>)
24108040:	4293      	cmp	r3, r2
24108042:	f200 80cb 	bhi.w	241081dc <RCCEx_GetSAICLKFreq+0x264>
24108046:	4a78      	ldr	r2, [pc, #480]	@ (24108228 <RCCEx_GetSAICLKFreq+0x2b0>)
24108048:	4293      	cmp	r3, r2
2410804a:	d01d      	beq.n	24108088 <RCCEx_GetSAICLKFreq+0x110>
2410804c:	4a76      	ldr	r2, [pc, #472]	@ (24108228 <RCCEx_GetSAICLKFreq+0x2b0>)
2410804e:	4293      	cmp	r3, r2
24108050:	f200 80c4 	bhi.w	241081dc <RCCEx_GetSAICLKFreq+0x264>
24108054:	4a75      	ldr	r2, [pc, #468]	@ (2410822c <RCCEx_GetSAICLKFreq+0x2b4>)
24108056:	4293      	cmp	r3, r2
24108058:	d016      	beq.n	24108088 <RCCEx_GetSAICLKFreq+0x110>
2410805a:	4a74      	ldr	r2, [pc, #464]	@ (2410822c <RCCEx_GetSAICLKFreq+0x2b4>)
2410805c:	4293      	cmp	r3, r2
2410805e:	f200 80bd 	bhi.w	241081dc <RCCEx_GetSAICLKFreq+0x264>
24108062:	4a73      	ldr	r2, [pc, #460]	@ (24108230 <RCCEx_GetSAICLKFreq+0x2b8>)
24108064:	4293      	cmp	r3, r2
24108066:	d003      	beq.n	24108070 <RCCEx_GetSAICLKFreq+0xf8>
24108068:	4a72      	ldr	r2, [pc, #456]	@ (24108234 <RCCEx_GetSAICLKFreq+0x2bc>)
2410806a:	4293      	cmp	r3, r2
2410806c:	f040 80b6 	bne.w	241081dc <RCCEx_GetSAICLKFreq+0x264>
  {
    case LL_RCC_SAI1_CLKSOURCE_PCLK2:
    case LL_RCC_SAI2_CLKSOURCE_PCLK2:
      sai_frequency = RCCEx_GetPCLK2Freq(RCCEx_GetHCLKFreq(HAL_RCC_GetSysClockFreq()));
24108070:	f7f9 fb78 	bl	24101764 <HAL_RCC_GetSysClockFreq>
24108074:	4603      	mov	r3, r0
24108076:	4618      	mov	r0, r3
24108078:	f7fd ffda 	bl	24106030 <RCCEx_GetHCLKFreq>
2410807c:	4603      	mov	r3, r0
2410807e:	4618      	mov	r0, r3
24108080:	f7fd fff7 	bl	24106072 <RCCEx_GetPCLK2Freq>
24108084:	60f8      	str	r0, [r7, #12]
      break;
24108086:	e0b2      	b.n	241081ee <RCCEx_GetSAICLKFreq+0x276>

    case LL_RCC_SAI1_CLKSOURCE_CLKP:
    case LL_RCC_SAI2_CLKSOURCE_CLKP:
      sai_frequency = RCCEx_GetCLKPCLKFreq(LL_RCC_CLKP_CLKSOURCE);
24108088:	2007      	movs	r0, #7
2410808a:	f7fe fabd 	bl	24106608 <RCCEx_GetCLKPCLKFreq>
2410808e:	60f8      	str	r0, [r7, #12]
      break;
24108090:	e0ad      	b.n	241081ee <RCCEx_GetSAICLKFreq+0x276>

    case LL_RCC_SAI1_CLKSOURCE_IC7:
    case LL_RCC_SAI2_CLKSOURCE_IC7:
      if (LL_RCC_IC7_IsEnabled() != 0U)
24108092:	f7fa fbe1 	bl	24102858 <LL_RCC_IC7_IsEnabled>
24108096:	4603      	mov	r3, r0
24108098:	2b00      	cmp	r3, #0
2410809a:	f000 80a1 	beq.w	241081e0 <RCCEx_GetSAICLKFreq+0x268>
      {
        ic_divider = LL_RCC_IC7_GetDivider();
2410809e:	f7fa fbfd 	bl	2410289c <LL_RCC_IC7_GetDivider>
241080a2:	60b8      	str	r0, [r7, #8]
        switch (LL_RCC_IC7_GetSource())
241080a4:	f7fa fbec 	bl	24102880 <LL_RCC_IC7_GetSource>
241080a8:	4603      	mov	r3, r0
241080aa:	f1b3 5f40 	cmp.w	r3, #805306368	@ 0x30000000
241080ae:	d029      	beq.n	24108104 <RCCEx_GetSAICLKFreq+0x18c>
241080b0:	f1b3 5f40 	cmp.w	r3, #805306368	@ 0x30000000
241080b4:	d82f      	bhi.n	24108116 <RCCEx_GetSAICLKFreq+0x19e>
241080b6:	f1b3 5f00 	cmp.w	r3, #536870912	@ 0x20000000
241080ba:	d01a      	beq.n	241080f2 <RCCEx_GetSAICLKFreq+0x17a>
241080bc:	f1b3 5f00 	cmp.w	r3, #536870912	@ 0x20000000
241080c0:	d829      	bhi.n	24108116 <RCCEx_GetSAICLKFreq+0x19e>
241080c2:	2b00      	cmp	r3, #0
241080c4:	d003      	beq.n	241080ce <RCCEx_GetSAICLKFreq+0x156>
241080c6:	f1b3 5f80 	cmp.w	r3, #268435456	@ 0x10000000
241080ca:	d009      	beq.n	241080e0 <RCCEx_GetSAICLKFreq+0x168>
            sai_frequency = HAL_RCCEx_GetPLL4CLKFreq();
            sai_frequency = sai_frequency / ic_divider;
            break;
          default:
            /* Unexpected case */
            break;
241080cc:	e023      	b.n	24108116 <RCCEx_GetSAICLKFreq+0x19e>
            sai_frequency = HAL_RCCEx_GetPLL1CLKFreq();
241080ce:	f7fd fe97 	bl	24105e00 <HAL_RCCEx_GetPLL1CLKFreq>
241080d2:	60f8      	str	r0, [r7, #12]
            sai_frequency = sai_frequency / ic_divider;
241080d4:	68fa      	ldr	r2, [r7, #12]
241080d6:	68bb      	ldr	r3, [r7, #8]
241080d8:	fbb2 f3f3 	udiv	r3, r2, r3
241080dc:	60fb      	str	r3, [r7, #12]
            break;
241080de:	e01b      	b.n	24108118 <RCCEx_GetSAICLKFreq+0x1a0>
            sai_frequency = HAL_RCCEx_GetPLL2CLKFreq();
241080e0:	f7fd fed4 	bl	24105e8c <HAL_RCCEx_GetPLL2CLKFreq>
241080e4:	60f8      	str	r0, [r7, #12]
            sai_frequency = sai_frequency / ic_divider;
241080e6:	68fa      	ldr	r2, [r7, #12]
241080e8:	68bb      	ldr	r3, [r7, #8]
241080ea:	fbb2 f3f3 	udiv	r3, r2, r3
241080ee:	60fb      	str	r3, [r7, #12]
            break;
241080f0:	e012      	b.n	24108118 <RCCEx_GetSAICLKFreq+0x1a0>
            sai_frequency = HAL_RCCEx_GetPLL3CLKFreq();
241080f2:	f7fd ff11 	bl	24105f18 <HAL_RCCEx_GetPLL3CLKFreq>
241080f6:	60f8      	str	r0, [r7, #12]
            sai_frequency = sai_frequency / ic_divider;
241080f8:	68fa      	ldr	r2, [r7, #12]
241080fa:	68bb      	ldr	r3, [r7, #8]
241080fc:	fbb2 f3f3 	udiv	r3, r2, r3
24108100:	60fb      	str	r3, [r7, #12]
            break;
24108102:	e009      	b.n	24108118 <RCCEx_GetSAICLKFreq+0x1a0>
            sai_frequency = HAL_RCCEx_GetPLL4CLKFreq();
24108104:	f7fd ff4e 	bl	24105fa4 <HAL_RCCEx_GetPLL4CLKFreq>
24108108:	60f8      	str	r0, [r7, #12]
            sai_frequency = sai_frequency / ic_divider;
2410810a:	68fa      	ldr	r2, [r7, #12]
2410810c:	68bb      	ldr	r3, [r7, #8]
2410810e:	fbb2 f3f3 	udiv	r3, r2, r3
24108112:	60fb      	str	r3, [r7, #12]
            break;
24108114:	e000      	b.n	24108118 <RCCEx_GetSAICLKFreq+0x1a0>
            break;
24108116:	bf00      	nop
        }
      }
      break;
24108118:	e062      	b.n	241081e0 <RCCEx_GetSAICLKFreq+0x268>

    case LL_RCC_SAI1_CLKSOURCE_IC8:
    case LL_RCC_SAI2_CLKSOURCE_IC8:
      if (LL_RCC_IC8_IsEnabled() != 0U)
2410811a:	f7fa fbdd 	bl	241028d8 <LL_RCC_IC8_IsEnabled>
2410811e:	4603      	mov	r3, r0
24108120:	2b00      	cmp	r3, #0
24108122:	d05f      	beq.n	241081e4 <RCCEx_GetSAICLKFreq+0x26c>
      {
        ic_divider = LL_RCC_IC8_GetDivider();
24108124:	f7fa fbfa 	bl	2410291c <LL_RCC_IC8_GetDivider>
24108128:	60b8      	str	r0, [r7, #8]
        switch (LL_RCC_IC8_GetSource())
2410812a:	f7fa fbe9 	bl	24102900 <LL_RCC_IC8_GetSource>
2410812e:	4603      	mov	r3, r0
24108130:	f1b3 5f40 	cmp.w	r3, #805306368	@ 0x30000000
24108134:	d029      	beq.n	2410818a <RCCEx_GetSAICLKFreq+0x212>
24108136:	f1b3 5f40 	cmp.w	r3, #805306368	@ 0x30000000
2410813a:	d82f      	bhi.n	2410819c <RCCEx_GetSAICLKFreq+0x224>
2410813c:	f1b3 5f00 	cmp.w	r3, #536870912	@ 0x20000000
24108140:	d01a      	beq.n	24108178 <RCCEx_GetSAICLKFreq+0x200>
24108142:	f1b3 5f00 	cmp.w	r3, #536870912	@ 0x20000000
24108146:	d829      	bhi.n	2410819c <RCCEx_GetSAICLKFreq+0x224>
24108148:	2b00      	cmp	r3, #0
2410814a:	d003      	beq.n	24108154 <RCCEx_GetSAICLKFreq+0x1dc>
2410814c:	f1b3 5f80 	cmp.w	r3, #268435456	@ 0x10000000
24108150:	d009      	beq.n	24108166 <RCCEx_GetSAICLKFreq+0x1ee>
            sai_frequency = HAL_RCCEx_GetPLL4CLKFreq();
            sai_frequency = sai_frequency / ic_divider;
            break;
          default:
            /* Unexpected case */
            break;
24108152:	e023      	b.n	2410819c <RCCEx_GetSAICLKFreq+0x224>
            sai_frequency = HAL_RCCEx_GetPLL1CLKFreq();
24108154:	f7fd fe54 	bl	24105e00 <HAL_RCCEx_GetPLL1CLKFreq>
24108158:	60f8      	str	r0, [r7, #12]
            sai_frequency = sai_frequency / ic_divider;
2410815a:	68fa      	ldr	r2, [r7, #12]
2410815c:	68bb      	ldr	r3, [r7, #8]
2410815e:	fbb2 f3f3 	udiv	r3, r2, r3
24108162:	60fb      	str	r3, [r7, #12]
            break;
24108164:	e01b      	b.n	2410819e <RCCEx_GetSAICLKFreq+0x226>
            sai_frequency = HAL_RCCEx_GetPLL2CLKFreq();
24108166:	f7fd fe91 	bl	24105e8c <HAL_RCCEx_GetPLL2CLKFreq>
2410816a:	60f8      	str	r0, [r7, #12]
            sai_frequency = sai_frequency / ic_divider;
2410816c:	68fa      	ldr	r2, [r7, #12]
2410816e:	68bb      	ldr	r3, [r7, #8]
24108170:	fbb2 f3f3 	udiv	r3, r2, r3
24108174:	60fb      	str	r3, [r7, #12]
            break;
24108176:	e012      	b.n	2410819e <RCCEx_GetSAICLKFreq+0x226>
            sai_frequency = HAL_RCCEx_GetPLL3CLKFreq();
24108178:	f7fd fece 	bl	24105f18 <HAL_RCCEx_GetPLL3CLKFreq>
2410817c:	60f8      	str	r0, [r7, #12]
            sai_frequency = sai_frequency / ic_divider;
2410817e:	68fa      	ldr	r2, [r7, #12]
24108180:	68bb      	ldr	r3, [r7, #8]
24108182:	fbb2 f3f3 	udiv	r3, r2, r3
24108186:	60fb      	str	r3, [r7, #12]
            break;
24108188:	e009      	b.n	2410819e <RCCEx_GetSAICLKFreq+0x226>
            sai_frequency = HAL_RCCEx_GetPLL4CLKFreq();
2410818a:	f7fd ff0b 	bl	24105fa4 <HAL_RCCEx_GetPLL4CLKFreq>
2410818e:	60f8      	str	r0, [r7, #12]
            sai_frequency = sai_frequency / ic_divider;
24108190:	68fa      	ldr	r2, [r7, #12]
24108192:	68bb      	ldr	r3, [r7, #8]
24108194:	fbb2 f3f3 	udiv	r3, r2, r3
24108198:	60fb      	str	r3, [r7, #12]
            break;
2410819a:	e000      	b.n	2410819e <RCCEx_GetSAICLKFreq+0x226>
            break;
2410819c:	bf00      	nop
        }
      }
      break;
2410819e:	e021      	b.n	241081e4 <RCCEx_GetSAICLKFreq+0x26c>

    case LL_RCC_SAI1_CLKSOURCE_HSI:
    case LL_RCC_SAI2_CLKSOURCE_HSI:
      if (LL_RCC_HSI_IsReady() != 0U)
241081a0:	f7f9 fbb6 	bl	24101910 <LL_RCC_HSI_IsReady>
241081a4:	4603      	mov	r3, r0
241081a6:	2b00      	cmp	r3, #0
241081a8:	d01e      	beq.n	241081e8 <RCCEx_GetSAICLKFreq+0x270>
      {
        sai_frequency = HSI_VALUE >> (LL_RCC_HSI_GetDivider() >> RCC_HSICFGR_HSIDIV_Pos);
241081aa:	f7f9 fbc3 	bl	24101934 <LL_RCC_HSI_GetDivider>
241081ae:	4603      	mov	r3, r0
241081b0:	09db      	lsrs	r3, r3, #7
241081b2:	4a21      	ldr	r2, [pc, #132]	@ (24108238 <RCCEx_GetSAICLKFreq+0x2c0>)
241081b4:	fa22 f303 	lsr.w	r3, r2, r3
241081b8:	60fb      	str	r3, [r7, #12]
      }
      break;
241081ba:	e015      	b.n	241081e8 <RCCEx_GetSAICLKFreq+0x270>

    case LL_RCC_SAI1_CLKSOURCE_MSI:
    case LL_RCC_SAI2_CLKSOURCE_MSI:
      if (LL_RCC_MSI_IsReady() != 0U)
241081bc:	f7f9 fbc8 	bl	24101950 <LL_RCC_MSI_IsReady>
241081c0:	4603      	mov	r3, r0
241081c2:	2b00      	cmp	r3, #0
241081c4:	d012      	beq.n	241081ec <RCCEx_GetSAICLKFreq+0x274>
      {
        sai_frequency = MSI_VALUE;
241081c6:	4b1d      	ldr	r3, [pc, #116]	@ (2410823c <RCCEx_GetSAICLKFreq+0x2c4>)
241081c8:	60fb      	str	r3, [r7, #12]
      }
      break;
241081ca:	e00f      	b.n	241081ec <RCCEx_GetSAICLKFreq+0x274>

    case LL_RCC_SAI1_CLKSOURCE_I2S_CKIN:
    case LL_RCC_SAI2_CLKSOURCE_I2S_CKIN:
      sai_frequency = EXTERNAL_CLOCK_VALUE;
241081cc:	4b1c      	ldr	r3, [pc, #112]	@ (24108240 <RCCEx_GetSAICLKFreq+0x2c8>)
241081ce:	60fb      	str	r3, [r7, #12]
      break;
241081d0:	e00d      	b.n	241081ee <RCCEx_GetSAICLKFreq+0x276>

    case LL_RCC_SAI1_CLKSOURCE_SPDIFRX1:
    case LL_RCC_SAI2_CLKSOURCE_SPDIFRX1:
      sai_frequency = RCCEx_GetSPDIFRXCLKFreq(LL_RCC_SPDIFRX1_CLKSOURCE);
241081d2:	2007      	movs	r0, #7
241081d4:	f000 f920 	bl	24108418 <RCCEx_GetSPDIFRXCLKFreq>
241081d8:	60f8      	str	r0, [r7, #12]
      break;
241081da:	e008      	b.n	241081ee <RCCEx_GetSAICLKFreq+0x276>

    default:
      /* Unexpected case */
      break;
241081dc:	bf00      	nop
241081de:	e006      	b.n	241081ee <RCCEx_GetSAICLKFreq+0x276>
      break;
241081e0:	bf00      	nop
241081e2:	e004      	b.n	241081ee <RCCEx_GetSAICLKFreq+0x276>
      break;
241081e4:	bf00      	nop
241081e6:	e002      	b.n	241081ee <RCCEx_GetSAICLKFreq+0x276>
      break;
241081e8:	bf00      	nop
241081ea:	e000      	b.n	241081ee <RCCEx_GetSAICLKFreq+0x276>
      break;
241081ec:	bf00      	nop
  }

  return sai_frequency;
241081ee:	68fb      	ldr	r3, [r7, #12]
}
241081f0:	4618      	mov	r0, r3
241081f2:	3710      	adds	r7, #16
241081f4:	46bd      	mov	sp, r7
241081f6:	bd80      	pop	{r7, pc}
241081f8:	07071818 	.word	0x07071818
241081fc:	07071418 	.word	0x07071418
24108200:	07061818 	.word	0x07061818
24108204:	07061418 	.word	0x07061418
24108208:	07051818 	.word	0x07051818
2410820c:	07051418 	.word	0x07051418
24108210:	07041818 	.word	0x07041818
24108214:	07041418 	.word	0x07041418
24108218:	07031818 	.word	0x07031818
2410821c:	07031418 	.word	0x07031418
24108220:	07021818 	.word	0x07021818
24108224:	07021418 	.word	0x07021418
24108228:	07011818 	.word	0x07011818
2410822c:	07011418 	.word	0x07011418
24108230:	07001418 	.word	0x07001418
24108234:	07001818 	.word	0x07001818
24108238:	03d09000 	.word	0x03d09000
2410823c:	003d0900 	.word	0x003d0900
24108240:	00bb8000 	.word	0x00bb8000

24108244 <RCCEx_GetSDMMCCLKFreq>:
  *         @arg @ref RCCEx_SDMMC2_Clock_Source
  * @retval SDMMC clock frequency (in Hz)
  *         - @ref  RCC_PERIPH_FREQUENCY_NO indicates that oscillator is not ready
  */
static uint32_t RCCEx_GetSDMMCCLKFreq(uint32_t SDMMCxSource)
{
24108244:	b580      	push	{r7, lr}
24108246:	b084      	sub	sp, #16
24108248:	af00      	add	r7, sp, #0
2410824a:	6078      	str	r0, [r7, #4]
  uint32_t sdmmc_frequency = RCC_PERIPH_FREQUENCY_NO;
2410824c:	2300      	movs	r3, #0
2410824e:	60fb      	str	r3, [r7, #12]
  uint32_t ic_divider;

  switch (LL_RCC_GetSDMMCClockSource(SDMMCxSource))
24108250:	6878      	ldr	r0, [r7, #4]
24108252:	f7f9 ff1b 	bl	2410208c <LL_RCC_GetSDMMCClockSource>
24108256:	4603      	mov	r3, r0
24108258:	4a67      	ldr	r2, [pc, #412]	@ (241083f8 <RCCEx_GetSDMMCCLKFreq+0x1b4>)
2410825a:	4293      	cmp	r3, r2
2410825c:	d07e      	beq.n	2410835c <RCCEx_GetSDMMCCLKFreq+0x118>
2410825e:	4a66      	ldr	r2, [pc, #408]	@ (241083f8 <RCCEx_GetSDMMCCLKFreq+0x1b4>)
24108260:	4293      	cmp	r3, r2
24108262:	f200 80be 	bhi.w	241083e2 <RCCEx_GetSDMMCCLKFreq+0x19e>
24108266:	4a65      	ldr	r2, [pc, #404]	@ (241083fc <RCCEx_GetSDMMCCLKFreq+0x1b8>)
24108268:	4293      	cmp	r3, r2
2410826a:	d077      	beq.n	2410835c <RCCEx_GetSDMMCCLKFreq+0x118>
2410826c:	4a63      	ldr	r2, [pc, #396]	@ (241083fc <RCCEx_GetSDMMCCLKFreq+0x1b8>)
2410826e:	4293      	cmp	r3, r2
24108270:	f200 80b7 	bhi.w	241083e2 <RCCEx_GetSDMMCCLKFreq+0x19e>
24108274:	4a62      	ldr	r2, [pc, #392]	@ (24108400 <RCCEx_GetSDMMCCLKFreq+0x1bc>)
24108276:	4293      	cmp	r3, r2
24108278:	d02c      	beq.n	241082d4 <RCCEx_GetSDMMCCLKFreq+0x90>
2410827a:	4a61      	ldr	r2, [pc, #388]	@ (24108400 <RCCEx_GetSDMMCCLKFreq+0x1bc>)
2410827c:	4293      	cmp	r3, r2
2410827e:	f200 80b0 	bhi.w	241083e2 <RCCEx_GetSDMMCCLKFreq+0x19e>
24108282:	4a60      	ldr	r2, [pc, #384]	@ (24108404 <RCCEx_GetSDMMCCLKFreq+0x1c0>)
24108284:	4293      	cmp	r3, r2
24108286:	d025      	beq.n	241082d4 <RCCEx_GetSDMMCCLKFreq+0x90>
24108288:	4a5e      	ldr	r2, [pc, #376]	@ (24108404 <RCCEx_GetSDMMCCLKFreq+0x1c0>)
2410828a:	4293      	cmp	r3, r2
2410828c:	f200 80a9 	bhi.w	241083e2 <RCCEx_GetSDMMCCLKFreq+0x19e>
24108290:	4a5d      	ldr	r2, [pc, #372]	@ (24108408 <RCCEx_GetSDMMCCLKFreq+0x1c4>)
24108292:	4293      	cmp	r3, r2
24108294:	d019      	beq.n	241082ca <RCCEx_GetSDMMCCLKFreq+0x86>
24108296:	4a5c      	ldr	r2, [pc, #368]	@ (24108408 <RCCEx_GetSDMMCCLKFreq+0x1c4>)
24108298:	4293      	cmp	r3, r2
2410829a:	f200 80a2 	bhi.w	241083e2 <RCCEx_GetSDMMCCLKFreq+0x19e>
2410829e:	4a5b      	ldr	r2, [pc, #364]	@ (2410840c <RCCEx_GetSDMMCCLKFreq+0x1c8>)
241082a0:	4293      	cmp	r3, r2
241082a2:	d012      	beq.n	241082ca <RCCEx_GetSDMMCCLKFreq+0x86>
241082a4:	4a59      	ldr	r2, [pc, #356]	@ (2410840c <RCCEx_GetSDMMCCLKFreq+0x1c8>)
241082a6:	4293      	cmp	r3, r2
241082a8:	f200 809b 	bhi.w	241083e2 <RCCEx_GetSDMMCCLKFreq+0x19e>
241082ac:	4a58      	ldr	r2, [pc, #352]	@ (24108410 <RCCEx_GetSDMMCCLKFreq+0x1cc>)
241082ae:	4293      	cmp	r3, r2
241082b0:	d003      	beq.n	241082ba <RCCEx_GetSDMMCCLKFreq+0x76>
241082b2:	4a58      	ldr	r2, [pc, #352]	@ (24108414 <RCCEx_GetSDMMCCLKFreq+0x1d0>)
241082b4:	4293      	cmp	r3, r2
241082b6:	f040 8094 	bne.w	241083e2 <RCCEx_GetSDMMCCLKFreq+0x19e>
  {
    case LL_RCC_SDMMC1_CLKSOURCE_HCLK:
    case LL_RCC_SDMMC2_CLKSOURCE_HCLK:
      sdmmc_frequency = RCCEx_GetHCLKFreq(HAL_RCC_GetSysClockFreq());
241082ba:	f7f9 fa53 	bl	24101764 <HAL_RCC_GetSysClockFreq>
241082be:	4603      	mov	r3, r0
241082c0:	4618      	mov	r0, r3
241082c2:	f7fd feb5 	bl	24106030 <RCCEx_GetHCLKFreq>
241082c6:	60f8      	str	r0, [r7, #12]
      break;
241082c8:	e090      	b.n	241083ec <RCCEx_GetSDMMCCLKFreq+0x1a8>

    case LL_RCC_SDMMC1_CLKSOURCE_CLKP:
    case LL_RCC_SDMMC2_CLKSOURCE_CLKP:
      sdmmc_frequency = RCCEx_GetCLKPCLKFreq(LL_RCC_CLKP_CLKSOURCE);
241082ca:	2007      	movs	r0, #7
241082cc:	f7fe f99c 	bl	24106608 <RCCEx_GetCLKPCLKFreq>
241082d0:	60f8      	str	r0, [r7, #12]
      break;
241082d2:	e08b      	b.n	241083ec <RCCEx_GetSDMMCCLKFreq+0x1a8>

    case LL_RCC_SDMMC1_CLKSOURCE_IC4:
    case LL_RCC_SDMMC2_CLKSOURCE_IC4:
      if (LL_RCC_IC4_IsEnabled() != 0U)
241082d4:	f7fa fa40 	bl	24102758 <LL_RCC_IC4_IsEnabled>
241082d8:	4603      	mov	r3, r0
241082da:	2b00      	cmp	r3, #0
241082dc:	f000 8083 	beq.w	241083e6 <RCCEx_GetSDMMCCLKFreq+0x1a2>
      {
        ic_divider = LL_RCC_IC4_GetDivider();
241082e0:	f7fa fa5c 	bl	2410279c <LL_RCC_IC4_GetDivider>
241082e4:	60b8      	str	r0, [r7, #8]
        switch (LL_RCC_IC4_GetSource())
241082e6:	f7fa fa4b 	bl	24102780 <LL_RCC_IC4_GetSource>
241082ea:	4603      	mov	r3, r0
241082ec:	f1b3 5f40 	cmp.w	r3, #805306368	@ 0x30000000
241082f0:	d029      	beq.n	24108346 <RCCEx_GetSDMMCCLKFreq+0x102>
241082f2:	f1b3 5f40 	cmp.w	r3, #805306368	@ 0x30000000
241082f6:	d82f      	bhi.n	24108358 <RCCEx_GetSDMMCCLKFreq+0x114>
241082f8:	f1b3 5f00 	cmp.w	r3, #536870912	@ 0x20000000
241082fc:	d01a      	beq.n	24108334 <RCCEx_GetSDMMCCLKFreq+0xf0>
241082fe:	f1b3 5f00 	cmp.w	r3, #536870912	@ 0x20000000
24108302:	d829      	bhi.n	24108358 <RCCEx_GetSDMMCCLKFreq+0x114>
24108304:	2b00      	cmp	r3, #0
24108306:	d003      	beq.n	24108310 <RCCEx_GetSDMMCCLKFreq+0xcc>
24108308:	f1b3 5f80 	cmp.w	r3, #268435456	@ 0x10000000
2410830c:	d009      	beq.n	24108322 <RCCEx_GetSDMMCCLKFreq+0xde>
            sdmmc_frequency = HAL_RCCEx_GetPLL4CLKFreq();
            sdmmc_frequency = sdmmc_frequency / ic_divider;
            break;
          default:
            /* Unexpected case */
            break;
2410830e:	e023      	b.n	24108358 <RCCEx_GetSDMMCCLKFreq+0x114>
            sdmmc_frequency = HAL_RCCEx_GetPLL1CLKFreq();
24108310:	f7fd fd76 	bl	24105e00 <HAL_RCCEx_GetPLL1CLKFreq>
24108314:	60f8      	str	r0, [r7, #12]
            sdmmc_frequency = sdmmc_frequency / ic_divider;
24108316:	68fa      	ldr	r2, [r7, #12]
24108318:	68bb      	ldr	r3, [r7, #8]
2410831a:	fbb2 f3f3 	udiv	r3, r2, r3
2410831e:	60fb      	str	r3, [r7, #12]
            break;
24108320:	e01b      	b.n	2410835a <RCCEx_GetSDMMCCLKFreq+0x116>
            sdmmc_frequency = HAL_RCCEx_GetPLL2CLKFreq();
24108322:	f7fd fdb3 	bl	24105e8c <HAL_RCCEx_GetPLL2CLKFreq>
24108326:	60f8      	str	r0, [r7, #12]
            sdmmc_frequency = sdmmc_frequency / ic_divider;
24108328:	68fa      	ldr	r2, [r7, #12]
2410832a:	68bb      	ldr	r3, [r7, #8]
2410832c:	fbb2 f3f3 	udiv	r3, r2, r3
24108330:	60fb      	str	r3, [r7, #12]
            break;
24108332:	e012      	b.n	2410835a <RCCEx_GetSDMMCCLKFreq+0x116>
            sdmmc_frequency = HAL_RCCEx_GetPLL3CLKFreq();
24108334:	f7fd fdf0 	bl	24105f18 <HAL_RCCEx_GetPLL3CLKFreq>
24108338:	60f8      	str	r0, [r7, #12]
            sdmmc_frequency = sdmmc_frequency / ic_divider;
2410833a:	68fa      	ldr	r2, [r7, #12]
2410833c:	68bb      	ldr	r3, [r7, #8]
2410833e:	fbb2 f3f3 	udiv	r3, r2, r3
24108342:	60fb      	str	r3, [r7, #12]
            break;
24108344:	e009      	b.n	2410835a <RCCEx_GetSDMMCCLKFreq+0x116>
            sdmmc_frequency = HAL_RCCEx_GetPLL4CLKFreq();
24108346:	f7fd fe2d 	bl	24105fa4 <HAL_RCCEx_GetPLL4CLKFreq>
2410834a:	60f8      	str	r0, [r7, #12]
            sdmmc_frequency = sdmmc_frequency / ic_divider;
2410834c:	68fa      	ldr	r2, [r7, #12]
2410834e:	68bb      	ldr	r3, [r7, #8]
24108350:	fbb2 f3f3 	udiv	r3, r2, r3
24108354:	60fb      	str	r3, [r7, #12]
            break;
24108356:	e000      	b.n	2410835a <RCCEx_GetSDMMCCLKFreq+0x116>
            break;
24108358:	bf00      	nop
        }
      }
      break;
2410835a:	e044      	b.n	241083e6 <RCCEx_GetSDMMCCLKFreq+0x1a2>

    case LL_RCC_SDMMC1_CLKSOURCE_IC5:
    case LL_RCC_SDMMC2_CLKSOURCE_IC5:
      if (LL_RCC_IC5_IsEnabled() != 0U)
2410835c:	f7fa fa3c 	bl	241027d8 <LL_RCC_IC5_IsEnabled>
24108360:	4603      	mov	r3, r0
24108362:	2b00      	cmp	r3, #0
24108364:	d041      	beq.n	241083ea <RCCEx_GetSDMMCCLKFreq+0x1a6>
      {
        ic_divider = LL_RCC_IC5_GetDivider();
24108366:	f7fa fa59 	bl	2410281c <LL_RCC_IC5_GetDivider>
2410836a:	60b8      	str	r0, [r7, #8]
        switch (LL_RCC_IC5_GetSource())
2410836c:	f7fa fa48 	bl	24102800 <LL_RCC_IC5_GetSource>
24108370:	4603      	mov	r3, r0
24108372:	f1b3 5f40 	cmp.w	r3, #805306368	@ 0x30000000
24108376:	d029      	beq.n	241083cc <RCCEx_GetSDMMCCLKFreq+0x188>
24108378:	f1b3 5f40 	cmp.w	r3, #805306368	@ 0x30000000
2410837c:	d82f      	bhi.n	241083de <RCCEx_GetSDMMCCLKFreq+0x19a>
2410837e:	f1b3 5f00 	cmp.w	r3, #536870912	@ 0x20000000
24108382:	d01a      	beq.n	241083ba <RCCEx_GetSDMMCCLKFreq+0x176>
24108384:	f1b3 5f00 	cmp.w	r3, #536870912	@ 0x20000000
24108388:	d829      	bhi.n	241083de <RCCEx_GetSDMMCCLKFreq+0x19a>
2410838a:	2b00      	cmp	r3, #0
2410838c:	d003      	beq.n	24108396 <RCCEx_GetSDMMCCLKFreq+0x152>
2410838e:	f1b3 5f80 	cmp.w	r3, #268435456	@ 0x10000000
24108392:	d009      	beq.n	241083a8 <RCCEx_GetSDMMCCLKFreq+0x164>
            sdmmc_frequency = HAL_RCCEx_GetPLL4CLKFreq();
            sdmmc_frequency = sdmmc_frequency / ic_divider;
            break;
          default:
            /* Unexpected case */
            break;
24108394:	e023      	b.n	241083de <RCCEx_GetSDMMCCLKFreq+0x19a>
            sdmmc_frequency = HAL_RCCEx_GetPLL1CLKFreq();
24108396:	f7fd fd33 	bl	24105e00 <HAL_RCCEx_GetPLL1CLKFreq>
2410839a:	60f8      	str	r0, [r7, #12]
            sdmmc_frequency = sdmmc_frequency / ic_divider;
2410839c:	68fa      	ldr	r2, [r7, #12]
2410839e:	68bb      	ldr	r3, [r7, #8]
241083a0:	fbb2 f3f3 	udiv	r3, r2, r3
241083a4:	60fb      	str	r3, [r7, #12]
            break;
241083a6:	e01b      	b.n	241083e0 <RCCEx_GetSDMMCCLKFreq+0x19c>
            sdmmc_frequency = HAL_RCCEx_GetPLL2CLKFreq();
241083a8:	f7fd fd70 	bl	24105e8c <HAL_RCCEx_GetPLL2CLKFreq>
241083ac:	60f8      	str	r0, [r7, #12]
            sdmmc_frequency = sdmmc_frequency / ic_divider;
241083ae:	68fa      	ldr	r2, [r7, #12]
241083b0:	68bb      	ldr	r3, [r7, #8]
241083b2:	fbb2 f3f3 	udiv	r3, r2, r3
241083b6:	60fb      	str	r3, [r7, #12]
            break;
241083b8:	e012      	b.n	241083e0 <RCCEx_GetSDMMCCLKFreq+0x19c>
            sdmmc_frequency = HAL_RCCEx_GetPLL3CLKFreq();
241083ba:	f7fd fdad 	bl	24105f18 <HAL_RCCEx_GetPLL3CLKFreq>
241083be:	60f8      	str	r0, [r7, #12]
            sdmmc_frequency = sdmmc_frequency / ic_divider;
241083c0:	68fa      	ldr	r2, [r7, #12]
241083c2:	68bb      	ldr	r3, [r7, #8]
241083c4:	fbb2 f3f3 	udiv	r3, r2, r3
241083c8:	60fb      	str	r3, [r7, #12]
            break;
241083ca:	e009      	b.n	241083e0 <RCCEx_GetSDMMCCLKFreq+0x19c>
            sdmmc_frequency = HAL_RCCEx_GetPLL4CLKFreq();
241083cc:	f7fd fdea 	bl	24105fa4 <HAL_RCCEx_GetPLL4CLKFreq>
241083d0:	60f8      	str	r0, [r7, #12]
            sdmmc_frequency = sdmmc_frequency / ic_divider;
241083d2:	68fa      	ldr	r2, [r7, #12]
241083d4:	68bb      	ldr	r3, [r7, #8]
241083d6:	fbb2 f3f3 	udiv	r3, r2, r3
241083da:	60fb      	str	r3, [r7, #12]
            break;
241083dc:	e000      	b.n	241083e0 <RCCEx_GetSDMMCCLKFreq+0x19c>
            break;
241083de:	bf00      	nop
        }
      }
      break;
241083e0:	e003      	b.n	241083ea <RCCEx_GetSDMMCCLKFreq+0x1a6>

    default:
      /* Unexpected case */
      break;
241083e2:	bf00      	nop
241083e4:	e002      	b.n	241083ec <RCCEx_GetSDMMCCLKFreq+0x1a8>
      break;
241083e6:	bf00      	nop
241083e8:	e000      	b.n	241083ec <RCCEx_GetSDMMCCLKFreq+0x1a8>
      break;
241083ea:	bf00      	nop
  }

  return sdmmc_frequency;
241083ec:	68fb      	ldr	r3, [r7, #12]
}
241083ee:	4618      	mov	r0, r3
241083f0:	3710      	adds	r7, #16
241083f2:	46bd      	mov	sp, r7
241083f4:	bd80      	pop	{r7, pc}
241083f6:	bf00      	nop
241083f8:	0303041c 	.word	0x0303041c
241083fc:	0303001c 	.word	0x0303001c
24108400:	0302041c 	.word	0x0302041c
24108404:	0302001c 	.word	0x0302001c
24108408:	0301041c 	.word	0x0301041c
2410840c:	0301001c 	.word	0x0301001c
24108410:	0300001c 	.word	0x0300001c
24108414:	0300041c 	.word	0x0300041c

24108418 <RCCEx_GetSPDIFRXCLKFreq>:
  *         @arg @ref RCCEx_SPDIFRX1_Clock_Source
  * @retval SPDIF clock frequency (in Hz)
  *         - @ref  RCC_PERIPH_FREQUENCY_NO indicates that oscillator is not ready
  */
static uint32_t RCCEx_GetSPDIFRXCLKFreq(uint32_t SPDIFRXxSource)
{
24108418:	b580      	push	{r7, lr}
2410841a:	b084      	sub	sp, #16
2410841c:	af00      	add	r7, sp, #0
2410841e:	6078      	str	r0, [r7, #4]
  uint32_t spdifrx_frequency = RCC_PERIPH_FREQUENCY_NO;
24108420:	2300      	movs	r3, #0
24108422:	60fb      	str	r3, [r7, #12]
  uint32_t ic_divider;

  switch (LL_RCC_GetSPDIFRXClockSource(SPDIFRXxSource))
24108424:	6878      	ldr	r0, [r7, #4]
24108426:	f7f9 fe3d 	bl	241020a4 <LL_RCC_GetSPDIFRXClockSource>
2410842a:	4603      	mov	r3, r0
2410842c:	2b06      	cmp	r3, #6
2410842e:	f200 80c2 	bhi.w	241085b6 <RCCEx_GetSPDIFRXCLKFreq+0x19e>
24108432:	a201      	add	r2, pc, #4	@ (adr r2, 24108438 <RCCEx_GetSPDIFRXCLKFreq+0x20>)
24108434:	f852 f023 	ldr.w	pc, [r2, r3, lsl #2]
24108438:	24108455 	.word	0x24108455
2410843c:	2410846d 	.word	0x2410846d
24108440:	24108477 	.word	0x24108477
24108444:	241084ff 	.word	0x241084ff
24108448:	241085a1 	.word	0x241085a1
2410844c:	24108585 	.word	0x24108585
24108450:	241085b1 	.word	0x241085b1
  {
    case LL_RCC_SPDIFRX1_CLKSOURCE_PCLK1:
      spdifrx_frequency = RCCEx_GetPCLK1Freq(RCCEx_GetHCLKFreq(HAL_RCC_GetSysClockFreq()));
24108454:	f7f9 f986 	bl	24101764 <HAL_RCC_GetSysClockFreq>
24108458:	4603      	mov	r3, r0
2410845a:	4618      	mov	r0, r3
2410845c:	f7fd fde8 	bl	24106030 <RCCEx_GetHCLKFreq>
24108460:	4603      	mov	r3, r0
24108462:	4618      	mov	r0, r3
24108464:	f7fd fdf5 	bl	24106052 <RCCEx_GetPCLK1Freq>
24108468:	60f8      	str	r0, [r7, #12]
      break;
2410846a:	e0ad      	b.n	241085c8 <RCCEx_GetSPDIFRXCLKFreq+0x1b0>

    case LL_RCC_SPDIFRX1_CLKSOURCE_CLKP:
      spdifrx_frequency = RCCEx_GetCLKPCLKFreq(LL_RCC_CLKP_CLKSOURCE);
2410846c:	2007      	movs	r0, #7
2410846e:	f7fe f8cb 	bl	24106608 <RCCEx_GetCLKPCLKFreq>
24108472:	60f8      	str	r0, [r7, #12]
      break;
24108474:	e0a8      	b.n	241085c8 <RCCEx_GetSPDIFRXCLKFreq+0x1b0>

    case LL_RCC_SPDIFRX1_CLKSOURCE_IC7:
      if (LL_RCC_IC7_IsEnabled() != 0U)
24108476:	f7fa f9ef 	bl	24102858 <LL_RCC_IC7_IsEnabled>
2410847a:	4603      	mov	r3, r0
2410847c:	2b00      	cmp	r3, #0
2410847e:	f000 809c 	beq.w	241085ba <RCCEx_GetSPDIFRXCLKFreq+0x1a2>
      {
        ic_divider = LL_RCC_IC7_GetDivider();
24108482:	f7fa fa0b 	bl	2410289c <LL_RCC_IC7_GetDivider>
24108486:	60b8      	str	r0, [r7, #8]
        switch (LL_RCC_IC7_GetSource())
24108488:	f7fa f9fa 	bl	24102880 <LL_RCC_IC7_GetSource>
2410848c:	4603      	mov	r3, r0
2410848e:	f1b3 5f40 	cmp.w	r3, #805306368	@ 0x30000000
24108492:	d029      	beq.n	241084e8 <RCCEx_GetSPDIFRXCLKFreq+0xd0>
24108494:	f1b3 5f40 	cmp.w	r3, #805306368	@ 0x30000000
24108498:	d82f      	bhi.n	241084fa <RCCEx_GetSPDIFRXCLKFreq+0xe2>
2410849a:	f1b3 5f00 	cmp.w	r3, #536870912	@ 0x20000000
2410849e:	d01a      	beq.n	241084d6 <RCCEx_GetSPDIFRXCLKFreq+0xbe>
241084a0:	f1b3 5f00 	cmp.w	r3, #536870912	@ 0x20000000
241084a4:	d829      	bhi.n	241084fa <RCCEx_GetSPDIFRXCLKFreq+0xe2>
241084a6:	2b00      	cmp	r3, #0
241084a8:	d003      	beq.n	241084b2 <RCCEx_GetSPDIFRXCLKFreq+0x9a>
241084aa:	f1b3 5f80 	cmp.w	r3, #268435456	@ 0x10000000
241084ae:	d009      	beq.n	241084c4 <RCCEx_GetSPDIFRXCLKFreq+0xac>
            spdifrx_frequency = HAL_RCCEx_GetPLL4CLKFreq();
            spdifrx_frequency = spdifrx_frequency / ic_divider;
            break;
          default:
            /* Unexpected case */
            break;
241084b0:	e023      	b.n	241084fa <RCCEx_GetSPDIFRXCLKFreq+0xe2>
            spdifrx_frequency = HAL_RCCEx_GetPLL1CLKFreq();
241084b2:	f7fd fca5 	bl	24105e00 <HAL_RCCEx_GetPLL1CLKFreq>
241084b6:	60f8      	str	r0, [r7, #12]
            spdifrx_frequency = spdifrx_frequency / ic_divider;
241084b8:	68fa      	ldr	r2, [r7, #12]
241084ba:	68bb      	ldr	r3, [r7, #8]
241084bc:	fbb2 f3f3 	udiv	r3, r2, r3
241084c0:	60fb      	str	r3, [r7, #12]
            break;
241084c2:	e01b      	b.n	241084fc <RCCEx_GetSPDIFRXCLKFreq+0xe4>
            spdifrx_frequency = HAL_RCCEx_GetPLL2CLKFreq();
241084c4:	f7fd fce2 	bl	24105e8c <HAL_RCCEx_GetPLL2CLKFreq>
241084c8:	60f8      	str	r0, [r7, #12]
            spdifrx_frequency = spdifrx_frequency / ic_divider;
241084ca:	68fa      	ldr	r2, [r7, #12]
241084cc:	68bb      	ldr	r3, [r7, #8]
241084ce:	fbb2 f3f3 	udiv	r3, r2, r3
241084d2:	60fb      	str	r3, [r7, #12]
            break;
241084d4:	e012      	b.n	241084fc <RCCEx_GetSPDIFRXCLKFreq+0xe4>
            spdifrx_frequency = HAL_RCCEx_GetPLL3CLKFreq();
241084d6:	f7fd fd1f 	bl	24105f18 <HAL_RCCEx_GetPLL3CLKFreq>
241084da:	60f8      	str	r0, [r7, #12]
            spdifrx_frequency = spdifrx_frequency / ic_divider;
241084dc:	68fa      	ldr	r2, [r7, #12]
241084de:	68bb      	ldr	r3, [r7, #8]
241084e0:	fbb2 f3f3 	udiv	r3, r2, r3
241084e4:	60fb      	str	r3, [r7, #12]
            break;
241084e6:	e009      	b.n	241084fc <RCCEx_GetSPDIFRXCLKFreq+0xe4>
            spdifrx_frequency = HAL_RCCEx_GetPLL4CLKFreq();
241084e8:	f7fd fd5c 	bl	24105fa4 <HAL_RCCEx_GetPLL4CLKFreq>
241084ec:	60f8      	str	r0, [r7, #12]
            spdifrx_frequency = spdifrx_frequency / ic_divider;
241084ee:	68fa      	ldr	r2, [r7, #12]
241084f0:	68bb      	ldr	r3, [r7, #8]
241084f2:	fbb2 f3f3 	udiv	r3, r2, r3
241084f6:	60fb      	str	r3, [r7, #12]
            break;
241084f8:	e000      	b.n	241084fc <RCCEx_GetSPDIFRXCLKFreq+0xe4>
            break;
241084fa:	bf00      	nop
        }
      }
      break;
241084fc:	e05d      	b.n	241085ba <RCCEx_GetSPDIFRXCLKFreq+0x1a2>

    case LL_RCC_SPDIFRX1_CLKSOURCE_IC8:
      if (LL_RCC_IC8_IsEnabled() != 0U)
241084fe:	f7fa f9eb 	bl	241028d8 <LL_RCC_IC8_IsEnabled>
24108502:	4603      	mov	r3, r0
24108504:	2b00      	cmp	r3, #0
24108506:	d05a      	beq.n	241085be <RCCEx_GetSPDIFRXCLKFreq+0x1a6>
      {
        ic_divider = LL_RCC_IC8_GetDivider();
24108508:	f7fa fa08 	bl	2410291c <LL_RCC_IC8_GetDivider>
2410850c:	60b8      	str	r0, [r7, #8]
        switch (LL_RCC_IC8_GetSource())
2410850e:	f7fa f9f7 	bl	24102900 <LL_RCC_IC8_GetSource>
24108512:	4603      	mov	r3, r0
24108514:	f1b3 5f40 	cmp.w	r3, #805306368	@ 0x30000000
24108518:	d029      	beq.n	2410856e <RCCEx_GetSPDIFRXCLKFreq+0x156>
2410851a:	f1b3 5f40 	cmp.w	r3, #805306368	@ 0x30000000
2410851e:	d82f      	bhi.n	24108580 <RCCEx_GetSPDIFRXCLKFreq+0x168>
24108520:	f1b3 5f00 	cmp.w	r3, #536870912	@ 0x20000000
24108524:	d01a      	beq.n	2410855c <RCCEx_GetSPDIFRXCLKFreq+0x144>
24108526:	f1b3 5f00 	cmp.w	r3, #536870912	@ 0x20000000
2410852a:	d829      	bhi.n	24108580 <RCCEx_GetSPDIFRXCLKFreq+0x168>
2410852c:	2b00      	cmp	r3, #0
2410852e:	d003      	beq.n	24108538 <RCCEx_GetSPDIFRXCLKFreq+0x120>
24108530:	f1b3 5f80 	cmp.w	r3, #268435456	@ 0x10000000
24108534:	d009      	beq.n	2410854a <RCCEx_GetSPDIFRXCLKFreq+0x132>
            spdifrx_frequency = HAL_RCCEx_GetPLL4CLKFreq();
            spdifrx_frequency = spdifrx_frequency / ic_divider;
            break;
          default:
            /* Unexpected case */
            break;
24108536:	e023      	b.n	24108580 <RCCEx_GetSPDIFRXCLKFreq+0x168>
            spdifrx_frequency = HAL_RCCEx_GetPLL1CLKFreq();
24108538:	f7fd fc62 	bl	24105e00 <HAL_RCCEx_GetPLL1CLKFreq>
2410853c:	60f8      	str	r0, [r7, #12]
            spdifrx_frequency = spdifrx_frequency / ic_divider;
2410853e:	68fa      	ldr	r2, [r7, #12]
24108540:	68bb      	ldr	r3, [r7, #8]
24108542:	fbb2 f3f3 	udiv	r3, r2, r3
24108546:	60fb      	str	r3, [r7, #12]
            break;
24108548:	e01b      	b.n	24108582 <RCCEx_GetSPDIFRXCLKFreq+0x16a>
            spdifrx_frequency = HAL_RCCEx_GetPLL2CLKFreq();
2410854a:	f7fd fc9f 	bl	24105e8c <HAL_RCCEx_GetPLL2CLKFreq>
2410854e:	60f8      	str	r0, [r7, #12]
            spdifrx_frequency = spdifrx_frequency / ic_divider;
24108550:	68fa      	ldr	r2, [r7, #12]
24108552:	68bb      	ldr	r3, [r7, #8]
24108554:	fbb2 f3f3 	udiv	r3, r2, r3
24108558:	60fb      	str	r3, [r7, #12]
            break;
2410855a:	e012      	b.n	24108582 <RCCEx_GetSPDIFRXCLKFreq+0x16a>
            spdifrx_frequency = HAL_RCCEx_GetPLL3CLKFreq();
2410855c:	f7fd fcdc 	bl	24105f18 <HAL_RCCEx_GetPLL3CLKFreq>
24108560:	60f8      	str	r0, [r7, #12]
            spdifrx_frequency = spdifrx_frequency / ic_divider;
24108562:	68fa      	ldr	r2, [r7, #12]
24108564:	68bb      	ldr	r3, [r7, #8]
24108566:	fbb2 f3f3 	udiv	r3, r2, r3
2410856a:	60fb      	str	r3, [r7, #12]
            break;
2410856c:	e009      	b.n	24108582 <RCCEx_GetSPDIFRXCLKFreq+0x16a>
            spdifrx_frequency = HAL_RCCEx_GetPLL4CLKFreq();
2410856e:	f7fd fd19 	bl	24105fa4 <HAL_RCCEx_GetPLL4CLKFreq>
24108572:	60f8      	str	r0, [r7, #12]
            spdifrx_frequency = spdifrx_frequency / ic_divider;
24108574:	68fa      	ldr	r2, [r7, #12]
24108576:	68bb      	ldr	r3, [r7, #8]
24108578:	fbb2 f3f3 	udiv	r3, r2, r3
2410857c:	60fb      	str	r3, [r7, #12]
            break;
2410857e:	e000      	b.n	24108582 <RCCEx_GetSPDIFRXCLKFreq+0x16a>
            break;
24108580:	bf00      	nop
        }
      }
      break;
24108582:	e01c      	b.n	241085be <RCCEx_GetSPDIFRXCLKFreq+0x1a6>

    case LL_RCC_SPDIFRX1_CLKSOURCE_HSI:
      if (LL_RCC_HSI_IsReady() != 0U)
24108584:	f7f9 f9c4 	bl	24101910 <LL_RCC_HSI_IsReady>
24108588:	4603      	mov	r3, r0
2410858a:	2b00      	cmp	r3, #0
2410858c:	d019      	beq.n	241085c2 <RCCEx_GetSPDIFRXCLKFreq+0x1aa>
      {
        spdifrx_frequency = HSI_VALUE >> (LL_RCC_HSI_GetDivider() >> RCC_HSICFGR_HSIDIV_Pos);
2410858e:	f7f9 f9d1 	bl	24101934 <LL_RCC_HSI_GetDivider>
24108592:	4603      	mov	r3, r0
24108594:	09db      	lsrs	r3, r3, #7
24108596:	4a0f      	ldr	r2, [pc, #60]	@ (241085d4 <RCCEx_GetSPDIFRXCLKFreq+0x1bc>)
24108598:	fa22 f303 	lsr.w	r3, r2, r3
2410859c:	60fb      	str	r3, [r7, #12]
      }
      break;
2410859e:	e010      	b.n	241085c2 <RCCEx_GetSPDIFRXCLKFreq+0x1aa>

    case LL_RCC_SPDIFRX1_CLKSOURCE_MSI:
      if (LL_RCC_MSI_IsReady() != 0U)
241085a0:	f7f9 f9d6 	bl	24101950 <LL_RCC_MSI_IsReady>
241085a4:	4603      	mov	r3, r0
241085a6:	2b00      	cmp	r3, #0
241085a8:	d00d      	beq.n	241085c6 <RCCEx_GetSPDIFRXCLKFreq+0x1ae>
      {
        spdifrx_frequency = MSI_VALUE;
241085aa:	4b0b      	ldr	r3, [pc, #44]	@ (241085d8 <RCCEx_GetSPDIFRXCLKFreq+0x1c0>)
241085ac:	60fb      	str	r3, [r7, #12]
      }
      break;
241085ae:	e00a      	b.n	241085c6 <RCCEx_GetSPDIFRXCLKFreq+0x1ae>

    case LL_RCC_SPDIFRX1_CLKSOURCE_I2S_CKIN:
      spdifrx_frequency = EXTERNAL_CLOCK_VALUE;
241085b0:	4b0a      	ldr	r3, [pc, #40]	@ (241085dc <RCCEx_GetSPDIFRXCLKFreq+0x1c4>)
241085b2:	60fb      	str	r3, [r7, #12]
      break;
241085b4:	e008      	b.n	241085c8 <RCCEx_GetSPDIFRXCLKFreq+0x1b0>

    default:
      /* Unexpected case */
      break;
241085b6:	bf00      	nop
241085b8:	e006      	b.n	241085c8 <RCCEx_GetSPDIFRXCLKFreq+0x1b0>
      break;
241085ba:	bf00      	nop
241085bc:	e004      	b.n	241085c8 <RCCEx_GetSPDIFRXCLKFreq+0x1b0>
      break;
241085be:	bf00      	nop
241085c0:	e002      	b.n	241085c8 <RCCEx_GetSPDIFRXCLKFreq+0x1b0>
      break;
241085c2:	bf00      	nop
241085c4:	e000      	b.n	241085c8 <RCCEx_GetSPDIFRXCLKFreq+0x1b0>
      break;
241085c6:	bf00      	nop
  }

  return spdifrx_frequency;
241085c8:	68fb      	ldr	r3, [r7, #12]
}
241085ca:	4618      	mov	r0, r3
241085cc:	3710      	adds	r7, #16
241085ce:	46bd      	mov	sp, r7
241085d0:	bd80      	pop	{r7, pc}
241085d2:	bf00      	nop
241085d4:	03d09000 	.word	0x03d09000
241085d8:	003d0900 	.word	0x003d0900
241085dc:	00bb8000 	.word	0x00bb8000

241085e0 <RCCEx_GetSPICLKFreq>:
  *         @arg @ref RCCEx_SPI6_Clock_Source
  * @retval SPI clock frequency (in Hz)
  *         - @ref  RCC_PERIPH_FREQUENCY_NO indicates that oscillator is not ready
  */
static uint32_t RCCEx_GetSPICLKFreq(uint32_t SPIxSource)
{
241085e0:	b580      	push	{r7, lr}
241085e2:	b084      	sub	sp, #16
241085e4:	af00      	add	r7, sp, #0
241085e6:	6078      	str	r0, [r7, #4]
  uint32_t spi_frequency = RCC_PERIPH_FREQUENCY_NO;
241085e8:	2300      	movs	r3, #0
241085ea:	60fb      	str	r3, [r7, #12]
  uint32_t ic_divider;

  switch (LL_RCC_GetSPIClockSource(SPIxSource))
241085ec:	6878      	ldr	r0, [r7, #4]
241085ee:	f7f9 fd6b 	bl	241020c8 <LL_RCC_GetSPIClockSource>
241085f2:	4603      	mov	r3, r0
241085f4:	4aa7      	ldr	r2, [pc, #668]	@ (24108894 <RCCEx_GetSPICLKFreq+0x2b4>)
241085f6:	4293      	cmp	r3, r2
241085f8:	f000 829e 	beq.w	24108b38 <RCCEx_GetSPICLKFreq+0x558>
241085fc:	4aa5      	ldr	r2, [pc, #660]	@ (24108894 <RCCEx_GetSPICLKFreq+0x2b4>)
241085fe:	4293      	cmp	r3, r2
24108600:	f200 82a5 	bhi.w	24108b4e <RCCEx_GetSPICLKFreq+0x56e>
24108604:	4aa4      	ldr	r2, [pc, #656]	@ (24108898 <RCCEx_GetSPICLKFreq+0x2b8>)
24108606:	4293      	cmp	r3, r2
24108608:	f000 8299 	beq.w	24108b3e <RCCEx_GetSPICLKFreq+0x55e>
2410860c:	4aa2      	ldr	r2, [pc, #648]	@ (24108898 <RCCEx_GetSPICLKFreq+0x2b8>)
2410860e:	4293      	cmp	r3, r2
24108610:	f200 829d 	bhi.w	24108b4e <RCCEx_GetSPICLKFreq+0x56e>
24108614:	4aa1      	ldr	r2, [pc, #644]	@ (2410889c <RCCEx_GetSPICLKFreq+0x2bc>)
24108616:	4293      	cmp	r3, r2
24108618:	f000 8291 	beq.w	24108b3e <RCCEx_GetSPICLKFreq+0x55e>
2410861c:	4a9f      	ldr	r2, [pc, #636]	@ (2410889c <RCCEx_GetSPICLKFreq+0x2bc>)
2410861e:	4293      	cmp	r3, r2
24108620:	f200 8295 	bhi.w	24108b4e <RCCEx_GetSPICLKFreq+0x56e>
24108624:	4a9e      	ldr	r2, [pc, #632]	@ (241088a0 <RCCEx_GetSPICLKFreq+0x2c0>)
24108626:	4293      	cmp	r3, r2
24108628:	f000 8286 	beq.w	24108b38 <RCCEx_GetSPICLKFreq+0x558>
2410862c:	4a9c      	ldr	r2, [pc, #624]	@ (241088a0 <RCCEx_GetSPICLKFreq+0x2c0>)
2410862e:	4293      	cmp	r3, r2
24108630:	f200 828d 	bhi.w	24108b4e <RCCEx_GetSPICLKFreq+0x56e>
24108634:	4a9b      	ldr	r2, [pc, #620]	@ (241088a4 <RCCEx_GetSPICLKFreq+0x2c4>)
24108636:	4293      	cmp	r3, r2
24108638:	f000 827e 	beq.w	24108b38 <RCCEx_GetSPICLKFreq+0x558>
2410863c:	4a99      	ldr	r2, [pc, #612]	@ (241088a4 <RCCEx_GetSPICLKFreq+0x2c4>)
2410863e:	4293      	cmp	r3, r2
24108640:	f200 8285 	bhi.w	24108b4e <RCCEx_GetSPICLKFreq+0x56e>
24108644:	4a98      	ldr	r2, [pc, #608]	@ (241088a8 <RCCEx_GetSPICLKFreq+0x2c8>)
24108646:	4293      	cmp	r3, r2
24108648:	f000 8276 	beq.w	24108b38 <RCCEx_GetSPICLKFreq+0x558>
2410864c:	4a96      	ldr	r2, [pc, #600]	@ (241088a8 <RCCEx_GetSPICLKFreq+0x2c8>)
2410864e:	4293      	cmp	r3, r2
24108650:	f200 827d 	bhi.w	24108b4e <RCCEx_GetSPICLKFreq+0x56e>
24108654:	4a95      	ldr	r2, [pc, #596]	@ (241088ac <RCCEx_GetSPICLKFreq+0x2cc>)
24108656:	4293      	cmp	r3, r2
24108658:	f000 8258 	beq.w	24108b0c <RCCEx_GetSPICLKFreq+0x52c>
2410865c:	4a93      	ldr	r2, [pc, #588]	@ (241088ac <RCCEx_GetSPICLKFreq+0x2cc>)
2410865e:	4293      	cmp	r3, r2
24108660:	f200 8275 	bhi.w	24108b4e <RCCEx_GetSPICLKFreq+0x56e>
24108664:	4a92      	ldr	r2, [pc, #584]	@ (241088b0 <RCCEx_GetSPICLKFreq+0x2d0>)
24108666:	4293      	cmp	r3, r2
24108668:	f000 8250 	beq.w	24108b0c <RCCEx_GetSPICLKFreq+0x52c>
2410866c:	4a90      	ldr	r2, [pc, #576]	@ (241088b0 <RCCEx_GetSPICLKFreq+0x2d0>)
2410866e:	4293      	cmp	r3, r2
24108670:	f200 826d 	bhi.w	24108b4e <RCCEx_GetSPICLKFreq+0x56e>
24108674:	4a8f      	ldr	r2, [pc, #572]	@ (241088b4 <RCCEx_GetSPICLKFreq+0x2d4>)
24108676:	4293      	cmp	r3, r2
24108678:	f000 8248 	beq.w	24108b0c <RCCEx_GetSPICLKFreq+0x52c>
2410867c:	4a8d      	ldr	r2, [pc, #564]	@ (241088b4 <RCCEx_GetSPICLKFreq+0x2d4>)
2410867e:	4293      	cmp	r3, r2
24108680:	f200 8265 	bhi.w	24108b4e <RCCEx_GetSPICLKFreq+0x56e>
24108684:	4a8c      	ldr	r2, [pc, #560]	@ (241088b8 <RCCEx_GetSPICLKFreq+0x2d8>)
24108686:	4293      	cmp	r3, r2
24108688:	f000 8240 	beq.w	24108b0c <RCCEx_GetSPICLKFreq+0x52c>
2410868c:	4a8a      	ldr	r2, [pc, #552]	@ (241088b8 <RCCEx_GetSPICLKFreq+0x2d8>)
2410868e:	4293      	cmp	r3, r2
24108690:	f200 825d 	bhi.w	24108b4e <RCCEx_GetSPICLKFreq+0x56e>
24108694:	4a89      	ldr	r2, [pc, #548]	@ (241088bc <RCCEx_GetSPICLKFreq+0x2dc>)
24108696:	4293      	cmp	r3, r2
24108698:	f000 8238 	beq.w	24108b0c <RCCEx_GetSPICLKFreq+0x52c>
2410869c:	4a87      	ldr	r2, [pc, #540]	@ (241088bc <RCCEx_GetSPICLKFreq+0x2dc>)
2410869e:	4293      	cmp	r3, r2
241086a0:	f200 8255 	bhi.w	24108b4e <RCCEx_GetSPICLKFreq+0x56e>
241086a4:	4a86      	ldr	r2, [pc, #536]	@ (241088c0 <RCCEx_GetSPICLKFreq+0x2e0>)
241086a6:	4293      	cmp	r3, r2
241086a8:	f000 8230 	beq.w	24108b0c <RCCEx_GetSPICLKFreq+0x52c>
241086ac:	4a84      	ldr	r2, [pc, #528]	@ (241088c0 <RCCEx_GetSPICLKFreq+0x2e0>)
241086ae:	4293      	cmp	r3, r2
241086b0:	f200 824d 	bhi.w	24108b4e <RCCEx_GetSPICLKFreq+0x56e>
241086b4:	4a83      	ldr	r2, [pc, #524]	@ (241088c4 <RCCEx_GetSPICLKFreq+0x2e4>)
241086b6:	4293      	cmp	r3, r2
241086b8:	f000 8236 	beq.w	24108b28 <RCCEx_GetSPICLKFreq+0x548>
241086bc:	4a81      	ldr	r2, [pc, #516]	@ (241088c4 <RCCEx_GetSPICLKFreq+0x2e4>)
241086be:	4293      	cmp	r3, r2
241086c0:	f200 8245 	bhi.w	24108b4e <RCCEx_GetSPICLKFreq+0x56e>
241086c4:	4a80      	ldr	r2, [pc, #512]	@ (241088c8 <RCCEx_GetSPICLKFreq+0x2e8>)
241086c6:	4293      	cmp	r3, r2
241086c8:	f000 822e 	beq.w	24108b28 <RCCEx_GetSPICLKFreq+0x548>
241086cc:	4a7e      	ldr	r2, [pc, #504]	@ (241088c8 <RCCEx_GetSPICLKFreq+0x2e8>)
241086ce:	4293      	cmp	r3, r2
241086d0:	f200 823d 	bhi.w	24108b4e <RCCEx_GetSPICLKFreq+0x56e>
241086d4:	4a7d      	ldr	r2, [pc, #500]	@ (241088cc <RCCEx_GetSPICLKFreq+0x2ec>)
241086d6:	4293      	cmp	r3, r2
241086d8:	f000 8226 	beq.w	24108b28 <RCCEx_GetSPICLKFreq+0x548>
241086dc:	4a7b      	ldr	r2, [pc, #492]	@ (241088cc <RCCEx_GetSPICLKFreq+0x2ec>)
241086de:	4293      	cmp	r3, r2
241086e0:	f200 8235 	bhi.w	24108b4e <RCCEx_GetSPICLKFreq+0x56e>
241086e4:	4a7a      	ldr	r2, [pc, #488]	@ (241088d0 <RCCEx_GetSPICLKFreq+0x2f0>)
241086e6:	4293      	cmp	r3, r2
241086e8:	f000 821e 	beq.w	24108b28 <RCCEx_GetSPICLKFreq+0x548>
241086ec:	4a78      	ldr	r2, [pc, #480]	@ (241088d0 <RCCEx_GetSPICLKFreq+0x2f0>)
241086ee:	4293      	cmp	r3, r2
241086f0:	f200 822d 	bhi.w	24108b4e <RCCEx_GetSPICLKFreq+0x56e>
241086f4:	4a77      	ldr	r2, [pc, #476]	@ (241088d4 <RCCEx_GetSPICLKFreq+0x2f4>)
241086f6:	4293      	cmp	r3, r2
241086f8:	f000 8216 	beq.w	24108b28 <RCCEx_GetSPICLKFreq+0x548>
241086fc:	4a75      	ldr	r2, [pc, #468]	@ (241088d4 <RCCEx_GetSPICLKFreq+0x2f4>)
241086fe:	4293      	cmp	r3, r2
24108700:	f200 8225 	bhi.w	24108b4e <RCCEx_GetSPICLKFreq+0x56e>
24108704:	4a74      	ldr	r2, [pc, #464]	@ (241088d8 <RCCEx_GetSPICLKFreq+0x2f8>)
24108706:	4293      	cmp	r3, r2
24108708:	f000 820e 	beq.w	24108b28 <RCCEx_GetSPICLKFreq+0x548>
2410870c:	4a72      	ldr	r2, [pc, #456]	@ (241088d8 <RCCEx_GetSPICLKFreq+0x2f8>)
2410870e:	4293      	cmp	r3, r2
24108710:	f200 821d 	bhi.w	24108b4e <RCCEx_GetSPICLKFreq+0x56e>
24108714:	4a71      	ldr	r2, [pc, #452]	@ (241088dc <RCCEx_GetSPICLKFreq+0x2fc>)
24108716:	4293      	cmp	r3, r2
24108718:	f000 8171 	beq.w	241089fe <RCCEx_GetSPICLKFreq+0x41e>
2410871c:	4a6f      	ldr	r2, [pc, #444]	@ (241088dc <RCCEx_GetSPICLKFreq+0x2fc>)
2410871e:	4293      	cmp	r3, r2
24108720:	f200 8215 	bhi.w	24108b4e <RCCEx_GetSPICLKFreq+0x56e>
24108724:	4a6e      	ldr	r2, [pc, #440]	@ (241088e0 <RCCEx_GetSPICLKFreq+0x300>)
24108726:	4293      	cmp	r3, r2
24108728:	f000 81ad 	beq.w	24108a86 <RCCEx_GetSPICLKFreq+0x4a6>
2410872c:	4a6c      	ldr	r2, [pc, #432]	@ (241088e0 <RCCEx_GetSPICLKFreq+0x300>)
2410872e:	4293      	cmp	r3, r2
24108730:	f200 820d 	bhi.w	24108b4e <RCCEx_GetSPICLKFreq+0x56e>
24108734:	4a6b      	ldr	r2, [pc, #428]	@ (241088e4 <RCCEx_GetSPICLKFreq+0x304>)
24108736:	4293      	cmp	r3, r2
24108738:	f000 81a5 	beq.w	24108a86 <RCCEx_GetSPICLKFreq+0x4a6>
2410873c:	4a69      	ldr	r2, [pc, #420]	@ (241088e4 <RCCEx_GetSPICLKFreq+0x304>)
2410873e:	4293      	cmp	r3, r2
24108740:	f200 8205 	bhi.w	24108b4e <RCCEx_GetSPICLKFreq+0x56e>
24108744:	4a68      	ldr	r2, [pc, #416]	@ (241088e8 <RCCEx_GetSPICLKFreq+0x308>)
24108746:	4293      	cmp	r3, r2
24108748:	f000 8159 	beq.w	241089fe <RCCEx_GetSPICLKFreq+0x41e>
2410874c:	4a66      	ldr	r2, [pc, #408]	@ (241088e8 <RCCEx_GetSPICLKFreq+0x308>)
2410874e:	4293      	cmp	r3, r2
24108750:	f200 81fd 	bhi.w	24108b4e <RCCEx_GetSPICLKFreq+0x56e>
24108754:	4a65      	ldr	r2, [pc, #404]	@ (241088ec <RCCEx_GetSPICLKFreq+0x30c>)
24108756:	4293      	cmp	r3, r2
24108758:	f000 8151 	beq.w	241089fe <RCCEx_GetSPICLKFreq+0x41e>
2410875c:	4a63      	ldr	r2, [pc, #396]	@ (241088ec <RCCEx_GetSPICLKFreq+0x30c>)
2410875e:	4293      	cmp	r3, r2
24108760:	f200 81f5 	bhi.w	24108b4e <RCCEx_GetSPICLKFreq+0x56e>
24108764:	4a62      	ldr	r2, [pc, #392]	@ (241088f0 <RCCEx_GetSPICLKFreq+0x310>)
24108766:	4293      	cmp	r3, r2
24108768:	f000 8149 	beq.w	241089fe <RCCEx_GetSPICLKFreq+0x41e>
2410876c:	4a60      	ldr	r2, [pc, #384]	@ (241088f0 <RCCEx_GetSPICLKFreq+0x310>)
2410876e:	4293      	cmp	r3, r2
24108770:	f200 81ed 	bhi.w	24108b4e <RCCEx_GetSPICLKFreq+0x56e>
24108774:	4a5f      	ldr	r2, [pc, #380]	@ (241088f4 <RCCEx_GetSPICLKFreq+0x314>)
24108776:	4293      	cmp	r3, r2
24108778:	f000 80fd 	beq.w	24108976 <RCCEx_GetSPICLKFreq+0x396>
2410877c:	4a5d      	ldr	r2, [pc, #372]	@ (241088f4 <RCCEx_GetSPICLKFreq+0x314>)
2410877e:	4293      	cmp	r3, r2
24108780:	f200 81e5 	bhi.w	24108b4e <RCCEx_GetSPICLKFreq+0x56e>
24108784:	4a5c      	ldr	r2, [pc, #368]	@ (241088f8 <RCCEx_GetSPICLKFreq+0x318>)
24108786:	4293      	cmp	r3, r2
24108788:	f000 8139 	beq.w	241089fe <RCCEx_GetSPICLKFreq+0x41e>
2410878c:	4a5a      	ldr	r2, [pc, #360]	@ (241088f8 <RCCEx_GetSPICLKFreq+0x318>)
2410878e:	4293      	cmp	r3, r2
24108790:	f200 81dd 	bhi.w	24108b4e <RCCEx_GetSPICLKFreq+0x56e>
24108794:	4a59      	ldr	r2, [pc, #356]	@ (241088fc <RCCEx_GetSPICLKFreq+0x31c>)
24108796:	4293      	cmp	r3, r2
24108798:	f000 8131 	beq.w	241089fe <RCCEx_GetSPICLKFreq+0x41e>
2410879c:	4a57      	ldr	r2, [pc, #348]	@ (241088fc <RCCEx_GetSPICLKFreq+0x31c>)
2410879e:	4293      	cmp	r3, r2
241087a0:	f200 81d5 	bhi.w	24108b4e <RCCEx_GetSPICLKFreq+0x56e>
241087a4:	4a56      	ldr	r2, [pc, #344]	@ (24108900 <RCCEx_GetSPICLKFreq+0x320>)
241087a6:	4293      	cmp	r3, r2
241087a8:	f000 80e5 	beq.w	24108976 <RCCEx_GetSPICLKFreq+0x396>
241087ac:	4a54      	ldr	r2, [pc, #336]	@ (24108900 <RCCEx_GetSPICLKFreq+0x320>)
241087ae:	4293      	cmp	r3, r2
241087b0:	f200 81cd 	bhi.w	24108b4e <RCCEx_GetSPICLKFreq+0x56e>
241087b4:	4a53      	ldr	r2, [pc, #332]	@ (24108904 <RCCEx_GetSPICLKFreq+0x324>)
241087b6:	4293      	cmp	r3, r2
241087b8:	f000 80dd 	beq.w	24108976 <RCCEx_GetSPICLKFreq+0x396>
241087bc:	4a51      	ldr	r2, [pc, #324]	@ (24108904 <RCCEx_GetSPICLKFreq+0x324>)
241087be:	4293      	cmp	r3, r2
241087c0:	f200 81c5 	bhi.w	24108b4e <RCCEx_GetSPICLKFreq+0x56e>
241087c4:	4a50      	ldr	r2, [pc, #320]	@ (24108908 <RCCEx_GetSPICLKFreq+0x328>)
241087c6:	4293      	cmp	r3, r2
241087c8:	f000 80d5 	beq.w	24108976 <RCCEx_GetSPICLKFreq+0x396>
241087cc:	4a4e      	ldr	r2, [pc, #312]	@ (24108908 <RCCEx_GetSPICLKFreq+0x328>)
241087ce:	4293      	cmp	r3, r2
241087d0:	f200 81bd 	bhi.w	24108b4e <RCCEx_GetSPICLKFreq+0x56e>
241087d4:	4a4d      	ldr	r2, [pc, #308]	@ (2410890c <RCCEx_GetSPICLKFreq+0x32c>)
241087d6:	4293      	cmp	r3, r2
241087d8:	f000 80c8 	beq.w	2410896c <RCCEx_GetSPICLKFreq+0x38c>
241087dc:	4a4b      	ldr	r2, [pc, #300]	@ (2410890c <RCCEx_GetSPICLKFreq+0x32c>)
241087de:	4293      	cmp	r3, r2
241087e0:	f200 81b5 	bhi.w	24108b4e <RCCEx_GetSPICLKFreq+0x56e>
241087e4:	4a4a      	ldr	r2, [pc, #296]	@ (24108910 <RCCEx_GetSPICLKFreq+0x330>)
241087e6:	4293      	cmp	r3, r2
241087e8:	f000 80c0 	beq.w	2410896c <RCCEx_GetSPICLKFreq+0x38c>
241087ec:	4a48      	ldr	r2, [pc, #288]	@ (24108910 <RCCEx_GetSPICLKFreq+0x330>)
241087ee:	4293      	cmp	r3, r2
241087f0:	f200 81ad 	bhi.w	24108b4e <RCCEx_GetSPICLKFreq+0x56e>
241087f4:	4a47      	ldr	r2, [pc, #284]	@ (24108914 <RCCEx_GetSPICLKFreq+0x334>)
241087f6:	4293      	cmp	r3, r2
241087f8:	f000 80b8 	beq.w	2410896c <RCCEx_GetSPICLKFreq+0x38c>
241087fc:	4a45      	ldr	r2, [pc, #276]	@ (24108914 <RCCEx_GetSPICLKFreq+0x334>)
241087fe:	4293      	cmp	r3, r2
24108800:	f200 81a5 	bhi.w	24108b4e <RCCEx_GetSPICLKFreq+0x56e>
24108804:	4a44      	ldr	r2, [pc, #272]	@ (24108918 <RCCEx_GetSPICLKFreq+0x338>)
24108806:	4293      	cmp	r3, r2
24108808:	f000 80b0 	beq.w	2410896c <RCCEx_GetSPICLKFreq+0x38c>
2410880c:	4a42      	ldr	r2, [pc, #264]	@ (24108918 <RCCEx_GetSPICLKFreq+0x338>)
2410880e:	4293      	cmp	r3, r2
24108810:	f200 819d 	bhi.w	24108b4e <RCCEx_GetSPICLKFreq+0x56e>
24108814:	4a41      	ldr	r2, [pc, #260]	@ (2410891c <RCCEx_GetSPICLKFreq+0x33c>)
24108816:	4293      	cmp	r3, r2
24108818:	f000 80a8 	beq.w	2410896c <RCCEx_GetSPICLKFreq+0x38c>
2410881c:	4a3f      	ldr	r2, [pc, #252]	@ (2410891c <RCCEx_GetSPICLKFreq+0x33c>)
2410881e:	4293      	cmp	r3, r2
24108820:	f200 8195 	bhi.w	24108b4e <RCCEx_GetSPICLKFreq+0x56e>
24108824:	4a3e      	ldr	r2, [pc, #248]	@ (24108920 <RCCEx_GetSPICLKFreq+0x340>)
24108826:	4293      	cmp	r3, r2
24108828:	f000 80a0 	beq.w	2410896c <RCCEx_GetSPICLKFreq+0x38c>
2410882c:	4a3c      	ldr	r2, [pc, #240]	@ (24108920 <RCCEx_GetSPICLKFreq+0x340>)
2410882e:	4293      	cmp	r3, r2
24108830:	f200 818d 	bhi.w	24108b4e <RCCEx_GetSPICLKFreq+0x56e>
24108834:	4a3b      	ldr	r2, [pc, #236]	@ (24108924 <RCCEx_GetSPICLKFreq+0x344>)
24108836:	4293      	cmp	r3, r2
24108838:	f000 808c 	beq.w	24108954 <RCCEx_GetSPICLKFreq+0x374>
2410883c:	4a39      	ldr	r2, [pc, #228]	@ (24108924 <RCCEx_GetSPICLKFreq+0x344>)
2410883e:	4293      	cmp	r3, r2
24108840:	f200 8185 	bhi.w	24108b4e <RCCEx_GetSPICLKFreq+0x56e>
24108844:	4a38      	ldr	r2, [pc, #224]	@ (24108928 <RCCEx_GetSPICLKFreq+0x348>)
24108846:	4293      	cmp	r3, r2
24108848:	d078      	beq.n	2410893c <RCCEx_GetSPICLKFreq+0x35c>
2410884a:	4a37      	ldr	r2, [pc, #220]	@ (24108928 <RCCEx_GetSPICLKFreq+0x348>)
2410884c:	4293      	cmp	r3, r2
2410884e:	f200 817e 	bhi.w	24108b4e <RCCEx_GetSPICLKFreq+0x56e>
24108852:	4a36      	ldr	r2, [pc, #216]	@ (2410892c <RCCEx_GetSPICLKFreq+0x34c>)
24108854:	4293      	cmp	r3, r2
24108856:	d071      	beq.n	2410893c <RCCEx_GetSPICLKFreq+0x35c>
24108858:	4a34      	ldr	r2, [pc, #208]	@ (2410892c <RCCEx_GetSPICLKFreq+0x34c>)
2410885a:	4293      	cmp	r3, r2
2410885c:	f200 8177 	bhi.w	24108b4e <RCCEx_GetSPICLKFreq+0x56e>
24108860:	4a33      	ldr	r2, [pc, #204]	@ (24108930 <RCCEx_GetSPICLKFreq+0x350>)
24108862:	4293      	cmp	r3, r2
24108864:	d00a      	beq.n	2410887c <RCCEx_GetSPICLKFreq+0x29c>
24108866:	4a32      	ldr	r2, [pc, #200]	@ (24108930 <RCCEx_GetSPICLKFreq+0x350>)
24108868:	4293      	cmp	r3, r2
2410886a:	f200 8170 	bhi.w	24108b4e <RCCEx_GetSPICLKFreq+0x56e>
2410886e:	4a31      	ldr	r2, [pc, #196]	@ (24108934 <RCCEx_GetSPICLKFreq+0x354>)
24108870:	4293      	cmp	r3, r2
24108872:	d063      	beq.n	2410893c <RCCEx_GetSPICLKFreq+0x35c>
24108874:	4a30      	ldr	r2, [pc, #192]	@ (24108938 <RCCEx_GetSPICLKFreq+0x358>)
24108876:	4293      	cmp	r3, r2
24108878:	f040 8169 	bne.w	24108b4e <RCCEx_GetSPICLKFreq+0x56e>
  {
    case LL_RCC_SPI2_CLKSOURCE_PCLK1:
    case LL_RCC_SPI3_CLKSOURCE_PCLK1:
      spi_frequency = RCCEx_GetPCLK1Freq(RCCEx_GetHCLKFreq(HAL_RCC_GetSysClockFreq()));
2410887c:	f7f8 ff72 	bl	24101764 <HAL_RCC_GetSysClockFreq>
24108880:	4603      	mov	r3, r0
24108882:	4618      	mov	r0, r3
24108884:	f7fd fbd4 	bl	24106030 <RCCEx_GetHCLKFreq>
24108888:	4603      	mov	r3, r0
2410888a:	4618      	mov	r0, r3
2410888c:	f7fd fbe1 	bl	24106052 <RCCEx_GetPCLK1Freq>
24108890:	60f8      	str	r0, [r7, #12]
      break;
24108892:	e169      	b.n	24108b68 <RCCEx_GetSPICLKFreq+0x588>
24108894:	07061820 	.word	0x07061820
24108898:	07061420 	.word	0x07061420
2410889c:	07061020 	.word	0x07061020
241088a0:	07060c20 	.word	0x07060c20
241088a4:	07060820 	.word	0x07060820
241088a8:	07060420 	.word	0x07060420
241088ac:	07051820 	.word	0x07051820
241088b0:	07051420 	.word	0x07051420
241088b4:	07051020 	.word	0x07051020
241088b8:	07050c20 	.word	0x07050c20
241088bc:	07050820 	.word	0x07050820
241088c0:	07050420 	.word	0x07050420
241088c4:	07041820 	.word	0x07041820
241088c8:	07041420 	.word	0x07041420
241088cc:	07041020 	.word	0x07041020
241088d0:	07040c20 	.word	0x07040c20
241088d4:	07040820 	.word	0x07040820
241088d8:	07040420 	.word	0x07040420
241088dc:	07031820 	.word	0x07031820
241088e0:	07031420 	.word	0x07031420
241088e4:	07031020 	.word	0x07031020
241088e8:	07030c20 	.word	0x07030c20
241088ec:	07030820 	.word	0x07030820
241088f0:	07030420 	.word	0x07030420
241088f4:	07021820 	.word	0x07021820
241088f8:	07021420 	.word	0x07021420
241088fc:	07021020 	.word	0x07021020
24108900:	07020c20 	.word	0x07020c20
24108904:	07020820 	.word	0x07020820
24108908:	07020420 	.word	0x07020420
2410890c:	07011820 	.word	0x07011820
24108910:	07011420 	.word	0x07011420
24108914:	07011020 	.word	0x07011020
24108918:	07010c20 	.word	0x07010c20
2410891c:	07010820 	.word	0x07010820
24108920:	07010420 	.word	0x07010420
24108924:	07001820 	.word	0x07001820
24108928:	07001420 	.word	0x07001420
2410892c:	07001020 	.word	0x07001020
24108930:	07000c20 	.word	0x07000c20
24108934:	07000420 	.word	0x07000420
24108938:	07000820 	.word	0x07000820

    case LL_RCC_SPI1_CLKSOURCE_PCLK2:
    case LL_RCC_SPI4_CLKSOURCE_PCLK2:
    case LL_RCC_SPI5_CLKSOURCE_PCLK2:
      spi_frequency = RCCEx_GetPCLK2Freq(RCCEx_GetHCLKFreq(HAL_RCC_GetSysClockFreq()));
2410893c:	f7f8 ff12 	bl	24101764 <HAL_RCC_GetSysClockFreq>
24108940:	4603      	mov	r3, r0
24108942:	4618      	mov	r0, r3
24108944:	f7fd fb74 	bl	24106030 <RCCEx_GetHCLKFreq>
24108948:	4603      	mov	r3, r0
2410894a:	4618      	mov	r0, r3
2410894c:	f7fd fb91 	bl	24106072 <RCCEx_GetPCLK2Freq>
24108950:	60f8      	str	r0, [r7, #12]
      break;
24108952:	e109      	b.n	24108b68 <RCCEx_GetSPICLKFreq+0x588>

    case LL_RCC_SPI6_CLKSOURCE_PCLK4:
      spi_frequency = RCCEx_GetPCLK4Freq(RCCEx_GetHCLKFreq(HAL_RCC_GetSysClockFreq()));
24108954:	f7f8 ff06 	bl	24101764 <HAL_RCC_GetSysClockFreq>
24108958:	4603      	mov	r3, r0
2410895a:	4618      	mov	r0, r3
2410895c:	f7fd fb68 	bl	24106030 <RCCEx_GetHCLKFreq>
24108960:	4603      	mov	r3, r0
24108962:	4618      	mov	r0, r3
24108964:	f7fd fb96 	bl	24106094 <RCCEx_GetPCLK4Freq>
24108968:	60f8      	str	r0, [r7, #12]
      break;
2410896a:	e0fd      	b.n	24108b68 <RCCEx_GetSPICLKFreq+0x588>
    case LL_RCC_SPI2_CLKSOURCE_CLKP:
    case LL_RCC_SPI3_CLKSOURCE_CLKP:
    case LL_RCC_SPI4_CLKSOURCE_CLKP:
    case LL_RCC_SPI5_CLKSOURCE_CLKP:
    case LL_RCC_SPI6_CLKSOURCE_CLKP:
      spi_frequency = RCCEx_GetCLKPCLKFreq(LL_RCC_CLKP_CLKSOURCE);
2410896c:	2007      	movs	r0, #7
2410896e:	f7fd fe4b 	bl	24106608 <RCCEx_GetCLKPCLKFreq>
24108972:	60f8      	str	r0, [r7, #12]
      break;
24108974:	e0f8      	b.n	24108b68 <RCCEx_GetSPICLKFreq+0x588>

    case LL_RCC_SPI1_CLKSOURCE_IC8:
    case LL_RCC_SPI2_CLKSOURCE_IC8:
    case LL_RCC_SPI3_CLKSOURCE_IC8:
    case LL_RCC_SPI6_CLKSOURCE_IC8:
      if (LL_RCC_IC8_IsEnabled() != 0U)
24108976:	f7f9 ffaf 	bl	241028d8 <LL_RCC_IC8_IsEnabled>
2410897a:	4603      	mov	r3, r0
2410897c:	2b00      	cmp	r3, #0
2410897e:	f000 80e8 	beq.w	24108b52 <RCCEx_GetSPICLKFreq+0x572>
      {
        ic_divider = LL_RCC_IC8_GetDivider();
24108982:	f7f9 ffcb 	bl	2410291c <LL_RCC_IC8_GetDivider>
24108986:	60b8      	str	r0, [r7, #8]
        switch (LL_RCC_IC8_GetSource())
24108988:	f7f9 ffba 	bl	24102900 <LL_RCC_IC8_GetSource>
2410898c:	4603      	mov	r3, r0
2410898e:	f1b3 5f40 	cmp.w	r3, #805306368	@ 0x30000000
24108992:	d029      	beq.n	241089e8 <RCCEx_GetSPICLKFreq+0x408>
24108994:	f1b3 5f40 	cmp.w	r3, #805306368	@ 0x30000000
24108998:	d82f      	bhi.n	241089fa <RCCEx_GetSPICLKFreq+0x41a>
2410899a:	f1b3 5f00 	cmp.w	r3, #536870912	@ 0x20000000
2410899e:	d01a      	beq.n	241089d6 <RCCEx_GetSPICLKFreq+0x3f6>
241089a0:	f1b3 5f00 	cmp.w	r3, #536870912	@ 0x20000000
241089a4:	d829      	bhi.n	241089fa <RCCEx_GetSPICLKFreq+0x41a>
241089a6:	2b00      	cmp	r3, #0
241089a8:	d003      	beq.n	241089b2 <RCCEx_GetSPICLKFreq+0x3d2>
241089aa:	f1b3 5f80 	cmp.w	r3, #268435456	@ 0x10000000
241089ae:	d009      	beq.n	241089c4 <RCCEx_GetSPICLKFreq+0x3e4>
            spi_frequency = HAL_RCCEx_GetPLL4CLKFreq();
            spi_frequency = spi_frequency / ic_divider;
            break;
          default:
            /* Unexpected case */
            break;
241089b0:	e023      	b.n	241089fa <RCCEx_GetSPICLKFreq+0x41a>
            spi_frequency = HAL_RCCEx_GetPLL1CLKFreq();
241089b2:	f7fd fa25 	bl	24105e00 <HAL_RCCEx_GetPLL1CLKFreq>
241089b6:	60f8      	str	r0, [r7, #12]
            spi_frequency = spi_frequency / ic_divider;
241089b8:	68fa      	ldr	r2, [r7, #12]
241089ba:	68bb      	ldr	r3, [r7, #8]
241089bc:	fbb2 f3f3 	udiv	r3, r2, r3
241089c0:	60fb      	str	r3, [r7, #12]
            break;
241089c2:	e01b      	b.n	241089fc <RCCEx_GetSPICLKFreq+0x41c>
            spi_frequency = HAL_RCCEx_GetPLL2CLKFreq();
241089c4:	f7fd fa62 	bl	24105e8c <HAL_RCCEx_GetPLL2CLKFreq>
241089c8:	60f8      	str	r0, [r7, #12]
            spi_frequency = spi_frequency / ic_divider;
241089ca:	68fa      	ldr	r2, [r7, #12]
241089cc:	68bb      	ldr	r3, [r7, #8]
241089ce:	fbb2 f3f3 	udiv	r3, r2, r3
241089d2:	60fb      	str	r3, [r7, #12]
            break;
241089d4:	e012      	b.n	241089fc <RCCEx_GetSPICLKFreq+0x41c>
            spi_frequency = HAL_RCCEx_GetPLL3CLKFreq();
241089d6:	f7fd fa9f 	bl	24105f18 <HAL_RCCEx_GetPLL3CLKFreq>
241089da:	60f8      	str	r0, [r7, #12]
            spi_frequency = spi_frequency / ic_divider;
241089dc:	68fa      	ldr	r2, [r7, #12]
241089de:	68bb      	ldr	r3, [r7, #8]
241089e0:	fbb2 f3f3 	udiv	r3, r2, r3
241089e4:	60fb      	str	r3, [r7, #12]
            break;
241089e6:	e009      	b.n	241089fc <RCCEx_GetSPICLKFreq+0x41c>
            spi_frequency = HAL_RCCEx_GetPLL4CLKFreq();
241089e8:	f7fd fadc 	bl	24105fa4 <HAL_RCCEx_GetPLL4CLKFreq>
241089ec:	60f8      	str	r0, [r7, #12]
            spi_frequency = spi_frequency / ic_divider;
241089ee:	68fa      	ldr	r2, [r7, #12]
241089f0:	68bb      	ldr	r3, [r7, #8]
241089f2:	fbb2 f3f3 	udiv	r3, r2, r3
241089f6:	60fb      	str	r3, [r7, #12]
            break;
241089f8:	e000      	b.n	241089fc <RCCEx_GetSPICLKFreq+0x41c>
            break;
241089fa:	bf00      	nop
        }
      }
      break;
241089fc:	e0a9      	b.n	24108b52 <RCCEx_GetSPICLKFreq+0x572>
    case LL_RCC_SPI2_CLKSOURCE_IC9:
    case LL_RCC_SPI3_CLKSOURCE_IC9:
    case LL_RCC_SPI4_CLKSOURCE_IC9:
    case LL_RCC_SPI5_CLKSOURCE_IC9:
    case LL_RCC_SPI6_CLKSOURCE_IC9:
      if (LL_RCC_IC9_IsEnabled() != 0U)
241089fe:	f7f9 ffab 	bl	24102958 <LL_RCC_IC9_IsEnabled>
24108a02:	4603      	mov	r3, r0
24108a04:	2b00      	cmp	r3, #0
24108a06:	f000 80a6 	beq.w	24108b56 <RCCEx_GetSPICLKFreq+0x576>
      {
        ic_divider = LL_RCC_IC9_GetDivider();
24108a0a:	f7f9 ffc7 	bl	2410299c <LL_RCC_IC9_GetDivider>
24108a0e:	60b8      	str	r0, [r7, #8]
        switch (LL_RCC_IC9_GetSource())
24108a10:	f7f9 ffb6 	bl	24102980 <LL_RCC_IC9_GetSource>
24108a14:	4603      	mov	r3, r0
24108a16:	f1b3 5f40 	cmp.w	r3, #805306368	@ 0x30000000
24108a1a:	d029      	beq.n	24108a70 <RCCEx_GetSPICLKFreq+0x490>
24108a1c:	f1b3 5f40 	cmp.w	r3, #805306368	@ 0x30000000
24108a20:	d82f      	bhi.n	24108a82 <RCCEx_GetSPICLKFreq+0x4a2>
24108a22:	f1b3 5f00 	cmp.w	r3, #536870912	@ 0x20000000
24108a26:	d01a      	beq.n	24108a5e <RCCEx_GetSPICLKFreq+0x47e>
24108a28:	f1b3 5f00 	cmp.w	r3, #536870912	@ 0x20000000
24108a2c:	d829      	bhi.n	24108a82 <RCCEx_GetSPICLKFreq+0x4a2>
24108a2e:	2b00      	cmp	r3, #0
24108a30:	d003      	beq.n	24108a3a <RCCEx_GetSPICLKFreq+0x45a>
24108a32:	f1b3 5f80 	cmp.w	r3, #268435456	@ 0x10000000
24108a36:	d009      	beq.n	24108a4c <RCCEx_GetSPICLKFreq+0x46c>
            spi_frequency = HAL_RCCEx_GetPLL4CLKFreq();
            spi_frequency = spi_frequency / ic_divider;
            break;
          default:
            /* Unexpected case */
            break;
24108a38:	e023      	b.n	24108a82 <RCCEx_GetSPICLKFreq+0x4a2>
            spi_frequency = HAL_RCCEx_GetPLL1CLKFreq();
24108a3a:	f7fd f9e1 	bl	24105e00 <HAL_RCCEx_GetPLL1CLKFreq>
24108a3e:	60f8      	str	r0, [r7, #12]
            spi_frequency = spi_frequency / ic_divider;
24108a40:	68fa      	ldr	r2, [r7, #12]
24108a42:	68bb      	ldr	r3, [r7, #8]
24108a44:	fbb2 f3f3 	udiv	r3, r2, r3
24108a48:	60fb      	str	r3, [r7, #12]
            break;
24108a4a:	e01b      	b.n	24108a84 <RCCEx_GetSPICLKFreq+0x4a4>
            spi_frequency = HAL_RCCEx_GetPLL2CLKFreq();
24108a4c:	f7fd fa1e 	bl	24105e8c <HAL_RCCEx_GetPLL2CLKFreq>
24108a50:	60f8      	str	r0, [r7, #12]
            spi_frequency = spi_frequency / ic_divider;
24108a52:	68fa      	ldr	r2, [r7, #12]
24108a54:	68bb      	ldr	r3, [r7, #8]
24108a56:	fbb2 f3f3 	udiv	r3, r2, r3
24108a5a:	60fb      	str	r3, [r7, #12]
            break;
24108a5c:	e012      	b.n	24108a84 <RCCEx_GetSPICLKFreq+0x4a4>
            spi_frequency = HAL_RCCEx_GetPLL3CLKFreq();
24108a5e:	f7fd fa5b 	bl	24105f18 <HAL_RCCEx_GetPLL3CLKFreq>
24108a62:	60f8      	str	r0, [r7, #12]
            spi_frequency = spi_frequency / ic_divider;
24108a64:	68fa      	ldr	r2, [r7, #12]
24108a66:	68bb      	ldr	r3, [r7, #8]
24108a68:	fbb2 f3f3 	udiv	r3, r2, r3
24108a6c:	60fb      	str	r3, [r7, #12]
            break;
24108a6e:	e009      	b.n	24108a84 <RCCEx_GetSPICLKFreq+0x4a4>
            spi_frequency = HAL_RCCEx_GetPLL4CLKFreq();
24108a70:	f7fd fa98 	bl	24105fa4 <HAL_RCCEx_GetPLL4CLKFreq>
24108a74:	60f8      	str	r0, [r7, #12]
            spi_frequency = spi_frequency / ic_divider;
24108a76:	68fa      	ldr	r2, [r7, #12]
24108a78:	68bb      	ldr	r3, [r7, #8]
24108a7a:	fbb2 f3f3 	udiv	r3, r2, r3
24108a7e:	60fb      	str	r3, [r7, #12]
            break;
24108a80:	e000      	b.n	24108a84 <RCCEx_GetSPICLKFreq+0x4a4>
            break;
24108a82:	bf00      	nop
        }
      }
      break;
24108a84:	e067      	b.n	24108b56 <RCCEx_GetSPICLKFreq+0x576>

    case LL_RCC_SPI4_CLKSOURCE_IC14:
    case LL_RCC_SPI5_CLKSOURCE_IC14:
      if (LL_RCC_IC14_IsEnabled() != 0U)
24108a86:	f7fa f867 	bl	24102b58 <LL_RCC_IC14_IsEnabled>
24108a8a:	4603      	mov	r3, r0
24108a8c:	2b00      	cmp	r3, #0
24108a8e:	d064      	beq.n	24108b5a <RCCEx_GetSPICLKFreq+0x57a>
      {
        ic_divider = LL_RCC_IC14_GetDivider();
24108a90:	f7fa f884 	bl	24102b9c <LL_RCC_IC14_GetDivider>
24108a94:	60b8      	str	r0, [r7, #8]
        switch (LL_RCC_IC14_GetSource())
24108a96:	f7fa f873 	bl	24102b80 <LL_RCC_IC14_GetSource>
24108a9a:	4603      	mov	r3, r0
24108a9c:	f1b3 5f40 	cmp.w	r3, #805306368	@ 0x30000000
24108aa0:	d029      	beq.n	24108af6 <RCCEx_GetSPICLKFreq+0x516>
24108aa2:	f1b3 5f40 	cmp.w	r3, #805306368	@ 0x30000000
24108aa6:	d82f      	bhi.n	24108b08 <RCCEx_GetSPICLKFreq+0x528>
24108aa8:	f1b3 5f00 	cmp.w	r3, #536870912	@ 0x20000000
24108aac:	d01a      	beq.n	24108ae4 <RCCEx_GetSPICLKFreq+0x504>
24108aae:	f1b3 5f00 	cmp.w	r3, #536870912	@ 0x20000000
24108ab2:	d829      	bhi.n	24108b08 <RCCEx_GetSPICLKFreq+0x528>
24108ab4:	2b00      	cmp	r3, #0
24108ab6:	d003      	beq.n	24108ac0 <RCCEx_GetSPICLKFreq+0x4e0>
24108ab8:	f1b3 5f80 	cmp.w	r3, #268435456	@ 0x10000000
24108abc:	d009      	beq.n	24108ad2 <RCCEx_GetSPICLKFreq+0x4f2>
            spi_frequency = HAL_RCCEx_GetPLL4CLKFreq();
            spi_frequency = spi_frequency / ic_divider;
            break;
          default:
            /* Unexpected case */
            break;
24108abe:	e023      	b.n	24108b08 <RCCEx_GetSPICLKFreq+0x528>
            spi_frequency = HAL_RCCEx_GetPLL1CLKFreq();
24108ac0:	f7fd f99e 	bl	24105e00 <HAL_RCCEx_GetPLL1CLKFreq>
24108ac4:	60f8      	str	r0, [r7, #12]
            spi_frequency = spi_frequency / ic_divider;
24108ac6:	68fa      	ldr	r2, [r7, #12]
24108ac8:	68bb      	ldr	r3, [r7, #8]
24108aca:	fbb2 f3f3 	udiv	r3, r2, r3
24108ace:	60fb      	str	r3, [r7, #12]
            break;
24108ad0:	e01b      	b.n	24108b0a <RCCEx_GetSPICLKFreq+0x52a>
            spi_frequency = HAL_RCCEx_GetPLL2CLKFreq();
24108ad2:	f7fd f9db 	bl	24105e8c <HAL_RCCEx_GetPLL2CLKFreq>
24108ad6:	60f8      	str	r0, [r7, #12]
            spi_frequency = spi_frequency / ic_divider;
24108ad8:	68fa      	ldr	r2, [r7, #12]
24108ada:	68bb      	ldr	r3, [r7, #8]
24108adc:	fbb2 f3f3 	udiv	r3, r2, r3
24108ae0:	60fb      	str	r3, [r7, #12]
            break;
24108ae2:	e012      	b.n	24108b0a <RCCEx_GetSPICLKFreq+0x52a>
            spi_frequency = HAL_RCCEx_GetPLL3CLKFreq();
24108ae4:	f7fd fa18 	bl	24105f18 <HAL_RCCEx_GetPLL3CLKFreq>
24108ae8:	60f8      	str	r0, [r7, #12]
            spi_frequency = spi_frequency / ic_divider;
24108aea:	68fa      	ldr	r2, [r7, #12]
24108aec:	68bb      	ldr	r3, [r7, #8]
24108aee:	fbb2 f3f3 	udiv	r3, r2, r3
24108af2:	60fb      	str	r3, [r7, #12]
            break;
24108af4:	e009      	b.n	24108b0a <RCCEx_GetSPICLKFreq+0x52a>
            spi_frequency = HAL_RCCEx_GetPLL4CLKFreq();
24108af6:	f7fd fa55 	bl	24105fa4 <HAL_RCCEx_GetPLL4CLKFreq>
24108afa:	60f8      	str	r0, [r7, #12]
            spi_frequency = spi_frequency / ic_divider;
24108afc:	68fa      	ldr	r2, [r7, #12]
24108afe:	68bb      	ldr	r3, [r7, #8]
24108b00:	fbb2 f3f3 	udiv	r3, r2, r3
24108b04:	60fb      	str	r3, [r7, #12]
            break;
24108b06:	e000      	b.n	24108b0a <RCCEx_GetSPICLKFreq+0x52a>
            break;
24108b08:	bf00      	nop
        }
      }
      break;
24108b0a:	e026      	b.n	24108b5a <RCCEx_GetSPICLKFreq+0x57a>
    case LL_RCC_SPI2_CLKSOURCE_HSI:
    case LL_RCC_SPI3_CLKSOURCE_HSI:
    case LL_RCC_SPI4_CLKSOURCE_HSI:
    case LL_RCC_SPI5_CLKSOURCE_HSI:
    case LL_RCC_SPI6_CLKSOURCE_HSI:
      if (LL_RCC_HSI_IsReady() != 0U)
24108b0c:	f7f8 ff00 	bl	24101910 <LL_RCC_HSI_IsReady>
24108b10:	4603      	mov	r3, r0
24108b12:	2b00      	cmp	r3, #0
24108b14:	d023      	beq.n	24108b5e <RCCEx_GetSPICLKFreq+0x57e>
      {
        spi_frequency = HSI_VALUE >> (LL_RCC_HSI_GetDivider() >> RCC_HSICFGR_HSIDIV_Pos);
24108b16:	f7f8 ff0d 	bl	24101934 <LL_RCC_HSI_GetDivider>
24108b1a:	4603      	mov	r3, r0
24108b1c:	09db      	lsrs	r3, r3, #7
24108b1e:	4a15      	ldr	r2, [pc, #84]	@ (24108b74 <RCCEx_GetSPICLKFreq+0x594>)
24108b20:	fa22 f303 	lsr.w	r3, r2, r3
24108b24:	60fb      	str	r3, [r7, #12]
      }
      break;
24108b26:	e01a      	b.n	24108b5e <RCCEx_GetSPICLKFreq+0x57e>
    case LL_RCC_SPI2_CLKSOURCE_MSI:
    case LL_RCC_SPI3_CLKSOURCE_MSI:
    case LL_RCC_SPI4_CLKSOURCE_MSI:
    case LL_RCC_SPI5_CLKSOURCE_MSI:
    case LL_RCC_SPI6_CLKSOURCE_MSI:
      if (LL_RCC_MSI_IsReady() != 0U)
24108b28:	f7f8 ff12 	bl	24101950 <LL_RCC_MSI_IsReady>
24108b2c:	4603      	mov	r3, r0
24108b2e:	2b00      	cmp	r3, #0
24108b30:	d017      	beq.n	24108b62 <RCCEx_GetSPICLKFreq+0x582>
      {
        spi_frequency = MSI_VALUE;
24108b32:	4b11      	ldr	r3, [pc, #68]	@ (24108b78 <RCCEx_GetSPICLKFreq+0x598>)
24108b34:	60fb      	str	r3, [r7, #12]
      }
      break;
24108b36:	e014      	b.n	24108b62 <RCCEx_GetSPICLKFreq+0x582>

    case LL_RCC_SPI1_CLKSOURCE_I2S_CKIN:
    case LL_RCC_SPI2_CLKSOURCE_I2S_CKIN:
    case LL_RCC_SPI3_CLKSOURCE_I2S_CKIN:
    case LL_RCC_SPI6_CLKSOURCE_I2S_CKIN:
      spi_frequency = EXTERNAL_CLOCK_VALUE;
24108b38:	4b10      	ldr	r3, [pc, #64]	@ (24108b7c <RCCEx_GetSPICLKFreq+0x59c>)
24108b3a:	60fb      	str	r3, [r7, #12]
      break;
24108b3c:	e014      	b.n	24108b68 <RCCEx_GetSPICLKFreq+0x588>

    case LL_RCC_SPI4_CLKSOURCE_HSE:
    case LL_RCC_SPI5_CLKSOURCE_HSE:
      if (LL_RCC_HSE_IsReady() != 0U)
24108b3e:	f7f8 fed5 	bl	241018ec <LL_RCC_HSE_IsReady>
24108b42:	4603      	mov	r3, r0
24108b44:	2b00      	cmp	r3, #0
24108b46:	d00e      	beq.n	24108b66 <RCCEx_GetSPICLKFreq+0x586>
      {
        spi_frequency = HSE_VALUE;
24108b48:	4b0d      	ldr	r3, [pc, #52]	@ (24108b80 <RCCEx_GetSPICLKFreq+0x5a0>)
24108b4a:	60fb      	str	r3, [r7, #12]
      }
      break;
24108b4c:	e00b      	b.n	24108b66 <RCCEx_GetSPICLKFreq+0x586>

    default:
      /* Unexpected case */
      break;
24108b4e:	bf00      	nop
24108b50:	e00a      	b.n	24108b68 <RCCEx_GetSPICLKFreq+0x588>
      break;
24108b52:	bf00      	nop
24108b54:	e008      	b.n	24108b68 <RCCEx_GetSPICLKFreq+0x588>
      break;
24108b56:	bf00      	nop
24108b58:	e006      	b.n	24108b68 <RCCEx_GetSPICLKFreq+0x588>
      break;
24108b5a:	bf00      	nop
24108b5c:	e004      	b.n	24108b68 <RCCEx_GetSPICLKFreq+0x588>
      break;
24108b5e:	bf00      	nop
24108b60:	e002      	b.n	24108b68 <RCCEx_GetSPICLKFreq+0x588>
      break;
24108b62:	bf00      	nop
24108b64:	e000      	b.n	24108b68 <RCCEx_GetSPICLKFreq+0x588>
      break;
24108b66:	bf00      	nop
  }

  return spi_frequency;
24108b68:	68fb      	ldr	r3, [r7, #12]
}
24108b6a:	4618      	mov	r0, r3
24108b6c:	3710      	adds	r7, #16
24108b6e:	46bd      	mov	sp, r7
24108b70:	bd80      	pop	{r7, pc}
24108b72:	bf00      	nop
24108b74:	03d09000 	.word	0x03d09000
24108b78:	003d0900 	.word	0x003d0900
24108b7c:	00bb8000 	.word	0x00bb8000
24108b80:	016e3600 	.word	0x016e3600

24108b84 <RCCEx_GetUARTCLKFreq>:
  *         @arg @ref RCCEx_UART9_Clock_Source
  * @retval USART clock frequency (in Hz)
  *         - @ref  RCC_PERIPH_FREQUENCY_NO indicates that oscillator is not ready
  */
static uint32_t RCCEx_GetUARTCLKFreq(uint32_t UARTxSource)
{
24108b84:	b580      	push	{r7, lr}
24108b86:	b084      	sub	sp, #16
24108b88:	af00      	add	r7, sp, #0
24108b8a:	6078      	str	r0, [r7, #4]
  uint32_t uart_frequency = RCC_PERIPH_FREQUENCY_NO;
24108b8c:	2300      	movs	r3, #0
24108b8e:	60fb      	str	r3, [r7, #12]
  uint32_t ic_divider;

  switch (LL_RCC_GetUARTClockSource(UARTxSource))
24108b90:	6878      	ldr	r0, [r7, #4]
24108b92:	f7f9 fab1 	bl	241020f8 <LL_RCC_GetUARTClockSource>
24108b96:	4603      	mov	r3, r0
24108b98:	4aa2      	ldr	r2, [pc, #648]	@ (24108e24 <RCCEx_GetUARTCLKFreq+0x2a0>)
24108b9a:	4293      	cmp	r3, r2
24108b9c:	f000 81e8 	beq.w	24108f70 <RCCEx_GetUARTCLKFreq+0x3ec>
24108ba0:	4aa0      	ldr	r2, [pc, #640]	@ (24108e24 <RCCEx_GetUARTCLKFreq+0x2a0>)
24108ba2:	4293      	cmp	r3, r2
24108ba4:	f200 8203 	bhi.w	24108fae <RCCEx_GetUARTCLKFreq+0x42a>
24108ba8:	4a9f      	ldr	r2, [pc, #636]	@ (24108e28 <RCCEx_GetUARTCLKFreq+0x2a4>)
24108baa:	4293      	cmp	r3, r2
24108bac:	f000 81e0 	beq.w	24108f70 <RCCEx_GetUARTCLKFreq+0x3ec>
24108bb0:	4a9d      	ldr	r2, [pc, #628]	@ (24108e28 <RCCEx_GetUARTCLKFreq+0x2a4>)
24108bb2:	4293      	cmp	r3, r2
24108bb4:	f200 81fb 	bhi.w	24108fae <RCCEx_GetUARTCLKFreq+0x42a>
24108bb8:	4a9c      	ldr	r2, [pc, #624]	@ (24108e2c <RCCEx_GetUARTCLKFreq+0x2a8>)
24108bba:	4293      	cmp	r3, r2
24108bbc:	f000 81d8 	beq.w	24108f70 <RCCEx_GetUARTCLKFreq+0x3ec>
24108bc0:	4a9a      	ldr	r2, [pc, #616]	@ (24108e2c <RCCEx_GetUARTCLKFreq+0x2a8>)
24108bc2:	4293      	cmp	r3, r2
24108bc4:	f200 81f3 	bhi.w	24108fae <RCCEx_GetUARTCLKFreq+0x42a>
24108bc8:	4a99      	ldr	r2, [pc, #612]	@ (24108e30 <RCCEx_GetUARTCLKFreq+0x2ac>)
24108bca:	4293      	cmp	r3, r2
24108bcc:	f000 81d0 	beq.w	24108f70 <RCCEx_GetUARTCLKFreq+0x3ec>
24108bd0:	4a97      	ldr	r2, [pc, #604]	@ (24108e30 <RCCEx_GetUARTCLKFreq+0x2ac>)
24108bd2:	4293      	cmp	r3, r2
24108bd4:	f200 81eb 	bhi.w	24108fae <RCCEx_GetUARTCLKFreq+0x42a>
24108bd8:	4a96      	ldr	r2, [pc, #600]	@ (24108e34 <RCCEx_GetUARTCLKFreq+0x2b0>)
24108bda:	4293      	cmp	r3, r2
24108bdc:	f000 81c8 	beq.w	24108f70 <RCCEx_GetUARTCLKFreq+0x3ec>
24108be0:	4a94      	ldr	r2, [pc, #592]	@ (24108e34 <RCCEx_GetUARTCLKFreq+0x2b0>)
24108be2:	4293      	cmp	r3, r2
24108be4:	f200 81e3 	bhi.w	24108fae <RCCEx_GetUARTCLKFreq+0x42a>
24108be8:	4a93      	ldr	r2, [pc, #588]	@ (24108e38 <RCCEx_GetUARTCLKFreq+0x2b4>)
24108bea:	4293      	cmp	r3, r2
24108bec:	f000 81ce 	beq.w	24108f8c <RCCEx_GetUARTCLKFreq+0x408>
24108bf0:	4a91      	ldr	r2, [pc, #580]	@ (24108e38 <RCCEx_GetUARTCLKFreq+0x2b4>)
24108bf2:	4293      	cmp	r3, r2
24108bf4:	f200 81db 	bhi.w	24108fae <RCCEx_GetUARTCLKFreq+0x42a>
24108bf8:	4a90      	ldr	r2, [pc, #576]	@ (24108e3c <RCCEx_GetUARTCLKFreq+0x2b8>)
24108bfa:	4293      	cmp	r3, r2
24108bfc:	f000 81c6 	beq.w	24108f8c <RCCEx_GetUARTCLKFreq+0x408>
24108c00:	4a8e      	ldr	r2, [pc, #568]	@ (24108e3c <RCCEx_GetUARTCLKFreq+0x2b8>)
24108c02:	4293      	cmp	r3, r2
24108c04:	f200 81d3 	bhi.w	24108fae <RCCEx_GetUARTCLKFreq+0x42a>
24108c08:	4a8d      	ldr	r2, [pc, #564]	@ (24108e40 <RCCEx_GetUARTCLKFreq+0x2bc>)
24108c0a:	4293      	cmp	r3, r2
24108c0c:	f000 81be 	beq.w	24108f8c <RCCEx_GetUARTCLKFreq+0x408>
24108c10:	4a8b      	ldr	r2, [pc, #556]	@ (24108e40 <RCCEx_GetUARTCLKFreq+0x2bc>)
24108c12:	4293      	cmp	r3, r2
24108c14:	f200 81cb 	bhi.w	24108fae <RCCEx_GetUARTCLKFreq+0x42a>
24108c18:	4a8a      	ldr	r2, [pc, #552]	@ (24108e44 <RCCEx_GetUARTCLKFreq+0x2c0>)
24108c1a:	4293      	cmp	r3, r2
24108c1c:	f000 81b6 	beq.w	24108f8c <RCCEx_GetUARTCLKFreq+0x408>
24108c20:	4a88      	ldr	r2, [pc, #544]	@ (24108e44 <RCCEx_GetUARTCLKFreq+0x2c0>)
24108c22:	4293      	cmp	r3, r2
24108c24:	f200 81c3 	bhi.w	24108fae <RCCEx_GetUARTCLKFreq+0x42a>
24108c28:	4a87      	ldr	r2, [pc, #540]	@ (24108e48 <RCCEx_GetUARTCLKFreq+0x2c4>)
24108c2a:	4293      	cmp	r3, r2
24108c2c:	f000 81ae 	beq.w	24108f8c <RCCEx_GetUARTCLKFreq+0x408>
24108c30:	4a85      	ldr	r2, [pc, #532]	@ (24108e48 <RCCEx_GetUARTCLKFreq+0x2c4>)
24108c32:	4293      	cmp	r3, r2
24108c34:	f200 81bb 	bhi.w	24108fae <RCCEx_GetUARTCLKFreq+0x42a>
24108c38:	4a84      	ldr	r2, [pc, #528]	@ (24108e4c <RCCEx_GetUARTCLKFreq+0x2c8>)
24108c3a:	4293      	cmp	r3, r2
24108c3c:	f000 81ae 	beq.w	24108f9c <RCCEx_GetUARTCLKFreq+0x418>
24108c40:	4a82      	ldr	r2, [pc, #520]	@ (24108e4c <RCCEx_GetUARTCLKFreq+0x2c8>)
24108c42:	4293      	cmp	r3, r2
24108c44:	f200 81b3 	bhi.w	24108fae <RCCEx_GetUARTCLKFreq+0x42a>
24108c48:	4a81      	ldr	r2, [pc, #516]	@ (24108e50 <RCCEx_GetUARTCLKFreq+0x2cc>)
24108c4a:	4293      	cmp	r3, r2
24108c4c:	f000 81a6 	beq.w	24108f9c <RCCEx_GetUARTCLKFreq+0x418>
24108c50:	4a7f      	ldr	r2, [pc, #508]	@ (24108e50 <RCCEx_GetUARTCLKFreq+0x2cc>)
24108c52:	4293      	cmp	r3, r2
24108c54:	f200 81ab 	bhi.w	24108fae <RCCEx_GetUARTCLKFreq+0x42a>
24108c58:	4a7e      	ldr	r2, [pc, #504]	@ (24108e54 <RCCEx_GetUARTCLKFreq+0x2d0>)
24108c5a:	4293      	cmp	r3, r2
24108c5c:	f000 819e 	beq.w	24108f9c <RCCEx_GetUARTCLKFreq+0x418>
24108c60:	4a7c      	ldr	r2, [pc, #496]	@ (24108e54 <RCCEx_GetUARTCLKFreq+0x2d0>)
24108c62:	4293      	cmp	r3, r2
24108c64:	f200 81a3 	bhi.w	24108fae <RCCEx_GetUARTCLKFreq+0x42a>
24108c68:	4a7b      	ldr	r2, [pc, #492]	@ (24108e58 <RCCEx_GetUARTCLKFreq+0x2d4>)
24108c6a:	4293      	cmp	r3, r2
24108c6c:	f000 8196 	beq.w	24108f9c <RCCEx_GetUARTCLKFreq+0x418>
24108c70:	4a79      	ldr	r2, [pc, #484]	@ (24108e58 <RCCEx_GetUARTCLKFreq+0x2d4>)
24108c72:	4293      	cmp	r3, r2
24108c74:	f200 819b 	bhi.w	24108fae <RCCEx_GetUARTCLKFreq+0x42a>
24108c78:	4a78      	ldr	r2, [pc, #480]	@ (24108e5c <RCCEx_GetUARTCLKFreq+0x2d8>)
24108c7a:	4293      	cmp	r3, r2
24108c7c:	f000 818e 	beq.w	24108f9c <RCCEx_GetUARTCLKFreq+0x418>
24108c80:	4a76      	ldr	r2, [pc, #472]	@ (24108e5c <RCCEx_GetUARTCLKFreq+0x2d8>)
24108c82:	4293      	cmp	r3, r2
24108c84:	f200 8193 	bhi.w	24108fae <RCCEx_GetUARTCLKFreq+0x42a>
24108c88:	4a75      	ldr	r2, [pc, #468]	@ (24108e60 <RCCEx_GetUARTCLKFreq+0x2dc>)
24108c8a:	4293      	cmp	r3, r2
24108c8c:	f000 812d 	beq.w	24108eea <RCCEx_GetUARTCLKFreq+0x366>
24108c90:	4a73      	ldr	r2, [pc, #460]	@ (24108e60 <RCCEx_GetUARTCLKFreq+0x2dc>)
24108c92:	4293      	cmp	r3, r2
24108c94:	f200 818b 	bhi.w	24108fae <RCCEx_GetUARTCLKFreq+0x42a>
24108c98:	4a72      	ldr	r2, [pc, #456]	@ (24108e64 <RCCEx_GetUARTCLKFreq+0x2e0>)
24108c9a:	4293      	cmp	r3, r2
24108c9c:	f000 8125 	beq.w	24108eea <RCCEx_GetUARTCLKFreq+0x366>
24108ca0:	4a70      	ldr	r2, [pc, #448]	@ (24108e64 <RCCEx_GetUARTCLKFreq+0x2e0>)
24108ca2:	4293      	cmp	r3, r2
24108ca4:	f200 8183 	bhi.w	24108fae <RCCEx_GetUARTCLKFreq+0x42a>
24108ca8:	4a6f      	ldr	r2, [pc, #444]	@ (24108e68 <RCCEx_GetUARTCLKFreq+0x2e4>)
24108caa:	4293      	cmp	r3, r2
24108cac:	f000 811d 	beq.w	24108eea <RCCEx_GetUARTCLKFreq+0x366>
24108cb0:	4a6d      	ldr	r2, [pc, #436]	@ (24108e68 <RCCEx_GetUARTCLKFreq+0x2e4>)
24108cb2:	4293      	cmp	r3, r2
24108cb4:	f200 817b 	bhi.w	24108fae <RCCEx_GetUARTCLKFreq+0x42a>
24108cb8:	4a6c      	ldr	r2, [pc, #432]	@ (24108e6c <RCCEx_GetUARTCLKFreq+0x2e8>)
24108cba:	4293      	cmp	r3, r2
24108cbc:	f000 8115 	beq.w	24108eea <RCCEx_GetUARTCLKFreq+0x366>
24108cc0:	4a6a      	ldr	r2, [pc, #424]	@ (24108e6c <RCCEx_GetUARTCLKFreq+0x2e8>)
24108cc2:	4293      	cmp	r3, r2
24108cc4:	f200 8173 	bhi.w	24108fae <RCCEx_GetUARTCLKFreq+0x42a>
24108cc8:	4a69      	ldr	r2, [pc, #420]	@ (24108e70 <RCCEx_GetUARTCLKFreq+0x2ec>)
24108cca:	4293      	cmp	r3, r2
24108ccc:	f000 810d 	beq.w	24108eea <RCCEx_GetUARTCLKFreq+0x366>
24108cd0:	4a67      	ldr	r2, [pc, #412]	@ (24108e70 <RCCEx_GetUARTCLKFreq+0x2ec>)
24108cd2:	4293      	cmp	r3, r2
24108cd4:	f200 816b 	bhi.w	24108fae <RCCEx_GetUARTCLKFreq+0x42a>
24108cd8:	4a66      	ldr	r2, [pc, #408]	@ (24108e74 <RCCEx_GetUARTCLKFreq+0x2f0>)
24108cda:	4293      	cmp	r3, r2
24108cdc:	d07b      	beq.n	24108dd6 <RCCEx_GetUARTCLKFreq+0x252>
24108cde:	4a65      	ldr	r2, [pc, #404]	@ (24108e74 <RCCEx_GetUARTCLKFreq+0x2f0>)
24108ce0:	4293      	cmp	r3, r2
24108ce2:	f200 8164 	bhi.w	24108fae <RCCEx_GetUARTCLKFreq+0x42a>
24108ce6:	4a64      	ldr	r2, [pc, #400]	@ (24108e78 <RCCEx_GetUARTCLKFreq+0x2f4>)
24108ce8:	4293      	cmp	r3, r2
24108cea:	d074      	beq.n	24108dd6 <RCCEx_GetUARTCLKFreq+0x252>
24108cec:	4a62      	ldr	r2, [pc, #392]	@ (24108e78 <RCCEx_GetUARTCLKFreq+0x2f4>)
24108cee:	4293      	cmp	r3, r2
24108cf0:	f200 815d 	bhi.w	24108fae <RCCEx_GetUARTCLKFreq+0x42a>
24108cf4:	4a61      	ldr	r2, [pc, #388]	@ (24108e7c <RCCEx_GetUARTCLKFreq+0x2f8>)
24108cf6:	4293      	cmp	r3, r2
24108cf8:	d06d      	beq.n	24108dd6 <RCCEx_GetUARTCLKFreq+0x252>
24108cfa:	4a60      	ldr	r2, [pc, #384]	@ (24108e7c <RCCEx_GetUARTCLKFreq+0x2f8>)
24108cfc:	4293      	cmp	r3, r2
24108cfe:	f200 8156 	bhi.w	24108fae <RCCEx_GetUARTCLKFreq+0x42a>
24108d02:	4a5f      	ldr	r2, [pc, #380]	@ (24108e80 <RCCEx_GetUARTCLKFreq+0x2fc>)
24108d04:	4293      	cmp	r3, r2
24108d06:	d066      	beq.n	24108dd6 <RCCEx_GetUARTCLKFreq+0x252>
24108d08:	4a5d      	ldr	r2, [pc, #372]	@ (24108e80 <RCCEx_GetUARTCLKFreq+0x2fc>)
24108d0a:	4293      	cmp	r3, r2
24108d0c:	f200 814f 	bhi.w	24108fae <RCCEx_GetUARTCLKFreq+0x42a>
24108d10:	4a5c      	ldr	r2, [pc, #368]	@ (24108e84 <RCCEx_GetUARTCLKFreq+0x300>)
24108d12:	4293      	cmp	r3, r2
24108d14:	d05f      	beq.n	24108dd6 <RCCEx_GetUARTCLKFreq+0x252>
24108d16:	4a5b      	ldr	r2, [pc, #364]	@ (24108e84 <RCCEx_GetUARTCLKFreq+0x300>)
24108d18:	4293      	cmp	r3, r2
24108d1a:	f200 8148 	bhi.w	24108fae <RCCEx_GetUARTCLKFreq+0x42a>
24108d1e:	4a5a      	ldr	r2, [pc, #360]	@ (24108e88 <RCCEx_GetUARTCLKFreq+0x304>)
24108d20:	4293      	cmp	r3, r2
24108d22:	d053      	beq.n	24108dcc <RCCEx_GetUARTCLKFreq+0x248>
24108d24:	4a58      	ldr	r2, [pc, #352]	@ (24108e88 <RCCEx_GetUARTCLKFreq+0x304>)
24108d26:	4293      	cmp	r3, r2
24108d28:	f200 8141 	bhi.w	24108fae <RCCEx_GetUARTCLKFreq+0x42a>
24108d2c:	4a57      	ldr	r2, [pc, #348]	@ (24108e8c <RCCEx_GetUARTCLKFreq+0x308>)
24108d2e:	4293      	cmp	r3, r2
24108d30:	d04c      	beq.n	24108dcc <RCCEx_GetUARTCLKFreq+0x248>
24108d32:	4a56      	ldr	r2, [pc, #344]	@ (24108e8c <RCCEx_GetUARTCLKFreq+0x308>)
24108d34:	4293      	cmp	r3, r2
24108d36:	f200 813a 	bhi.w	24108fae <RCCEx_GetUARTCLKFreq+0x42a>
24108d3a:	4a55      	ldr	r2, [pc, #340]	@ (24108e90 <RCCEx_GetUARTCLKFreq+0x30c>)
24108d3c:	4293      	cmp	r3, r2
24108d3e:	d045      	beq.n	24108dcc <RCCEx_GetUARTCLKFreq+0x248>
24108d40:	4a53      	ldr	r2, [pc, #332]	@ (24108e90 <RCCEx_GetUARTCLKFreq+0x30c>)
24108d42:	4293      	cmp	r3, r2
24108d44:	f200 8133 	bhi.w	24108fae <RCCEx_GetUARTCLKFreq+0x42a>
24108d48:	4a52      	ldr	r2, [pc, #328]	@ (24108e94 <RCCEx_GetUARTCLKFreq+0x310>)
24108d4a:	4293      	cmp	r3, r2
24108d4c:	d03e      	beq.n	24108dcc <RCCEx_GetUARTCLKFreq+0x248>
24108d4e:	4a51      	ldr	r2, [pc, #324]	@ (24108e94 <RCCEx_GetUARTCLKFreq+0x310>)
24108d50:	4293      	cmp	r3, r2
24108d52:	f200 812c 	bhi.w	24108fae <RCCEx_GetUARTCLKFreq+0x42a>
24108d56:	4a50      	ldr	r2, [pc, #320]	@ (24108e98 <RCCEx_GetUARTCLKFreq+0x314>)
24108d58:	4293      	cmp	r3, r2
24108d5a:	d037      	beq.n	24108dcc <RCCEx_GetUARTCLKFreq+0x248>
24108d5c:	4a4e      	ldr	r2, [pc, #312]	@ (24108e98 <RCCEx_GetUARTCLKFreq+0x314>)
24108d5e:	4293      	cmp	r3, r2
24108d60:	f200 8125 	bhi.w	24108fae <RCCEx_GetUARTCLKFreq+0x42a>
24108d64:	4a4d      	ldr	r2, [pc, #308]	@ (24108e9c <RCCEx_GetUARTCLKFreq+0x318>)
24108d66:	4293      	cmp	r3, r2
24108d68:	d018      	beq.n	24108d9c <RCCEx_GetUARTCLKFreq+0x218>
24108d6a:	4a4c      	ldr	r2, [pc, #304]	@ (24108e9c <RCCEx_GetUARTCLKFreq+0x318>)
24108d6c:	4293      	cmp	r3, r2
24108d6e:	f200 811e 	bhi.w	24108fae <RCCEx_GetUARTCLKFreq+0x42a>
24108d72:	4a4b      	ldr	r2, [pc, #300]	@ (24108ea0 <RCCEx_GetUARTCLKFreq+0x31c>)
24108d74:	4293      	cmp	r3, r2
24108d76:	d011      	beq.n	24108d9c <RCCEx_GetUARTCLKFreq+0x218>
24108d78:	4a49      	ldr	r2, [pc, #292]	@ (24108ea0 <RCCEx_GetUARTCLKFreq+0x31c>)
24108d7a:	4293      	cmp	r3, r2
24108d7c:	f200 8117 	bhi.w	24108fae <RCCEx_GetUARTCLKFreq+0x42a>
24108d80:	4a48      	ldr	r2, [pc, #288]	@ (24108ea4 <RCCEx_GetUARTCLKFreq+0x320>)
24108d82:	4293      	cmp	r3, r2
24108d84:	d00a      	beq.n	24108d9c <RCCEx_GetUARTCLKFreq+0x218>
24108d86:	4a47      	ldr	r2, [pc, #284]	@ (24108ea4 <RCCEx_GetUARTCLKFreq+0x320>)
24108d88:	4293      	cmp	r3, r2
24108d8a:	f200 8110 	bhi.w	24108fae <RCCEx_GetUARTCLKFreq+0x42a>
24108d8e:	4a46      	ldr	r2, [pc, #280]	@ (24108ea8 <RCCEx_GetUARTCLKFreq+0x324>)
24108d90:	4293      	cmp	r3, r2
24108d92:	d00f      	beq.n	24108db4 <RCCEx_GetUARTCLKFreq+0x230>
24108d94:	4a45      	ldr	r2, [pc, #276]	@ (24108eac <RCCEx_GetUARTCLKFreq+0x328>)
24108d96:	4293      	cmp	r3, r2
24108d98:	f040 8109 	bne.w	24108fae <RCCEx_GetUARTCLKFreq+0x42a>
  {
    case LL_RCC_UART4_CLKSOURCE_PCLK1:
    case LL_RCC_UART5_CLKSOURCE_PCLK1:
    case LL_RCC_UART7_CLKSOURCE_PCLK1:
    case LL_RCC_UART8_CLKSOURCE_PCLK1:
      uart_frequency = RCCEx_GetPCLK1Freq(RCCEx_GetHCLKFreq(HAL_RCC_GetSysClockFreq()));
24108d9c:	f7f8 fce2 	bl	24101764 <HAL_RCC_GetSysClockFreq>
24108da0:	4603      	mov	r3, r0
24108da2:	4618      	mov	r0, r3
24108da4:	f7fd f944 	bl	24106030 <RCCEx_GetHCLKFreq>
24108da8:	4603      	mov	r3, r0
24108daa:	4618      	mov	r0, r3
24108dac:	f7fd f951 	bl	24106052 <RCCEx_GetPCLK1Freq>
24108db0:	60f8      	str	r0, [r7, #12]
      break;
24108db2:	e107      	b.n	24108fc4 <RCCEx_GetUARTCLKFreq+0x440>

    case LL_RCC_UART9_CLKSOURCE_PCLK2:
      uart_frequency = RCCEx_GetPCLK2Freq(RCCEx_GetHCLKFreq(HAL_RCC_GetSysClockFreq()));
24108db4:	f7f8 fcd6 	bl	24101764 <HAL_RCC_GetSysClockFreq>
24108db8:	4603      	mov	r3, r0
24108dba:	4618      	mov	r0, r3
24108dbc:	f7fd f938 	bl	24106030 <RCCEx_GetHCLKFreq>
24108dc0:	4603      	mov	r3, r0
24108dc2:	4618      	mov	r0, r3
24108dc4:	f7fd f955 	bl	24106072 <RCCEx_GetPCLK2Freq>
24108dc8:	60f8      	str	r0, [r7, #12]
      break;
24108dca:	e0fb      	b.n	24108fc4 <RCCEx_GetUARTCLKFreq+0x440>
    case LL_RCC_UART4_CLKSOURCE_CLKP:
    case LL_RCC_UART5_CLKSOURCE_CLKP:
    case LL_RCC_UART7_CLKSOURCE_CLKP:
    case LL_RCC_UART8_CLKSOURCE_CLKP:
    case LL_RCC_UART9_CLKSOURCE_CLKP:
      uart_frequency = RCCEx_GetCLKPCLKFreq(LL_RCC_CLKP_CLKSOURCE);
24108dcc:	2007      	movs	r0, #7
24108dce:	f7fd fc1b 	bl	24106608 <RCCEx_GetCLKPCLKFreq>
24108dd2:	60f8      	str	r0, [r7, #12]
      break;
24108dd4:	e0f6      	b.n	24108fc4 <RCCEx_GetUARTCLKFreq+0x440>
    case LL_RCC_UART4_CLKSOURCE_IC9:
    case LL_RCC_UART5_CLKSOURCE_IC9:
    case LL_RCC_UART7_CLKSOURCE_IC9:
    case LL_RCC_UART8_CLKSOURCE_IC9:
    case LL_RCC_UART9_CLKSOURCE_IC9:
      if (LL_RCC_IC9_IsEnabled() != 0U)
24108dd6:	f7f9 fdbf 	bl	24102958 <LL_RCC_IC9_IsEnabled>
24108dda:	4603      	mov	r3, r0
24108ddc:	2b00      	cmp	r3, #0
24108dde:	f000 80e8 	beq.w	24108fb2 <RCCEx_GetUARTCLKFreq+0x42e>
      {
        ic_divider = LL_RCC_IC9_GetDivider();
24108de2:	f7f9 fddb 	bl	2410299c <LL_RCC_IC9_GetDivider>
24108de6:	60b8      	str	r0, [r7, #8]
        switch (LL_RCC_IC9_GetSource())
24108de8:	f7f9 fdca 	bl	24102980 <LL_RCC_IC9_GetSource>
24108dec:	4603      	mov	r3, r0
24108dee:	f1b3 5f40 	cmp.w	r3, #805306368	@ 0x30000000
24108df2:	d06f      	beq.n	24108ed4 <RCCEx_GetUARTCLKFreq+0x350>
24108df4:	f1b3 5f40 	cmp.w	r3, #805306368	@ 0x30000000
24108df8:	d875      	bhi.n	24108ee6 <RCCEx_GetUARTCLKFreq+0x362>
24108dfa:	f1b3 5f00 	cmp.w	r3, #536870912	@ 0x20000000
24108dfe:	d060      	beq.n	24108ec2 <RCCEx_GetUARTCLKFreq+0x33e>
24108e00:	f1b3 5f00 	cmp.w	r3, #536870912	@ 0x20000000
24108e04:	d86f      	bhi.n	24108ee6 <RCCEx_GetUARTCLKFreq+0x362>
24108e06:	2b00      	cmp	r3, #0
24108e08:	d003      	beq.n	24108e12 <RCCEx_GetUARTCLKFreq+0x28e>
24108e0a:	f1b3 5f80 	cmp.w	r3, #268435456	@ 0x10000000
24108e0e:	d04f      	beq.n	24108eb0 <RCCEx_GetUARTCLKFreq+0x32c>
            uart_frequency = HAL_RCCEx_GetPLL4CLKFreq();
            uart_frequency = uart_frequency / ic_divider;
            break;
          default:
            /* Unexpected case */
            break;
24108e10:	e069      	b.n	24108ee6 <RCCEx_GetUARTCLKFreq+0x362>
            uart_frequency = HAL_RCCEx_GetPLL1CLKFreq();
24108e12:	f7fc fff5 	bl	24105e00 <HAL_RCCEx_GetPLL1CLKFreq>
24108e16:	60f8      	str	r0, [r7, #12]
            uart_frequency = uart_frequency / ic_divider;
24108e18:	68fa      	ldr	r2, [r7, #12]
24108e1a:	68bb      	ldr	r3, [r7, #8]
24108e1c:	fbb2 f3f3 	udiv	r3, r2, r3
24108e20:	60fb      	str	r3, [r7, #12]
            break;
24108e22:	e061      	b.n	24108ee8 <RCCEx_GetUARTCLKFreq+0x364>
24108e24:	07061c30 	.word	0x07061c30
24108e28:	07061830 	.word	0x07061830
24108e2c:	07061030 	.word	0x07061030
24108e30:	07060c30 	.word	0x07060c30
24108e34:	07060034 	.word	0x07060034
24108e38:	07051c30 	.word	0x07051c30
24108e3c:	07051830 	.word	0x07051830
24108e40:	07051030 	.word	0x07051030
24108e44:	07050c30 	.word	0x07050c30
24108e48:	07050034 	.word	0x07050034
24108e4c:	07041c30 	.word	0x07041c30
24108e50:	07041830 	.word	0x07041830
24108e54:	07041030 	.word	0x07041030
24108e58:	07040c30 	.word	0x07040c30
24108e5c:	07040034 	.word	0x07040034
24108e60:	07031c30 	.word	0x07031c30
24108e64:	07031830 	.word	0x07031830
24108e68:	07031030 	.word	0x07031030
24108e6c:	07030c30 	.word	0x07030c30
24108e70:	07030034 	.word	0x07030034
24108e74:	07021c30 	.word	0x07021c30
24108e78:	07021830 	.word	0x07021830
24108e7c:	07021030 	.word	0x07021030
24108e80:	07020c30 	.word	0x07020c30
24108e84:	07020034 	.word	0x07020034
24108e88:	07011c30 	.word	0x07011c30
24108e8c:	07011830 	.word	0x07011830
24108e90:	07011030 	.word	0x07011030
24108e94:	07010c30 	.word	0x07010c30
24108e98:	07010034 	.word	0x07010034
24108e9c:	07001c30 	.word	0x07001c30
24108ea0:	07001830 	.word	0x07001830
24108ea4:	07001030 	.word	0x07001030
24108ea8:	07000034 	.word	0x07000034
24108eac:	07000c30 	.word	0x07000c30
            uart_frequency = HAL_RCCEx_GetPLL2CLKFreq();
24108eb0:	f7fc ffec 	bl	24105e8c <HAL_RCCEx_GetPLL2CLKFreq>
24108eb4:	60f8      	str	r0, [r7, #12]
            uart_frequency = uart_frequency / ic_divider;
24108eb6:	68fa      	ldr	r2, [r7, #12]
24108eb8:	68bb      	ldr	r3, [r7, #8]
24108eba:	fbb2 f3f3 	udiv	r3, r2, r3
24108ebe:	60fb      	str	r3, [r7, #12]
            break;
24108ec0:	e012      	b.n	24108ee8 <RCCEx_GetUARTCLKFreq+0x364>
            uart_frequency = HAL_RCCEx_GetPLL3CLKFreq();
24108ec2:	f7fd f829 	bl	24105f18 <HAL_RCCEx_GetPLL3CLKFreq>
24108ec6:	60f8      	str	r0, [r7, #12]
            uart_frequency = uart_frequency / ic_divider;
24108ec8:	68fa      	ldr	r2, [r7, #12]
24108eca:	68bb      	ldr	r3, [r7, #8]
24108ecc:	fbb2 f3f3 	udiv	r3, r2, r3
24108ed0:	60fb      	str	r3, [r7, #12]
            break;
24108ed2:	e009      	b.n	24108ee8 <RCCEx_GetUARTCLKFreq+0x364>
            uart_frequency = HAL_RCCEx_GetPLL4CLKFreq();
24108ed4:	f7fd f866 	bl	24105fa4 <HAL_RCCEx_GetPLL4CLKFreq>
24108ed8:	60f8      	str	r0, [r7, #12]
            uart_frequency = uart_frequency / ic_divider;
24108eda:	68fa      	ldr	r2, [r7, #12]
24108edc:	68bb      	ldr	r3, [r7, #8]
24108ede:	fbb2 f3f3 	udiv	r3, r2, r3
24108ee2:	60fb      	str	r3, [r7, #12]
            break;
24108ee4:	e000      	b.n	24108ee8 <RCCEx_GetUARTCLKFreq+0x364>
            break;
24108ee6:	bf00      	nop
        }
      }
      break;
24108ee8:	e063      	b.n	24108fb2 <RCCEx_GetUARTCLKFreq+0x42e>
    case LL_RCC_UART4_CLKSOURCE_IC14:
    case LL_RCC_UART5_CLKSOURCE_IC14:
    case LL_RCC_UART7_CLKSOURCE_IC14:
    case LL_RCC_UART8_CLKSOURCE_IC14:
    case LL_RCC_UART9_CLKSOURCE_IC14:
      if (LL_RCC_IC14_IsEnabled() != 0U)
24108eea:	f7f9 fe35 	bl	24102b58 <LL_RCC_IC14_IsEnabled>
24108eee:	4603      	mov	r3, r0
24108ef0:	2b00      	cmp	r3, #0
24108ef2:	d060      	beq.n	24108fb6 <RCCEx_GetUARTCLKFreq+0x432>
      {
        ic_divider = LL_RCC_IC14_GetDivider();
24108ef4:	f7f9 fe52 	bl	24102b9c <LL_RCC_IC14_GetDivider>
24108ef8:	60b8      	str	r0, [r7, #8]
        switch (LL_RCC_IC14_GetSource())
24108efa:	f7f9 fe41 	bl	24102b80 <LL_RCC_IC14_GetSource>
24108efe:	4603      	mov	r3, r0
24108f00:	f1b3 5f40 	cmp.w	r3, #805306368	@ 0x30000000
24108f04:	d029      	beq.n	24108f5a <RCCEx_GetUARTCLKFreq+0x3d6>
24108f06:	f1b3 5f40 	cmp.w	r3, #805306368	@ 0x30000000
24108f0a:	d82f      	bhi.n	24108f6c <RCCEx_GetUARTCLKFreq+0x3e8>
24108f0c:	f1b3 5f00 	cmp.w	r3, #536870912	@ 0x20000000
24108f10:	d01a      	beq.n	24108f48 <RCCEx_GetUARTCLKFreq+0x3c4>
24108f12:	f1b3 5f00 	cmp.w	r3, #536870912	@ 0x20000000
24108f16:	d829      	bhi.n	24108f6c <RCCEx_GetUARTCLKFreq+0x3e8>
24108f18:	2b00      	cmp	r3, #0
24108f1a:	d003      	beq.n	24108f24 <RCCEx_GetUARTCLKFreq+0x3a0>
24108f1c:	f1b3 5f80 	cmp.w	r3, #268435456	@ 0x10000000
24108f20:	d009      	beq.n	24108f36 <RCCEx_GetUARTCLKFreq+0x3b2>
            uart_frequency = HAL_RCCEx_GetPLL4CLKFreq();
            uart_frequency = uart_frequency / ic_divider;
            break;
          default:
            /* Unexpected case */
            break;
24108f22:	e023      	b.n	24108f6c <RCCEx_GetUARTCLKFreq+0x3e8>
            uart_frequency = HAL_RCCEx_GetPLL1CLKFreq();
24108f24:	f7fc ff6c 	bl	24105e00 <HAL_RCCEx_GetPLL1CLKFreq>
24108f28:	60f8      	str	r0, [r7, #12]
            uart_frequency = uart_frequency / ic_divider;
24108f2a:	68fa      	ldr	r2, [r7, #12]
24108f2c:	68bb      	ldr	r3, [r7, #8]
24108f2e:	fbb2 f3f3 	udiv	r3, r2, r3
24108f32:	60fb      	str	r3, [r7, #12]
            break;
24108f34:	e01b      	b.n	24108f6e <RCCEx_GetUARTCLKFreq+0x3ea>
            uart_frequency = HAL_RCCEx_GetPLL2CLKFreq();
24108f36:	f7fc ffa9 	bl	24105e8c <HAL_RCCEx_GetPLL2CLKFreq>
24108f3a:	60f8      	str	r0, [r7, #12]
            uart_frequency = uart_frequency / ic_divider;
24108f3c:	68fa      	ldr	r2, [r7, #12]
24108f3e:	68bb      	ldr	r3, [r7, #8]
24108f40:	fbb2 f3f3 	udiv	r3, r2, r3
24108f44:	60fb      	str	r3, [r7, #12]
            break;
24108f46:	e012      	b.n	24108f6e <RCCEx_GetUARTCLKFreq+0x3ea>
            uart_frequency = HAL_RCCEx_GetPLL3CLKFreq();
24108f48:	f7fc ffe6 	bl	24105f18 <HAL_RCCEx_GetPLL3CLKFreq>
24108f4c:	60f8      	str	r0, [r7, #12]
            uart_frequency = uart_frequency / ic_divider;
24108f4e:	68fa      	ldr	r2, [r7, #12]
24108f50:	68bb      	ldr	r3, [r7, #8]
24108f52:	fbb2 f3f3 	udiv	r3, r2, r3
24108f56:	60fb      	str	r3, [r7, #12]
            break;
24108f58:	e009      	b.n	24108f6e <RCCEx_GetUARTCLKFreq+0x3ea>
            uart_frequency = HAL_RCCEx_GetPLL4CLKFreq();
24108f5a:	f7fd f823 	bl	24105fa4 <HAL_RCCEx_GetPLL4CLKFreq>
24108f5e:	60f8      	str	r0, [r7, #12]
            uart_frequency = uart_frequency / ic_divider;
24108f60:	68fa      	ldr	r2, [r7, #12]
24108f62:	68bb      	ldr	r3, [r7, #8]
24108f64:	fbb2 f3f3 	udiv	r3, r2, r3
24108f68:	60fb      	str	r3, [r7, #12]
            break;
24108f6a:	e000      	b.n	24108f6e <RCCEx_GetUARTCLKFreq+0x3ea>
            break;
24108f6c:	bf00      	nop
        }
      }
      break;
24108f6e:	e022      	b.n	24108fb6 <RCCEx_GetUARTCLKFreq+0x432>
    case LL_RCC_UART4_CLKSOURCE_HSI:
    case LL_RCC_UART5_CLKSOURCE_HSI:
    case LL_RCC_UART7_CLKSOURCE_HSI:
    case LL_RCC_UART8_CLKSOURCE_HSI:
    case LL_RCC_UART9_CLKSOURCE_HSI:
      if (LL_RCC_HSI_IsReady() != 0U)
24108f70:	f7f8 fcce 	bl	24101910 <LL_RCC_HSI_IsReady>
24108f74:	4603      	mov	r3, r0
24108f76:	2b00      	cmp	r3, #0
24108f78:	d01f      	beq.n	24108fba <RCCEx_GetUARTCLKFreq+0x436>
      {
        uart_frequency = HSI_VALUE >> (LL_RCC_HSI_GetDivider() >> RCC_HSICFGR_HSIDIV_Pos);
24108f7a:	f7f8 fcdb 	bl	24101934 <LL_RCC_HSI_GetDivider>
24108f7e:	4603      	mov	r3, r0
24108f80:	09db      	lsrs	r3, r3, #7
24108f82:	4a13      	ldr	r2, [pc, #76]	@ (24108fd0 <RCCEx_GetUARTCLKFreq+0x44c>)
24108f84:	fa22 f303 	lsr.w	r3, r2, r3
24108f88:	60fb      	str	r3, [r7, #12]
      }
      break;
24108f8a:	e016      	b.n	24108fba <RCCEx_GetUARTCLKFreq+0x436>
    case LL_RCC_UART4_CLKSOURCE_MSI:
    case LL_RCC_UART5_CLKSOURCE_MSI:
    case LL_RCC_UART7_CLKSOURCE_MSI:
    case LL_RCC_UART8_CLKSOURCE_MSI:
    case LL_RCC_UART9_CLKSOURCE_MSI:
      if (LL_RCC_MSI_IsReady() != 0U)
24108f8c:	f7f8 fce0 	bl	24101950 <LL_RCC_MSI_IsReady>
24108f90:	4603      	mov	r3, r0
24108f92:	2b00      	cmp	r3, #0
24108f94:	d013      	beq.n	24108fbe <RCCEx_GetUARTCLKFreq+0x43a>
      {
        uart_frequency = MSI_VALUE;
24108f96:	4b0f      	ldr	r3, [pc, #60]	@ (24108fd4 <RCCEx_GetUARTCLKFreq+0x450>)
24108f98:	60fb      	str	r3, [r7, #12]
      }
      break;
24108f9a:	e010      	b.n	24108fbe <RCCEx_GetUARTCLKFreq+0x43a>
    case LL_RCC_UART4_CLKSOURCE_LSE:
    case LL_RCC_UART5_CLKSOURCE_LSE:
    case LL_RCC_UART7_CLKSOURCE_LSE:
    case LL_RCC_UART8_CLKSOURCE_LSE:
    case LL_RCC_UART9_CLKSOURCE_LSE:
      if (LL_RCC_LSE_IsReady() != 0U)
24108f9c:	f7f8 fcf8 	bl	24101990 <LL_RCC_LSE_IsReady>
24108fa0:	4603      	mov	r3, r0
24108fa2:	2b00      	cmp	r3, #0
24108fa4:	d00d      	beq.n	24108fc2 <RCCEx_GetUARTCLKFreq+0x43e>
      {
        uart_frequency = LSE_VALUE;
24108fa6:	f44f 4300 	mov.w	r3, #32768	@ 0x8000
24108faa:	60fb      	str	r3, [r7, #12]
      }
      break;
24108fac:	e009      	b.n	24108fc2 <RCCEx_GetUARTCLKFreq+0x43e>

    default:
      /* Unexpected case */
      break;
24108fae:	bf00      	nop
24108fb0:	e008      	b.n	24108fc4 <RCCEx_GetUARTCLKFreq+0x440>
      break;
24108fb2:	bf00      	nop
24108fb4:	e006      	b.n	24108fc4 <RCCEx_GetUARTCLKFreq+0x440>
      break;
24108fb6:	bf00      	nop
24108fb8:	e004      	b.n	24108fc4 <RCCEx_GetUARTCLKFreq+0x440>
      break;
24108fba:	bf00      	nop
24108fbc:	e002      	b.n	24108fc4 <RCCEx_GetUARTCLKFreq+0x440>
      break;
24108fbe:	bf00      	nop
24108fc0:	e000      	b.n	24108fc4 <RCCEx_GetUARTCLKFreq+0x440>
      break;
24108fc2:	bf00      	nop
  }

  return uart_frequency;
24108fc4:	68fb      	ldr	r3, [r7, #12]
}
24108fc6:	4618      	mov	r0, r3
24108fc8:	3710      	adds	r7, #16
24108fca:	46bd      	mov	sp, r7
24108fcc:	bd80      	pop	{r7, pc}
24108fce:	bf00      	nop
24108fd0:	03d09000 	.word	0x03d09000
24108fd4:	003d0900 	.word	0x003d0900

24108fd8 <RCCEx_GetUSARTCLKFreq>:
  *         @arg @ref RCCEx_USART10_Clock_Source
  * @retval USART clock frequency (in Hz)
  *         - @ref  RCC_PERIPH_FREQUENCY_NO indicates that oscillator is not ready
  */
static uint32_t RCCEx_GetUSARTCLKFreq(uint32_t USARTxSource)
{
24108fd8:	b580      	push	{r7, lr}
24108fda:	b084      	sub	sp, #16
24108fdc:	af00      	add	r7, sp, #0
24108fde:	6078      	str	r0, [r7, #4]
  uint32_t usart_frequency = RCC_PERIPH_FREQUENCY_NO;
24108fe0:	2300      	movs	r3, #0
24108fe2:	60fb      	str	r3, [r7, #12]
  uint32_t ic_divider;

  switch (LL_RCC_GetUSARTClockSource(USARTxSource))
24108fe4:	6878      	ldr	r0, [r7, #4]
24108fe6:	f7f9 f87b 	bl	241020e0 <LL_RCC_GetUSARTClockSource>
24108fea:	4603      	mov	r3, r0
24108fec:	4aa2      	ldr	r2, [pc, #648]	@ (24109278 <RCCEx_GetUSARTCLKFreq+0x2a0>)
24108fee:	4293      	cmp	r3, r2
24108ff0:	f000 81e8 	beq.w	241093c4 <RCCEx_GetUSARTCLKFreq+0x3ec>
24108ff4:	4aa0      	ldr	r2, [pc, #640]	@ (24109278 <RCCEx_GetUSARTCLKFreq+0x2a0>)
24108ff6:	4293      	cmp	r3, r2
24108ff8:	f200 8203 	bhi.w	24109402 <RCCEx_GetUSARTCLKFreq+0x42a>
24108ffc:	4a9f      	ldr	r2, [pc, #636]	@ (2410927c <RCCEx_GetUSARTCLKFreq+0x2a4>)
24108ffe:	4293      	cmp	r3, r2
24109000:	f000 81e0 	beq.w	241093c4 <RCCEx_GetUSARTCLKFreq+0x3ec>
24109004:	4a9d      	ldr	r2, [pc, #628]	@ (2410927c <RCCEx_GetUSARTCLKFreq+0x2a4>)
24109006:	4293      	cmp	r3, r2
24109008:	f200 81fb 	bhi.w	24109402 <RCCEx_GetUSARTCLKFreq+0x42a>
2410900c:	4a9c      	ldr	r2, [pc, #624]	@ (24109280 <RCCEx_GetUSARTCLKFreq+0x2a8>)
2410900e:	4293      	cmp	r3, r2
24109010:	f000 81d8 	beq.w	241093c4 <RCCEx_GetUSARTCLKFreq+0x3ec>
24109014:	4a9a      	ldr	r2, [pc, #616]	@ (24109280 <RCCEx_GetUSARTCLKFreq+0x2a8>)
24109016:	4293      	cmp	r3, r2
24109018:	f200 81f3 	bhi.w	24109402 <RCCEx_GetUSARTCLKFreq+0x42a>
2410901c:	4a99      	ldr	r2, [pc, #612]	@ (24109284 <RCCEx_GetUSARTCLKFreq+0x2ac>)
2410901e:	4293      	cmp	r3, r2
24109020:	f000 81d0 	beq.w	241093c4 <RCCEx_GetUSARTCLKFreq+0x3ec>
24109024:	4a97      	ldr	r2, [pc, #604]	@ (24109284 <RCCEx_GetUSARTCLKFreq+0x2ac>)
24109026:	4293      	cmp	r3, r2
24109028:	f200 81eb 	bhi.w	24109402 <RCCEx_GetUSARTCLKFreq+0x42a>
2410902c:	4a96      	ldr	r2, [pc, #600]	@ (24109288 <RCCEx_GetUSARTCLKFreq+0x2b0>)
2410902e:	4293      	cmp	r3, r2
24109030:	f000 81c8 	beq.w	241093c4 <RCCEx_GetUSARTCLKFreq+0x3ec>
24109034:	4a94      	ldr	r2, [pc, #592]	@ (24109288 <RCCEx_GetUSARTCLKFreq+0x2b0>)
24109036:	4293      	cmp	r3, r2
24109038:	f200 81e3 	bhi.w	24109402 <RCCEx_GetUSARTCLKFreq+0x42a>
2410903c:	4a93      	ldr	r2, [pc, #588]	@ (2410928c <RCCEx_GetUSARTCLKFreq+0x2b4>)
2410903e:	4293      	cmp	r3, r2
24109040:	f000 81ce 	beq.w	241093e0 <RCCEx_GetUSARTCLKFreq+0x408>
24109044:	4a91      	ldr	r2, [pc, #580]	@ (2410928c <RCCEx_GetUSARTCLKFreq+0x2b4>)
24109046:	4293      	cmp	r3, r2
24109048:	f200 81db 	bhi.w	24109402 <RCCEx_GetUSARTCLKFreq+0x42a>
2410904c:	4a90      	ldr	r2, [pc, #576]	@ (24109290 <RCCEx_GetUSARTCLKFreq+0x2b8>)
2410904e:	4293      	cmp	r3, r2
24109050:	f000 81c6 	beq.w	241093e0 <RCCEx_GetUSARTCLKFreq+0x408>
24109054:	4a8e      	ldr	r2, [pc, #568]	@ (24109290 <RCCEx_GetUSARTCLKFreq+0x2b8>)
24109056:	4293      	cmp	r3, r2
24109058:	f200 81d3 	bhi.w	24109402 <RCCEx_GetUSARTCLKFreq+0x42a>
2410905c:	4a8d      	ldr	r2, [pc, #564]	@ (24109294 <RCCEx_GetUSARTCLKFreq+0x2bc>)
2410905e:	4293      	cmp	r3, r2
24109060:	f000 81be 	beq.w	241093e0 <RCCEx_GetUSARTCLKFreq+0x408>
24109064:	4a8b      	ldr	r2, [pc, #556]	@ (24109294 <RCCEx_GetUSARTCLKFreq+0x2bc>)
24109066:	4293      	cmp	r3, r2
24109068:	f200 81cb 	bhi.w	24109402 <RCCEx_GetUSARTCLKFreq+0x42a>
2410906c:	4a8a      	ldr	r2, [pc, #552]	@ (24109298 <RCCEx_GetUSARTCLKFreq+0x2c0>)
2410906e:	4293      	cmp	r3, r2
24109070:	f000 81b6 	beq.w	241093e0 <RCCEx_GetUSARTCLKFreq+0x408>
24109074:	4a88      	ldr	r2, [pc, #544]	@ (24109298 <RCCEx_GetUSARTCLKFreq+0x2c0>)
24109076:	4293      	cmp	r3, r2
24109078:	f200 81c3 	bhi.w	24109402 <RCCEx_GetUSARTCLKFreq+0x42a>
2410907c:	4a87      	ldr	r2, [pc, #540]	@ (2410929c <RCCEx_GetUSARTCLKFreq+0x2c4>)
2410907e:	4293      	cmp	r3, r2
24109080:	f000 81ae 	beq.w	241093e0 <RCCEx_GetUSARTCLKFreq+0x408>
24109084:	4a85      	ldr	r2, [pc, #532]	@ (2410929c <RCCEx_GetUSARTCLKFreq+0x2c4>)
24109086:	4293      	cmp	r3, r2
24109088:	f200 81bb 	bhi.w	24109402 <RCCEx_GetUSARTCLKFreq+0x42a>
2410908c:	4a84      	ldr	r2, [pc, #528]	@ (241092a0 <RCCEx_GetUSARTCLKFreq+0x2c8>)
2410908e:	4293      	cmp	r3, r2
24109090:	f000 81ae 	beq.w	241093f0 <RCCEx_GetUSARTCLKFreq+0x418>
24109094:	4a82      	ldr	r2, [pc, #520]	@ (241092a0 <RCCEx_GetUSARTCLKFreq+0x2c8>)
24109096:	4293      	cmp	r3, r2
24109098:	f200 81b3 	bhi.w	24109402 <RCCEx_GetUSARTCLKFreq+0x42a>
2410909c:	4a81      	ldr	r2, [pc, #516]	@ (241092a4 <RCCEx_GetUSARTCLKFreq+0x2cc>)
2410909e:	4293      	cmp	r3, r2
241090a0:	f000 81a6 	beq.w	241093f0 <RCCEx_GetUSARTCLKFreq+0x418>
241090a4:	4a7f      	ldr	r2, [pc, #508]	@ (241092a4 <RCCEx_GetUSARTCLKFreq+0x2cc>)
241090a6:	4293      	cmp	r3, r2
241090a8:	f200 81ab 	bhi.w	24109402 <RCCEx_GetUSARTCLKFreq+0x42a>
241090ac:	4a7e      	ldr	r2, [pc, #504]	@ (241092a8 <RCCEx_GetUSARTCLKFreq+0x2d0>)
241090ae:	4293      	cmp	r3, r2
241090b0:	f000 819e 	beq.w	241093f0 <RCCEx_GetUSARTCLKFreq+0x418>
241090b4:	4a7c      	ldr	r2, [pc, #496]	@ (241092a8 <RCCEx_GetUSARTCLKFreq+0x2d0>)
241090b6:	4293      	cmp	r3, r2
241090b8:	f200 81a3 	bhi.w	24109402 <RCCEx_GetUSARTCLKFreq+0x42a>
241090bc:	4a7b      	ldr	r2, [pc, #492]	@ (241092ac <RCCEx_GetUSARTCLKFreq+0x2d4>)
241090be:	4293      	cmp	r3, r2
241090c0:	f000 8196 	beq.w	241093f0 <RCCEx_GetUSARTCLKFreq+0x418>
241090c4:	4a79      	ldr	r2, [pc, #484]	@ (241092ac <RCCEx_GetUSARTCLKFreq+0x2d4>)
241090c6:	4293      	cmp	r3, r2
241090c8:	f200 819b 	bhi.w	24109402 <RCCEx_GetUSARTCLKFreq+0x42a>
241090cc:	4a78      	ldr	r2, [pc, #480]	@ (241092b0 <RCCEx_GetUSARTCLKFreq+0x2d8>)
241090ce:	4293      	cmp	r3, r2
241090d0:	f000 818e 	beq.w	241093f0 <RCCEx_GetUSARTCLKFreq+0x418>
241090d4:	4a76      	ldr	r2, [pc, #472]	@ (241092b0 <RCCEx_GetUSARTCLKFreq+0x2d8>)
241090d6:	4293      	cmp	r3, r2
241090d8:	f200 8193 	bhi.w	24109402 <RCCEx_GetUSARTCLKFreq+0x42a>
241090dc:	4a75      	ldr	r2, [pc, #468]	@ (241092b4 <RCCEx_GetUSARTCLKFreq+0x2dc>)
241090de:	4293      	cmp	r3, r2
241090e0:	f000 812d 	beq.w	2410933e <RCCEx_GetUSARTCLKFreq+0x366>
241090e4:	4a73      	ldr	r2, [pc, #460]	@ (241092b4 <RCCEx_GetUSARTCLKFreq+0x2dc>)
241090e6:	4293      	cmp	r3, r2
241090e8:	f200 818b 	bhi.w	24109402 <RCCEx_GetUSARTCLKFreq+0x42a>
241090ec:	4a72      	ldr	r2, [pc, #456]	@ (241092b8 <RCCEx_GetUSARTCLKFreq+0x2e0>)
241090ee:	4293      	cmp	r3, r2
241090f0:	f000 8125 	beq.w	2410933e <RCCEx_GetUSARTCLKFreq+0x366>
241090f4:	4a70      	ldr	r2, [pc, #448]	@ (241092b8 <RCCEx_GetUSARTCLKFreq+0x2e0>)
241090f6:	4293      	cmp	r3, r2
241090f8:	f200 8183 	bhi.w	24109402 <RCCEx_GetUSARTCLKFreq+0x42a>
241090fc:	4a6f      	ldr	r2, [pc, #444]	@ (241092bc <RCCEx_GetUSARTCLKFreq+0x2e4>)
241090fe:	4293      	cmp	r3, r2
24109100:	f000 811d 	beq.w	2410933e <RCCEx_GetUSARTCLKFreq+0x366>
24109104:	4a6d      	ldr	r2, [pc, #436]	@ (241092bc <RCCEx_GetUSARTCLKFreq+0x2e4>)
24109106:	4293      	cmp	r3, r2
24109108:	f200 817b 	bhi.w	24109402 <RCCEx_GetUSARTCLKFreq+0x42a>
2410910c:	4a6c      	ldr	r2, [pc, #432]	@ (241092c0 <RCCEx_GetUSARTCLKFreq+0x2e8>)
2410910e:	4293      	cmp	r3, r2
24109110:	f000 8115 	beq.w	2410933e <RCCEx_GetUSARTCLKFreq+0x366>
24109114:	4a6a      	ldr	r2, [pc, #424]	@ (241092c0 <RCCEx_GetUSARTCLKFreq+0x2e8>)
24109116:	4293      	cmp	r3, r2
24109118:	f200 8173 	bhi.w	24109402 <RCCEx_GetUSARTCLKFreq+0x42a>
2410911c:	4a69      	ldr	r2, [pc, #420]	@ (241092c4 <RCCEx_GetUSARTCLKFreq+0x2ec>)
2410911e:	4293      	cmp	r3, r2
24109120:	f000 810d 	beq.w	2410933e <RCCEx_GetUSARTCLKFreq+0x366>
24109124:	4a67      	ldr	r2, [pc, #412]	@ (241092c4 <RCCEx_GetUSARTCLKFreq+0x2ec>)
24109126:	4293      	cmp	r3, r2
24109128:	f200 816b 	bhi.w	24109402 <RCCEx_GetUSARTCLKFreq+0x42a>
2410912c:	4a66      	ldr	r2, [pc, #408]	@ (241092c8 <RCCEx_GetUSARTCLKFreq+0x2f0>)
2410912e:	4293      	cmp	r3, r2
24109130:	d07b      	beq.n	2410922a <RCCEx_GetUSARTCLKFreq+0x252>
24109132:	4a65      	ldr	r2, [pc, #404]	@ (241092c8 <RCCEx_GetUSARTCLKFreq+0x2f0>)
24109134:	4293      	cmp	r3, r2
24109136:	f200 8164 	bhi.w	24109402 <RCCEx_GetUSARTCLKFreq+0x42a>
2410913a:	4a64      	ldr	r2, [pc, #400]	@ (241092cc <RCCEx_GetUSARTCLKFreq+0x2f4>)
2410913c:	4293      	cmp	r3, r2
2410913e:	d074      	beq.n	2410922a <RCCEx_GetUSARTCLKFreq+0x252>
24109140:	4a62      	ldr	r2, [pc, #392]	@ (241092cc <RCCEx_GetUSARTCLKFreq+0x2f4>)
24109142:	4293      	cmp	r3, r2
24109144:	f200 815d 	bhi.w	24109402 <RCCEx_GetUSARTCLKFreq+0x42a>
24109148:	4a61      	ldr	r2, [pc, #388]	@ (241092d0 <RCCEx_GetUSARTCLKFreq+0x2f8>)
2410914a:	4293      	cmp	r3, r2
2410914c:	d06d      	beq.n	2410922a <RCCEx_GetUSARTCLKFreq+0x252>
2410914e:	4a60      	ldr	r2, [pc, #384]	@ (241092d0 <RCCEx_GetUSARTCLKFreq+0x2f8>)
24109150:	4293      	cmp	r3, r2
24109152:	f200 8156 	bhi.w	24109402 <RCCEx_GetUSARTCLKFreq+0x42a>
24109156:	4a5f      	ldr	r2, [pc, #380]	@ (241092d4 <RCCEx_GetUSARTCLKFreq+0x2fc>)
24109158:	4293      	cmp	r3, r2
2410915a:	d066      	beq.n	2410922a <RCCEx_GetUSARTCLKFreq+0x252>
2410915c:	4a5d      	ldr	r2, [pc, #372]	@ (241092d4 <RCCEx_GetUSARTCLKFreq+0x2fc>)
2410915e:	4293      	cmp	r3, r2
24109160:	f200 814f 	bhi.w	24109402 <RCCEx_GetUSARTCLKFreq+0x42a>
24109164:	4a5c      	ldr	r2, [pc, #368]	@ (241092d8 <RCCEx_GetUSARTCLKFreq+0x300>)
24109166:	4293      	cmp	r3, r2
24109168:	d05f      	beq.n	2410922a <RCCEx_GetUSARTCLKFreq+0x252>
2410916a:	4a5b      	ldr	r2, [pc, #364]	@ (241092d8 <RCCEx_GetUSARTCLKFreq+0x300>)
2410916c:	4293      	cmp	r3, r2
2410916e:	f200 8148 	bhi.w	24109402 <RCCEx_GetUSARTCLKFreq+0x42a>
24109172:	4a5a      	ldr	r2, [pc, #360]	@ (241092dc <RCCEx_GetUSARTCLKFreq+0x304>)
24109174:	4293      	cmp	r3, r2
24109176:	d053      	beq.n	24109220 <RCCEx_GetUSARTCLKFreq+0x248>
24109178:	4a58      	ldr	r2, [pc, #352]	@ (241092dc <RCCEx_GetUSARTCLKFreq+0x304>)
2410917a:	4293      	cmp	r3, r2
2410917c:	f200 8141 	bhi.w	24109402 <RCCEx_GetUSARTCLKFreq+0x42a>
24109180:	4a57      	ldr	r2, [pc, #348]	@ (241092e0 <RCCEx_GetUSARTCLKFreq+0x308>)
24109182:	4293      	cmp	r3, r2
24109184:	d04c      	beq.n	24109220 <RCCEx_GetUSARTCLKFreq+0x248>
24109186:	4a56      	ldr	r2, [pc, #344]	@ (241092e0 <RCCEx_GetUSARTCLKFreq+0x308>)
24109188:	4293      	cmp	r3, r2
2410918a:	f200 813a 	bhi.w	24109402 <RCCEx_GetUSARTCLKFreq+0x42a>
2410918e:	4a55      	ldr	r2, [pc, #340]	@ (241092e4 <RCCEx_GetUSARTCLKFreq+0x30c>)
24109190:	4293      	cmp	r3, r2
24109192:	d045      	beq.n	24109220 <RCCEx_GetUSARTCLKFreq+0x248>
24109194:	4a53      	ldr	r2, [pc, #332]	@ (241092e4 <RCCEx_GetUSARTCLKFreq+0x30c>)
24109196:	4293      	cmp	r3, r2
24109198:	f200 8133 	bhi.w	24109402 <RCCEx_GetUSARTCLKFreq+0x42a>
2410919c:	4a52      	ldr	r2, [pc, #328]	@ (241092e8 <RCCEx_GetUSARTCLKFreq+0x310>)
2410919e:	4293      	cmp	r3, r2
241091a0:	d03e      	beq.n	24109220 <RCCEx_GetUSARTCLKFreq+0x248>
241091a2:	4a51      	ldr	r2, [pc, #324]	@ (241092e8 <RCCEx_GetUSARTCLKFreq+0x310>)
241091a4:	4293      	cmp	r3, r2
241091a6:	f200 812c 	bhi.w	24109402 <RCCEx_GetUSARTCLKFreq+0x42a>
241091aa:	4a50      	ldr	r2, [pc, #320]	@ (241092ec <RCCEx_GetUSARTCLKFreq+0x314>)
241091ac:	4293      	cmp	r3, r2
241091ae:	d037      	beq.n	24109220 <RCCEx_GetUSARTCLKFreq+0x248>
241091b0:	4a4e      	ldr	r2, [pc, #312]	@ (241092ec <RCCEx_GetUSARTCLKFreq+0x314>)
241091b2:	4293      	cmp	r3, r2
241091b4:	f200 8125 	bhi.w	24109402 <RCCEx_GetUSARTCLKFreq+0x42a>
241091b8:	4a4d      	ldr	r2, [pc, #308]	@ (241092f0 <RCCEx_GetUSARTCLKFreq+0x318>)
241091ba:	4293      	cmp	r3, r2
241091bc:	d018      	beq.n	241091f0 <RCCEx_GetUSARTCLKFreq+0x218>
241091be:	4a4c      	ldr	r2, [pc, #304]	@ (241092f0 <RCCEx_GetUSARTCLKFreq+0x318>)
241091c0:	4293      	cmp	r3, r2
241091c2:	f200 811e 	bhi.w	24109402 <RCCEx_GetUSARTCLKFreq+0x42a>
241091c6:	4a4b      	ldr	r2, [pc, #300]	@ (241092f4 <RCCEx_GetUSARTCLKFreq+0x31c>)
241091c8:	4293      	cmp	r3, r2
241091ca:	d01d      	beq.n	24109208 <RCCEx_GetUSARTCLKFreq+0x230>
241091cc:	4a49      	ldr	r2, [pc, #292]	@ (241092f4 <RCCEx_GetUSARTCLKFreq+0x31c>)
241091ce:	4293      	cmp	r3, r2
241091d0:	f200 8117 	bhi.w	24109402 <RCCEx_GetUSARTCLKFreq+0x42a>
241091d4:	4a48      	ldr	r2, [pc, #288]	@ (241092f8 <RCCEx_GetUSARTCLKFreq+0x320>)
241091d6:	4293      	cmp	r3, r2
241091d8:	d00a      	beq.n	241091f0 <RCCEx_GetUSARTCLKFreq+0x218>
241091da:	4a47      	ldr	r2, [pc, #284]	@ (241092f8 <RCCEx_GetUSARTCLKFreq+0x320>)
241091dc:	4293      	cmp	r3, r2
241091de:	f200 8110 	bhi.w	24109402 <RCCEx_GetUSARTCLKFreq+0x42a>
241091e2:	4a46      	ldr	r2, [pc, #280]	@ (241092fc <RCCEx_GetUSARTCLKFreq+0x324>)
241091e4:	4293      	cmp	r3, r2
241091e6:	d003      	beq.n	241091f0 <RCCEx_GetUSARTCLKFreq+0x218>
241091e8:	4a45      	ldr	r2, [pc, #276]	@ (24109300 <RCCEx_GetUSARTCLKFreq+0x328>)
241091ea:	4293      	cmp	r3, r2
241091ec:	d00c      	beq.n	24109208 <RCCEx_GetUSARTCLKFreq+0x230>
      }
      break;

    default:
      /* Unexpected case */
      break;
241091ee:	e108      	b.n	24109402 <RCCEx_GetUSARTCLKFreq+0x42a>
      usart_frequency = RCCEx_GetPCLK2Freq(RCCEx_GetHCLKFreq(HAL_RCC_GetSysClockFreq()));
241091f0:	f7f8 fab8 	bl	24101764 <HAL_RCC_GetSysClockFreq>
241091f4:	4603      	mov	r3, r0
241091f6:	4618      	mov	r0, r3
241091f8:	f7fc ff1a 	bl	24106030 <RCCEx_GetHCLKFreq>
241091fc:	4603      	mov	r3, r0
241091fe:	4618      	mov	r0, r3
24109200:	f7fc ff37 	bl	24106072 <RCCEx_GetPCLK2Freq>
24109204:	60f8      	str	r0, [r7, #12]
      break;
24109206:	e107      	b.n	24109418 <RCCEx_GetUSARTCLKFreq+0x440>
      usart_frequency = RCCEx_GetPCLK1Freq(RCCEx_GetHCLKFreq(HAL_RCC_GetSysClockFreq()));
24109208:	f7f8 faac 	bl	24101764 <HAL_RCC_GetSysClockFreq>
2410920c:	4603      	mov	r3, r0
2410920e:	4618      	mov	r0, r3
24109210:	f7fc ff0e 	bl	24106030 <RCCEx_GetHCLKFreq>
24109214:	4603      	mov	r3, r0
24109216:	4618      	mov	r0, r3
24109218:	f7fc ff1b 	bl	24106052 <RCCEx_GetPCLK1Freq>
2410921c:	60f8      	str	r0, [r7, #12]
      break;
2410921e:	e0fb      	b.n	24109418 <RCCEx_GetUSARTCLKFreq+0x440>
      usart_frequency = RCCEx_GetCLKPCLKFreq(LL_RCC_CLKP_CLKSOURCE);
24109220:	2007      	movs	r0, #7
24109222:	f7fd f9f1 	bl	24106608 <RCCEx_GetCLKPCLKFreq>
24109226:	60f8      	str	r0, [r7, #12]
      break;
24109228:	e0f6      	b.n	24109418 <RCCEx_GetUSARTCLKFreq+0x440>
      if (LL_RCC_IC9_IsEnabled() != 0U)
2410922a:	f7f9 fb95 	bl	24102958 <LL_RCC_IC9_IsEnabled>
2410922e:	4603      	mov	r3, r0
24109230:	2b00      	cmp	r3, #0
24109232:	f000 80e8 	beq.w	24109406 <RCCEx_GetUSARTCLKFreq+0x42e>
        ic_divider = LL_RCC_IC9_GetDivider();
24109236:	f7f9 fbb1 	bl	2410299c <LL_RCC_IC9_GetDivider>
2410923a:	60b8      	str	r0, [r7, #8]
        switch (LL_RCC_IC9_GetSource())
2410923c:	f7f9 fba0 	bl	24102980 <LL_RCC_IC9_GetSource>
24109240:	4603      	mov	r3, r0
24109242:	f1b3 5f40 	cmp.w	r3, #805306368	@ 0x30000000
24109246:	d06f      	beq.n	24109328 <RCCEx_GetUSARTCLKFreq+0x350>
24109248:	f1b3 5f40 	cmp.w	r3, #805306368	@ 0x30000000
2410924c:	d875      	bhi.n	2410933a <RCCEx_GetUSARTCLKFreq+0x362>
2410924e:	f1b3 5f00 	cmp.w	r3, #536870912	@ 0x20000000
24109252:	d060      	beq.n	24109316 <RCCEx_GetUSARTCLKFreq+0x33e>
24109254:	f1b3 5f00 	cmp.w	r3, #536870912	@ 0x20000000
24109258:	d86f      	bhi.n	2410933a <RCCEx_GetUSARTCLKFreq+0x362>
2410925a:	2b00      	cmp	r3, #0
2410925c:	d003      	beq.n	24109266 <RCCEx_GetUSARTCLKFreq+0x28e>
2410925e:	f1b3 5f80 	cmp.w	r3, #268435456	@ 0x10000000
24109262:	d04f      	beq.n	24109304 <RCCEx_GetUSARTCLKFreq+0x32c>
            break;
24109264:	e069      	b.n	2410933a <RCCEx_GetUSARTCLKFreq+0x362>
            usart_frequency = HAL_RCCEx_GetPLL1CLKFreq();
24109266:	f7fc fdcb 	bl	24105e00 <HAL_RCCEx_GetPLL1CLKFreq>
2410926a:	60f8      	str	r0, [r7, #12]
            usart_frequency = usart_frequency / ic_divider;
2410926c:	68fa      	ldr	r2, [r7, #12]
2410926e:	68bb      	ldr	r3, [r7, #8]
24109270:	fbb2 f3f3 	udiv	r3, r2, r3
24109274:	60fb      	str	r3, [r7, #12]
            break;
24109276:	e061      	b.n	2410933c <RCCEx_GetUSARTCLKFreq+0x364>
24109278:	07061430 	.word	0x07061430
2410927c:	07060830 	.word	0x07060830
24109280:	07060434 	.word	0x07060434
24109284:	07060430 	.word	0x07060430
24109288:	07060030 	.word	0x07060030
2410928c:	07051430 	.word	0x07051430
24109290:	07050830 	.word	0x07050830
24109294:	07050434 	.word	0x07050434
24109298:	07050430 	.word	0x07050430
2410929c:	07050030 	.word	0x07050030
241092a0:	07041430 	.word	0x07041430
241092a4:	07040830 	.word	0x07040830
241092a8:	07040434 	.word	0x07040434
241092ac:	07040430 	.word	0x07040430
241092b0:	07040030 	.word	0x07040030
241092b4:	07031430 	.word	0x07031430
241092b8:	07030830 	.word	0x07030830
241092bc:	07030434 	.word	0x07030434
241092c0:	07030430 	.word	0x07030430
241092c4:	07030030 	.word	0x07030030
241092c8:	07021430 	.word	0x07021430
241092cc:	07020830 	.word	0x07020830
241092d0:	07020434 	.word	0x07020434
241092d4:	07020430 	.word	0x07020430
241092d8:	07020030 	.word	0x07020030
241092dc:	07011430 	.word	0x07011430
241092e0:	07010830 	.word	0x07010830
241092e4:	07010434 	.word	0x07010434
241092e8:	07010430 	.word	0x07010430
241092ec:	07010030 	.word	0x07010030
241092f0:	07001430 	.word	0x07001430
241092f4:	07000830 	.word	0x07000830
241092f8:	07000434 	.word	0x07000434
241092fc:	07000030 	.word	0x07000030
24109300:	07000430 	.word	0x07000430
            usart_frequency = HAL_RCCEx_GetPLL2CLKFreq();
24109304:	f7fc fdc2 	bl	24105e8c <HAL_RCCEx_GetPLL2CLKFreq>
24109308:	60f8      	str	r0, [r7, #12]
            usart_frequency = usart_frequency / ic_divider;
2410930a:	68fa      	ldr	r2, [r7, #12]
2410930c:	68bb      	ldr	r3, [r7, #8]
2410930e:	fbb2 f3f3 	udiv	r3, r2, r3
24109312:	60fb      	str	r3, [r7, #12]
            break;
24109314:	e012      	b.n	2410933c <RCCEx_GetUSARTCLKFreq+0x364>
            usart_frequency = HAL_RCCEx_GetPLL3CLKFreq();
24109316:	f7fc fdff 	bl	24105f18 <HAL_RCCEx_GetPLL3CLKFreq>
2410931a:	60f8      	str	r0, [r7, #12]
            usart_frequency = usart_frequency / ic_divider;
2410931c:	68fa      	ldr	r2, [r7, #12]
2410931e:	68bb      	ldr	r3, [r7, #8]
24109320:	fbb2 f3f3 	udiv	r3, r2, r3
24109324:	60fb      	str	r3, [r7, #12]
            break;
24109326:	e009      	b.n	2410933c <RCCEx_GetUSARTCLKFreq+0x364>
            usart_frequency = HAL_RCCEx_GetPLL4CLKFreq();
24109328:	f7fc fe3c 	bl	24105fa4 <HAL_RCCEx_GetPLL4CLKFreq>
2410932c:	60f8      	str	r0, [r7, #12]
            usart_frequency = usart_frequency / ic_divider;
2410932e:	68fa      	ldr	r2, [r7, #12]
24109330:	68bb      	ldr	r3, [r7, #8]
24109332:	fbb2 f3f3 	udiv	r3, r2, r3
24109336:	60fb      	str	r3, [r7, #12]
            break;
24109338:	e000      	b.n	2410933c <RCCEx_GetUSARTCLKFreq+0x364>
            break;
2410933a:	bf00      	nop
      break;
2410933c:	e063      	b.n	24109406 <RCCEx_GetUSARTCLKFreq+0x42e>
      if (LL_RCC_IC14_IsEnabled() != 0U)
2410933e:	f7f9 fc0b 	bl	24102b58 <LL_RCC_IC14_IsEnabled>
24109342:	4603      	mov	r3, r0
24109344:	2b00      	cmp	r3, #0
24109346:	d060      	beq.n	2410940a <RCCEx_GetUSARTCLKFreq+0x432>
        ic_divider = LL_RCC_IC14_GetDivider();
24109348:	f7f9 fc28 	bl	24102b9c <LL_RCC_IC14_GetDivider>
2410934c:	60b8      	str	r0, [r7, #8]
        switch (LL_RCC_IC14_GetSource())
2410934e:	f7f9 fc17 	bl	24102b80 <LL_RCC_IC14_GetSource>
24109352:	4603      	mov	r3, r0
24109354:	f1b3 5f40 	cmp.w	r3, #805306368	@ 0x30000000
24109358:	d029      	beq.n	241093ae <RCCEx_GetUSARTCLKFreq+0x3d6>
2410935a:	f1b3 5f40 	cmp.w	r3, #805306368	@ 0x30000000
2410935e:	d82f      	bhi.n	241093c0 <RCCEx_GetUSARTCLKFreq+0x3e8>
24109360:	f1b3 5f00 	cmp.w	r3, #536870912	@ 0x20000000
24109364:	d01a      	beq.n	2410939c <RCCEx_GetUSARTCLKFreq+0x3c4>
24109366:	f1b3 5f00 	cmp.w	r3, #536870912	@ 0x20000000
2410936a:	d829      	bhi.n	241093c0 <RCCEx_GetUSARTCLKFreq+0x3e8>
2410936c:	2b00      	cmp	r3, #0
2410936e:	d003      	beq.n	24109378 <RCCEx_GetUSARTCLKFreq+0x3a0>
24109370:	f1b3 5f80 	cmp.w	r3, #268435456	@ 0x10000000
24109374:	d009      	beq.n	2410938a <RCCEx_GetUSARTCLKFreq+0x3b2>
            break;
24109376:	e023      	b.n	241093c0 <RCCEx_GetUSARTCLKFreq+0x3e8>
            usart_frequency = HAL_RCCEx_GetPLL1CLKFreq();
24109378:	f7fc fd42 	bl	24105e00 <HAL_RCCEx_GetPLL1CLKFreq>
2410937c:	60f8      	str	r0, [r7, #12]
            usart_frequency = usart_frequency / ic_divider;
2410937e:	68fa      	ldr	r2, [r7, #12]
24109380:	68bb      	ldr	r3, [r7, #8]
24109382:	fbb2 f3f3 	udiv	r3, r2, r3
24109386:	60fb      	str	r3, [r7, #12]
            break;
24109388:	e01b      	b.n	241093c2 <RCCEx_GetUSARTCLKFreq+0x3ea>
            usart_frequency = HAL_RCCEx_GetPLL2CLKFreq();
2410938a:	f7fc fd7f 	bl	24105e8c <HAL_RCCEx_GetPLL2CLKFreq>
2410938e:	60f8      	str	r0, [r7, #12]
            usart_frequency = usart_frequency / ic_divider;
24109390:	68fa      	ldr	r2, [r7, #12]
24109392:	68bb      	ldr	r3, [r7, #8]
24109394:	fbb2 f3f3 	udiv	r3, r2, r3
24109398:	60fb      	str	r3, [r7, #12]
            break;
2410939a:	e012      	b.n	241093c2 <RCCEx_GetUSARTCLKFreq+0x3ea>
            usart_frequency = HAL_RCCEx_GetPLL3CLKFreq();
2410939c:	f7fc fdbc 	bl	24105f18 <HAL_RCCEx_GetPLL3CLKFreq>
241093a0:	60f8      	str	r0, [r7, #12]
            usart_frequency = usart_frequency / ic_divider;
241093a2:	68fa      	ldr	r2, [r7, #12]
241093a4:	68bb      	ldr	r3, [r7, #8]
241093a6:	fbb2 f3f3 	udiv	r3, r2, r3
241093aa:	60fb      	str	r3, [r7, #12]
            break;
241093ac:	e009      	b.n	241093c2 <RCCEx_GetUSARTCLKFreq+0x3ea>
            usart_frequency = HAL_RCCEx_GetPLL4CLKFreq();
241093ae:	f7fc fdf9 	bl	24105fa4 <HAL_RCCEx_GetPLL4CLKFreq>
241093b2:	60f8      	str	r0, [r7, #12]
            usart_frequency = usart_frequency / ic_divider;
241093b4:	68fa      	ldr	r2, [r7, #12]
241093b6:	68bb      	ldr	r3, [r7, #8]
241093b8:	fbb2 f3f3 	udiv	r3, r2, r3
241093bc:	60fb      	str	r3, [r7, #12]
            break;
241093be:	e000      	b.n	241093c2 <RCCEx_GetUSARTCLKFreq+0x3ea>
            break;
241093c0:	bf00      	nop
      break;
241093c2:	e022      	b.n	2410940a <RCCEx_GetUSARTCLKFreq+0x432>
      if (LL_RCC_HSI_IsReady() != 0U)
241093c4:	f7f8 faa4 	bl	24101910 <LL_RCC_HSI_IsReady>
241093c8:	4603      	mov	r3, r0
241093ca:	2b00      	cmp	r3, #0
241093cc:	d01f      	beq.n	2410940e <RCCEx_GetUSARTCLKFreq+0x436>
        usart_frequency = HSI_VALUE >> (LL_RCC_HSI_GetDivider() >> RCC_HSICFGR_HSIDIV_Pos);
241093ce:	f7f8 fab1 	bl	24101934 <LL_RCC_HSI_GetDivider>
241093d2:	4603      	mov	r3, r0
241093d4:	09db      	lsrs	r3, r3, #7
241093d6:	4a13      	ldr	r2, [pc, #76]	@ (24109424 <RCCEx_GetUSARTCLKFreq+0x44c>)
241093d8:	fa22 f303 	lsr.w	r3, r2, r3
241093dc:	60fb      	str	r3, [r7, #12]
      break;
241093de:	e016      	b.n	2410940e <RCCEx_GetUSARTCLKFreq+0x436>
      if (LL_RCC_MSI_IsReady() != 0U)
241093e0:	f7f8 fab6 	bl	24101950 <LL_RCC_MSI_IsReady>
241093e4:	4603      	mov	r3, r0
241093e6:	2b00      	cmp	r3, #0
241093e8:	d013      	beq.n	24109412 <RCCEx_GetUSARTCLKFreq+0x43a>
        usart_frequency = MSI_VALUE;
241093ea:	4b0f      	ldr	r3, [pc, #60]	@ (24109428 <RCCEx_GetUSARTCLKFreq+0x450>)
241093ec:	60fb      	str	r3, [r7, #12]
      break;
241093ee:	e010      	b.n	24109412 <RCCEx_GetUSARTCLKFreq+0x43a>
      if (LL_RCC_LSE_IsReady() != 0U)
241093f0:	f7f8 face 	bl	24101990 <LL_RCC_LSE_IsReady>
241093f4:	4603      	mov	r3, r0
241093f6:	2b00      	cmp	r3, #0
241093f8:	d00d      	beq.n	24109416 <RCCEx_GetUSARTCLKFreq+0x43e>
        usart_frequency = LSE_VALUE;
241093fa:	f44f 4300 	mov.w	r3, #32768	@ 0x8000
241093fe:	60fb      	str	r3, [r7, #12]
      break;
24109400:	e009      	b.n	24109416 <RCCEx_GetUSARTCLKFreq+0x43e>
      break;
24109402:	bf00      	nop
24109404:	e008      	b.n	24109418 <RCCEx_GetUSARTCLKFreq+0x440>
      break;
24109406:	bf00      	nop
24109408:	e006      	b.n	24109418 <RCCEx_GetUSARTCLKFreq+0x440>
      break;
2410940a:	bf00      	nop
2410940c:	e004      	b.n	24109418 <RCCEx_GetUSARTCLKFreq+0x440>
      break;
2410940e:	bf00      	nop
24109410:	e002      	b.n	24109418 <RCCEx_GetUSARTCLKFreq+0x440>
      break;
24109412:	bf00      	nop
24109414:	e000      	b.n	24109418 <RCCEx_GetUSARTCLKFreq+0x440>
      break;
24109416:	bf00      	nop
  }

  return usart_frequency;
24109418:	68fb      	ldr	r3, [r7, #12]
}
2410941a:	4618      	mov	r0, r3
2410941c:	3710      	adds	r7, #16
2410941e:	46bd      	mov	sp, r7
24109420:	bd80      	pop	{r7, pc}
24109422:	bf00      	nop
24109424:	03d09000 	.word	0x03d09000
24109428:	003d0900 	.word	0x003d0900

2410942c <RCCEx_GetOTGPHYCLKFreq>:
  *         @arg @ref RCCEx_USB_OTGHS2_Clock_Source
  * @retval OTGPHY clock frequency (in Hz)
  *         - @ref  RCC_PERIPH_FREQUENCY_NO indicates that oscillator is not ready or Disabled
  */
static uint32_t RCCEx_GetOTGPHYCLKFreq(uint32_t OTGPHYxSource)
{
2410942c:	b580      	push	{r7, lr}
2410942e:	b084      	sub	sp, #16
24109430:	af00      	add	r7, sp, #0
24109432:	6078      	str	r0, [r7, #4]
  uint32_t usb_frequency = RCC_PERIPH_FREQUENCY_NO;
24109434:	2300      	movs	r3, #0
24109436:	60fb      	str	r3, [r7, #12]

  switch (LL_RCC_GetUSBClockSource(OTGPHYxSource))
24109438:	6878      	ldr	r0, [r7, #4]
2410943a:	f7f8 fe69 	bl	24102110 <LL_RCC_GetUSBClockSource>
2410943e:	4603      	mov	r3, r0
24109440:	4a4b      	ldr	r2, [pc, #300]	@ (24109570 <RCCEx_GetOTGPHYCLKFreq+0x144>)
24109442:	4293      	cmp	r3, r2
24109444:	d035      	beq.n	241094b2 <RCCEx_GetOTGPHYCLKFreq+0x86>
24109446:	4a4a      	ldr	r2, [pc, #296]	@ (24109570 <RCCEx_GetOTGPHYCLKFreq+0x144>)
24109448:	4293      	cmp	r3, r2
2410944a:	f200 8085 	bhi.w	24109558 <RCCEx_GetOTGPHYCLKFreq+0x12c>
2410944e:	4a49      	ldr	r2, [pc, #292]	@ (24109574 <RCCEx_GetOTGPHYCLKFreq+0x148>)
24109450:	4293      	cmp	r3, r2
24109452:	d02e      	beq.n	241094b2 <RCCEx_GetOTGPHYCLKFreq+0x86>
24109454:	4a47      	ldr	r2, [pc, #284]	@ (24109574 <RCCEx_GetOTGPHYCLKFreq+0x148>)
24109456:	4293      	cmp	r3, r2
24109458:	d87e      	bhi.n	24109558 <RCCEx_GetOTGPHYCLKFreq+0x12c>
2410945a:	4a47      	ldr	r2, [pc, #284]	@ (24109578 <RCCEx_GetOTGPHYCLKFreq+0x14c>)
2410945c:	4293      	cmp	r3, r2
2410945e:	d038      	beq.n	241094d2 <RCCEx_GetOTGPHYCLKFreq+0xa6>
24109460:	4a45      	ldr	r2, [pc, #276]	@ (24109578 <RCCEx_GetOTGPHYCLKFreq+0x14c>)
24109462:	4293      	cmp	r3, r2
24109464:	d878      	bhi.n	24109558 <RCCEx_GetOTGPHYCLKFreq+0x12c>
24109466:	4a45      	ldr	r2, [pc, #276]	@ (2410957c <RCCEx_GetOTGPHYCLKFreq+0x150>)
24109468:	4293      	cmp	r3, r2
2410946a:	d032      	beq.n	241094d2 <RCCEx_GetOTGPHYCLKFreq+0xa6>
2410946c:	4a43      	ldr	r2, [pc, #268]	@ (2410957c <RCCEx_GetOTGPHYCLKFreq+0x150>)
2410946e:	4293      	cmp	r3, r2
24109470:	d872      	bhi.n	24109558 <RCCEx_GetOTGPHYCLKFreq+0x12c>
24109472:	4a43      	ldr	r2, [pc, #268]	@ (24109580 <RCCEx_GetOTGPHYCLKFreq+0x154>)
24109474:	4293      	cmp	r3, r2
24109476:	d00f      	beq.n	24109498 <RCCEx_GetOTGPHYCLKFreq+0x6c>
24109478:	4a41      	ldr	r2, [pc, #260]	@ (24109580 <RCCEx_GetOTGPHYCLKFreq+0x154>)
2410947a:	4293      	cmp	r3, r2
2410947c:	d86c      	bhi.n	24109558 <RCCEx_GetOTGPHYCLKFreq+0x12c>
2410947e:	4a41      	ldr	r2, [pc, #260]	@ (24109584 <RCCEx_GetOTGPHYCLKFreq+0x158>)
24109480:	4293      	cmp	r3, r2
24109482:	d009      	beq.n	24109498 <RCCEx_GetOTGPHYCLKFreq+0x6c>
24109484:	4a3f      	ldr	r2, [pc, #252]	@ (24109584 <RCCEx_GetOTGPHYCLKFreq+0x158>)
24109486:	4293      	cmp	r3, r2
24109488:	d866      	bhi.n	24109558 <RCCEx_GetOTGPHYCLKFreq+0x12c>
2410948a:	4a3f      	ldr	r2, [pc, #252]	@ (24109588 <RCCEx_GetOTGPHYCLKFreq+0x15c>)
2410948c:	4293      	cmp	r3, r2
2410948e:	d008      	beq.n	241094a2 <RCCEx_GetOTGPHYCLKFreq+0x76>
24109490:	4a3e      	ldr	r2, [pc, #248]	@ (2410958c <RCCEx_GetOTGPHYCLKFreq+0x160>)
24109492:	4293      	cmp	r3, r2
24109494:	d005      	beq.n	241094a2 <RCCEx_GetOTGPHYCLKFreq+0x76>
      }
      break;

    default:
      /* Unexpected case */
      break;
24109496:	e05f      	b.n	24109558 <RCCEx_GetOTGPHYCLKFreq+0x12c>
      usb_frequency = RCCEx_GetCLKPCLKFreq(LL_RCC_CLKP_CLKSOURCE);
24109498:	2007      	movs	r0, #7
2410949a:	f7fd f8b5 	bl	24106608 <RCCEx_GetCLKPCLKFreq>
2410949e:	60f8      	str	r0, [r7, #12]
      break;
241094a0:	e061      	b.n	24109566 <RCCEx_GetOTGPHYCLKFreq+0x13a>
      if (LL_RCC_HSE_IsReady() != 0U)
241094a2:	f7f8 fa23 	bl	241018ec <LL_RCC_HSE_IsReady>
241094a6:	4603      	mov	r3, r0
241094a8:	2b00      	cmp	r3, #0
241094aa:	d057      	beq.n	2410955c <RCCEx_GetOTGPHYCLKFreq+0x130>
        usb_frequency = HSE_VALUE / 2U;
241094ac:	4b38      	ldr	r3, [pc, #224]	@ (24109590 <RCCEx_GetOTGPHYCLKFreq+0x164>)
241094ae:	60fb      	str	r3, [r7, #12]
      break;
241094b0:	e054      	b.n	2410955c <RCCEx_GetOTGPHYCLKFreq+0x130>
      if (LL_RCC_HSE_IsReady() != 0U)
241094b2:	f7f8 fa1b 	bl	241018ec <LL_RCC_HSE_IsReady>
241094b6:	4603      	mov	r3, r0
241094b8:	2b00      	cmp	r3, #0
241094ba:	d051      	beq.n	24109560 <RCCEx_GetOTGPHYCLKFreq+0x134>
        if (LL_RCC_HSE_IsSelectedHSEDiv2AsDiv2Clock() == 0UL)
241094bc:	f7f8 fa04 	bl	241018c8 <LL_RCC_HSE_IsSelectedHSEDiv2AsDiv2Clock>
241094c0:	4603      	mov	r3, r0
241094c2:	2b00      	cmp	r3, #0
241094c4:	d102      	bne.n	241094cc <RCCEx_GetOTGPHYCLKFreq+0xa0>
          usb_frequency = HSE_VALUE;
241094c6:	4b33      	ldr	r3, [pc, #204]	@ (24109594 <RCCEx_GetOTGPHYCLKFreq+0x168>)
241094c8:	60fb      	str	r3, [r7, #12]
      break;
241094ca:	e049      	b.n	24109560 <RCCEx_GetOTGPHYCLKFreq+0x134>
          usb_frequency = HSE_VALUE / 2U;
241094cc:	4b30      	ldr	r3, [pc, #192]	@ (24109590 <RCCEx_GetOTGPHYCLKFreq+0x164>)
241094ce:	60fb      	str	r3, [r7, #12]
      break;
241094d0:	e046      	b.n	24109560 <RCCEx_GetOTGPHYCLKFreq+0x134>
      if (LL_RCC_IC15_IsEnabled() != 0U)
241094d2:	f7f9 fb81 	bl	24102bd8 <LL_RCC_IC15_IsEnabled>
241094d6:	4603      	mov	r3, r0
241094d8:	2b00      	cmp	r3, #0
241094da:	d043      	beq.n	24109564 <RCCEx_GetOTGPHYCLKFreq+0x138>
        uint32_t ic_divider = LL_RCC_IC15_GetDivider();
241094dc:	f7f9 fb9e 	bl	24102c1c <LL_RCC_IC15_GetDivider>
241094e0:	60b8      	str	r0, [r7, #8]
        switch (LL_RCC_IC15_GetSource())
241094e2:	f7f9 fb8d 	bl	24102c00 <LL_RCC_IC15_GetSource>
241094e6:	4603      	mov	r3, r0
241094e8:	f1b3 5f40 	cmp.w	r3, #805306368	@ 0x30000000
241094ec:	d029      	beq.n	24109542 <RCCEx_GetOTGPHYCLKFreq+0x116>
241094ee:	f1b3 5f40 	cmp.w	r3, #805306368	@ 0x30000000
241094f2:	d82f      	bhi.n	24109554 <RCCEx_GetOTGPHYCLKFreq+0x128>
241094f4:	f1b3 5f00 	cmp.w	r3, #536870912	@ 0x20000000
241094f8:	d01a      	beq.n	24109530 <RCCEx_GetOTGPHYCLKFreq+0x104>
241094fa:	f1b3 5f00 	cmp.w	r3, #536870912	@ 0x20000000
241094fe:	d829      	bhi.n	24109554 <RCCEx_GetOTGPHYCLKFreq+0x128>
24109500:	2b00      	cmp	r3, #0
24109502:	d003      	beq.n	2410950c <RCCEx_GetOTGPHYCLKFreq+0xe0>
24109504:	f1b3 5f80 	cmp.w	r3, #268435456	@ 0x10000000
24109508:	d009      	beq.n	2410951e <RCCEx_GetOTGPHYCLKFreq+0xf2>
            break;
2410950a:	e023      	b.n	24109554 <RCCEx_GetOTGPHYCLKFreq+0x128>
            usb_frequency = HAL_RCCEx_GetPLL1CLKFreq();
2410950c:	f7fc fc78 	bl	24105e00 <HAL_RCCEx_GetPLL1CLKFreq>
24109510:	60f8      	str	r0, [r7, #12]
            usb_frequency = usb_frequency / ic_divider;
24109512:	68fa      	ldr	r2, [r7, #12]
24109514:	68bb      	ldr	r3, [r7, #8]
24109516:	fbb2 f3f3 	udiv	r3, r2, r3
2410951a:	60fb      	str	r3, [r7, #12]
            break;
2410951c:	e01b      	b.n	24109556 <RCCEx_GetOTGPHYCLKFreq+0x12a>
            usb_frequency = HAL_RCCEx_GetPLL2CLKFreq();
2410951e:	f7fc fcb5 	bl	24105e8c <HAL_RCCEx_GetPLL2CLKFreq>
24109522:	60f8      	str	r0, [r7, #12]
            usb_frequency = usb_frequency / ic_divider;
24109524:	68fa      	ldr	r2, [r7, #12]
24109526:	68bb      	ldr	r3, [r7, #8]
24109528:	fbb2 f3f3 	udiv	r3, r2, r3
2410952c:	60fb      	str	r3, [r7, #12]
            break;
2410952e:	e012      	b.n	24109556 <RCCEx_GetOTGPHYCLKFreq+0x12a>
            usb_frequency = HAL_RCCEx_GetPLL3CLKFreq();
24109530:	f7fc fcf2 	bl	24105f18 <HAL_RCCEx_GetPLL3CLKFreq>
24109534:	60f8      	str	r0, [r7, #12]
            usb_frequency = usb_frequency / ic_divider;
24109536:	68fa      	ldr	r2, [r7, #12]
24109538:	68bb      	ldr	r3, [r7, #8]
2410953a:	fbb2 f3f3 	udiv	r3, r2, r3
2410953e:	60fb      	str	r3, [r7, #12]
            break;
24109540:	e009      	b.n	24109556 <RCCEx_GetOTGPHYCLKFreq+0x12a>
            usb_frequency = HAL_RCCEx_GetPLL4CLKFreq();
24109542:	f7fc fd2f 	bl	24105fa4 <HAL_RCCEx_GetPLL4CLKFreq>
24109546:	60f8      	str	r0, [r7, #12]
            usb_frequency = usb_frequency / ic_divider;
24109548:	68fa      	ldr	r2, [r7, #12]
2410954a:	68bb      	ldr	r3, [r7, #8]
2410954c:	fbb2 f3f3 	udiv	r3, r2, r3
24109550:	60fb      	str	r3, [r7, #12]
            break;
24109552:	e000      	b.n	24109556 <RCCEx_GetOTGPHYCLKFreq+0x12a>
            break;
24109554:	bf00      	nop
      break;
24109556:	e005      	b.n	24109564 <RCCEx_GetOTGPHYCLKFreq+0x138>
      break;
24109558:	bf00      	nop
2410955a:	e004      	b.n	24109566 <RCCEx_GetOTGPHYCLKFreq+0x13a>
      break;
2410955c:	bf00      	nop
2410955e:	e002      	b.n	24109566 <RCCEx_GetOTGPHYCLKFreq+0x13a>
      break;
24109560:	bf00      	nop
24109562:	e000      	b.n	24109566 <RCCEx_GetOTGPHYCLKFreq+0x13a>
      break;
24109564:	bf00      	nop
  }

  return usb_frequency;
24109566:	68fb      	ldr	r3, [r7, #12]
}
24109568:	4618      	mov	r0, r3
2410956a:	3710      	adds	r7, #16
2410956c:	46bd      	mov	sp, r7
2410956e:	bd80      	pop	{r7, pc}
24109570:	03031414 	.word	0x03031414
24109574:	03030c14 	.word	0x03030c14
24109578:	03021414 	.word	0x03021414
2410957c:	03020c14 	.word	0x03020c14
24109580:	03011414 	.word	0x03011414
24109584:	03010c14 	.word	0x03010c14
24109588:	03000c14 	.word	0x03000c14
2410958c:	03001414 	.word	0x03001414
24109590:	00b71b00 	.word	0x00b71b00
24109594:	016e3600 	.word	0x016e3600

24109598 <RCCEx_GetOTGPHYCKREFCLKFreq>:
  *         @arg @ref RCCEx_USBPHY2_Clock_Source
  * @retval OTGPHYCKREF clock frequency (in Hz)
  *         - @ref  RCC_PERIPH_FREQUENCY_NO indicates that oscillator is not ready or Disabled
  */
static uint32_t RCCEx_GetOTGPHYCKREFCLKFreq(uint32_t OTGPHYxCKREFSource)
{
24109598:	b580      	push	{r7, lr}
2410959a:	b084      	sub	sp, #16
2410959c:	af00      	add	r7, sp, #0
2410959e:	6078      	str	r0, [r7, #4]
  uint32_t usb_frequency = RCC_PERIPH_FREQUENCY_NO;
241095a0:	2300      	movs	r3, #0
241095a2:	60fb      	str	r3, [r7, #12]

  switch (LL_RCC_GetUSBClockSource(OTGPHYxCKREFSource))
241095a4:	6878      	ldr	r0, [r7, #4]
241095a6:	f7f8 fdb3 	bl	24102110 <LL_RCC_GetUSBClockSource>
241095aa:	4603      	mov	r3, r0
241095ac:	4a1a      	ldr	r2, [pc, #104]	@ (24109618 <RCCEx_GetOTGPHYCKREFCLKFreq+0x80>)
241095ae:	4293      	cmp	r3, r2
241095b0:	d00f      	beq.n	241095d2 <RCCEx_GetOTGPHYCKREFCLKFreq+0x3a>
241095b2:	4a19      	ldr	r2, [pc, #100]	@ (24109618 <RCCEx_GetOTGPHYCKREFCLKFreq+0x80>)
241095b4:	4293      	cmp	r3, r2
241095b6:	d826      	bhi.n	24109606 <RCCEx_GetOTGPHYCKREFCLKFreq+0x6e>
241095b8:	4a18      	ldr	r2, [pc, #96]	@ (2410961c <RCCEx_GetOTGPHYCKREFCLKFreq+0x84>)
241095ba:	4293      	cmp	r3, r2
241095bc:	d009      	beq.n	241095d2 <RCCEx_GetOTGPHYCKREFCLKFreq+0x3a>
241095be:	4a17      	ldr	r2, [pc, #92]	@ (2410961c <RCCEx_GetOTGPHYCKREFCLKFreq+0x84>)
241095c0:	4293      	cmp	r3, r2
241095c2:	d820      	bhi.n	24109606 <RCCEx_GetOTGPHYCKREFCLKFreq+0x6e>
241095c4:	4a16      	ldr	r2, [pc, #88]	@ (24109620 <RCCEx_GetOTGPHYCKREFCLKFreq+0x88>)
241095c6:	4293      	cmp	r3, r2
241095c8:	d013      	beq.n	241095f2 <RCCEx_GetOTGPHYCKREFCLKFreq+0x5a>
241095ca:	4a16      	ldr	r2, [pc, #88]	@ (24109624 <RCCEx_GetOTGPHYCKREFCLKFreq+0x8c>)
241095cc:	4293      	cmp	r3, r2
241095ce:	d015      	beq.n	241095fc <RCCEx_GetOTGPHYCKREFCLKFreq+0x64>
      usb_frequency = RCCEx_GetOTGPHYCLKFreq(LL_RCC_OTGPHY2_CLKSOURCE);
      break;

    default:
      /* Unexpected case */
      break;
241095d0:	e019      	b.n	24109606 <RCCEx_GetOTGPHYCKREFCLKFreq+0x6e>
      if (LL_RCC_HSE_IsReady() != 0U)
241095d2:	f7f8 f98b 	bl	241018ec <LL_RCC_HSE_IsReady>
241095d6:	4603      	mov	r3, r0
241095d8:	2b00      	cmp	r3, #0
241095da:	d016      	beq.n	2410960a <RCCEx_GetOTGPHYCKREFCLKFreq+0x72>
        if (LL_RCC_HSE_IsSelectedHSEDiv2AsDiv2Clock() == 0UL)
241095dc:	f7f8 f974 	bl	241018c8 <LL_RCC_HSE_IsSelectedHSEDiv2AsDiv2Clock>
241095e0:	4603      	mov	r3, r0
241095e2:	2b00      	cmp	r3, #0
241095e4:	d102      	bne.n	241095ec <RCCEx_GetOTGPHYCKREFCLKFreq+0x54>
          usb_frequency = HSE_VALUE;
241095e6:	4b10      	ldr	r3, [pc, #64]	@ (24109628 <RCCEx_GetOTGPHYCKREFCLKFreq+0x90>)
241095e8:	60fb      	str	r3, [r7, #12]
      break;
241095ea:	e00e      	b.n	2410960a <RCCEx_GetOTGPHYCKREFCLKFreq+0x72>
          usb_frequency = HSE_VALUE / 2U;
241095ec:	4b0f      	ldr	r3, [pc, #60]	@ (2410962c <RCCEx_GetOTGPHYCKREFCLKFreq+0x94>)
241095ee:	60fb      	str	r3, [r7, #12]
      break;
241095f0:	e00b      	b.n	2410960a <RCCEx_GetOTGPHYCKREFCLKFreq+0x72>
      usb_frequency = RCCEx_GetOTGPHYCLKFreq(LL_RCC_OTGPHY1_CLKSOURCE);
241095f2:	480f      	ldr	r0, [pc, #60]	@ (24109630 <RCCEx_GetOTGPHYCKREFCLKFreq+0x98>)
241095f4:	f7ff ff1a 	bl	2410942c <RCCEx_GetOTGPHYCLKFreq>
241095f8:	60f8      	str	r0, [r7, #12]
      break;
241095fa:	e007      	b.n	2410960c <RCCEx_GetOTGPHYCKREFCLKFreq+0x74>
      usb_frequency = RCCEx_GetOTGPHYCLKFreq(LL_RCC_OTGPHY2_CLKSOURCE);
241095fc:	480d      	ldr	r0, [pc, #52]	@ (24109634 <RCCEx_GetOTGPHYCKREFCLKFreq+0x9c>)
241095fe:	f7ff ff15 	bl	2410942c <RCCEx_GetOTGPHYCLKFreq>
24109602:	60f8      	str	r0, [r7, #12]
      break;
24109604:	e002      	b.n	2410960c <RCCEx_GetOTGPHYCKREFCLKFreq+0x74>
      break;
24109606:	bf00      	nop
24109608:	e000      	b.n	2410960c <RCCEx_GetOTGPHYCKREFCLKFreq+0x74>
      break;
2410960a:	bf00      	nop
  }

  return usb_frequency;
2410960c:	68fb      	ldr	r3, [r7, #12]
}
2410960e:	4618      	mov	r0, r3
24109610:	3710      	adds	r7, #16
24109612:	46bd      	mov	sp, r7
24109614:	bd80      	pop	{r7, pc}
24109616:	bf00      	nop
24109618:	01011814 	.word	0x01011814
2410961c:	01011014 	.word	0x01011014
24109620:	01001014 	.word	0x01001014
24109624:	01001814 	.word	0x01001814
24109628:	016e3600 	.word	0x016e3600
2410962c:	00b71b00 	.word	0x00b71b00
24109630:	03000c14 	.word	0x03000c14
24109634:	03001414 	.word	0x03001414

24109638 <RCCEx_GetXSPICLKFreq>:
  * @retval XSPI clock frequency (in Hz)
  *         - @ref  RCC_PERIPH_FREQUENCY_NO indicates that oscillator is not ready
  */

static uint32_t RCCEx_GetXSPICLKFreq(uint32_t XSPIxSource)
{
24109638:	b580      	push	{r7, lr}
2410963a:	b084      	sub	sp, #16
2410963c:	af00      	add	r7, sp, #0
2410963e:	6078      	str	r0, [r7, #4]
  uint32_t xspi_frequency = RCC_PERIPH_FREQUENCY_NO;
24109640:	2300      	movs	r3, #0
24109642:	60fb      	str	r3, [r7, #12]
  uint32_t ic_divider;

  switch (LL_RCC_GetXSPIClockSource(XSPIxSource))
24109644:	6878      	ldr	r0, [r7, #4]
24109646:	f7f8 fd6f 	bl	24102128 <LL_RCC_GetXSPIClockSource>
2410964a:	4603      	mov	r3, r0
2410964c:	4a76      	ldr	r2, [pc, #472]	@ (24109828 <RCCEx_GetXSPICLKFreq+0x1f0>)
2410964e:	4293      	cmp	r3, r2
24109650:	f000 809d 	beq.w	2410978e <RCCEx_GetXSPICLKFreq+0x156>
24109654:	4a74      	ldr	r2, [pc, #464]	@ (24109828 <RCCEx_GetXSPICLKFreq+0x1f0>)
24109656:	4293      	cmp	r3, r2
24109658:	f200 80dc 	bhi.w	24109814 <RCCEx_GetXSPICLKFreq+0x1dc>
2410965c:	4a73      	ldr	r2, [pc, #460]	@ (2410982c <RCCEx_GetXSPICLKFreq+0x1f4>)
2410965e:	4293      	cmp	r3, r2
24109660:	f000 8095 	beq.w	2410978e <RCCEx_GetXSPICLKFreq+0x156>
24109664:	4a71      	ldr	r2, [pc, #452]	@ (2410982c <RCCEx_GetXSPICLKFreq+0x1f4>)
24109666:	4293      	cmp	r3, r2
24109668:	f200 80d4 	bhi.w	24109814 <RCCEx_GetXSPICLKFreq+0x1dc>
2410966c:	4a70      	ldr	r2, [pc, #448]	@ (24109830 <RCCEx_GetXSPICLKFreq+0x1f8>)
2410966e:	4293      	cmp	r3, r2
24109670:	f000 808d 	beq.w	2410978e <RCCEx_GetXSPICLKFreq+0x156>
24109674:	4a6e      	ldr	r2, [pc, #440]	@ (24109830 <RCCEx_GetXSPICLKFreq+0x1f8>)
24109676:	4293      	cmp	r3, r2
24109678:	f200 80cc 	bhi.w	24109814 <RCCEx_GetXSPICLKFreq+0x1dc>
2410967c:	4a6d      	ldr	r2, [pc, #436]	@ (24109834 <RCCEx_GetXSPICLKFreq+0x1fc>)
2410967e:	4293      	cmp	r3, r2
24109680:	d041      	beq.n	24109706 <RCCEx_GetXSPICLKFreq+0xce>
24109682:	4a6c      	ldr	r2, [pc, #432]	@ (24109834 <RCCEx_GetXSPICLKFreq+0x1fc>)
24109684:	4293      	cmp	r3, r2
24109686:	f200 80c5 	bhi.w	24109814 <RCCEx_GetXSPICLKFreq+0x1dc>
2410968a:	4a6b      	ldr	r2, [pc, #428]	@ (24109838 <RCCEx_GetXSPICLKFreq+0x200>)
2410968c:	4293      	cmp	r3, r2
2410968e:	d03a      	beq.n	24109706 <RCCEx_GetXSPICLKFreq+0xce>
24109690:	4a69      	ldr	r2, [pc, #420]	@ (24109838 <RCCEx_GetXSPICLKFreq+0x200>)
24109692:	4293      	cmp	r3, r2
24109694:	f200 80be 	bhi.w	24109814 <RCCEx_GetXSPICLKFreq+0x1dc>
24109698:	4a68      	ldr	r2, [pc, #416]	@ (2410983c <RCCEx_GetXSPICLKFreq+0x204>)
2410969a:	4293      	cmp	r3, r2
2410969c:	d033      	beq.n	24109706 <RCCEx_GetXSPICLKFreq+0xce>
2410969e:	4a67      	ldr	r2, [pc, #412]	@ (2410983c <RCCEx_GetXSPICLKFreq+0x204>)
241096a0:	4293      	cmp	r3, r2
241096a2:	f200 80b7 	bhi.w	24109814 <RCCEx_GetXSPICLKFreq+0x1dc>
241096a6:	4a66      	ldr	r2, [pc, #408]	@ (24109840 <RCCEx_GetXSPICLKFreq+0x208>)
241096a8:	4293      	cmp	r3, r2
241096aa:	d027      	beq.n	241096fc <RCCEx_GetXSPICLKFreq+0xc4>
241096ac:	4a64      	ldr	r2, [pc, #400]	@ (24109840 <RCCEx_GetXSPICLKFreq+0x208>)
241096ae:	4293      	cmp	r3, r2
241096b0:	f200 80b0 	bhi.w	24109814 <RCCEx_GetXSPICLKFreq+0x1dc>
241096b4:	4a63      	ldr	r2, [pc, #396]	@ (24109844 <RCCEx_GetXSPICLKFreq+0x20c>)
241096b6:	4293      	cmp	r3, r2
241096b8:	d020      	beq.n	241096fc <RCCEx_GetXSPICLKFreq+0xc4>
241096ba:	4a62      	ldr	r2, [pc, #392]	@ (24109844 <RCCEx_GetXSPICLKFreq+0x20c>)
241096bc:	4293      	cmp	r3, r2
241096be:	f200 80a9 	bhi.w	24109814 <RCCEx_GetXSPICLKFreq+0x1dc>
241096c2:	4a61      	ldr	r2, [pc, #388]	@ (24109848 <RCCEx_GetXSPICLKFreq+0x210>)
241096c4:	4293      	cmp	r3, r2
241096c6:	d019      	beq.n	241096fc <RCCEx_GetXSPICLKFreq+0xc4>
241096c8:	4a5f      	ldr	r2, [pc, #380]	@ (24109848 <RCCEx_GetXSPICLKFreq+0x210>)
241096ca:	4293      	cmp	r3, r2
241096cc:	f200 80a2 	bhi.w	24109814 <RCCEx_GetXSPICLKFreq+0x1dc>
241096d0:	4a5e      	ldr	r2, [pc, #376]	@ (2410984c <RCCEx_GetXSPICLKFreq+0x214>)
241096d2:	4293      	cmp	r3, r2
241096d4:	d00a      	beq.n	241096ec <RCCEx_GetXSPICLKFreq+0xb4>
241096d6:	4a5d      	ldr	r2, [pc, #372]	@ (2410984c <RCCEx_GetXSPICLKFreq+0x214>)
241096d8:	4293      	cmp	r3, r2
241096da:	f200 809b 	bhi.w	24109814 <RCCEx_GetXSPICLKFreq+0x1dc>
241096de:	4a5c      	ldr	r2, [pc, #368]	@ (24109850 <RCCEx_GetXSPICLKFreq+0x218>)
241096e0:	4293      	cmp	r3, r2
241096e2:	d003      	beq.n	241096ec <RCCEx_GetXSPICLKFreq+0xb4>
241096e4:	4a5b      	ldr	r2, [pc, #364]	@ (24109854 <RCCEx_GetXSPICLKFreq+0x21c>)
241096e6:	4293      	cmp	r3, r2
241096e8:	f040 8094 	bne.w	24109814 <RCCEx_GetXSPICLKFreq+0x1dc>
  {
    case LL_RCC_XSPI1_CLKSOURCE_HCLK:
    case LL_RCC_XSPI2_CLKSOURCE_HCLK:
    case LL_RCC_XSPI3_CLKSOURCE_HCLK:
      xspi_frequency = RCCEx_GetHCLKFreq(HAL_RCC_GetSysClockFreq());
241096ec:	f7f8 f83a 	bl	24101764 <HAL_RCC_GetSysClockFreq>
241096f0:	4603      	mov	r3, r0
241096f2:	4618      	mov	r0, r3
241096f4:	f7fc fc9c 	bl	24106030 <RCCEx_GetHCLKFreq>
241096f8:	60f8      	str	r0, [r7, #12]
      break;
241096fa:	e090      	b.n	2410981e <RCCEx_GetXSPICLKFreq+0x1e6>

    case LL_RCC_XSPI1_CLKSOURCE_CLKP:
    case LL_RCC_XSPI2_CLKSOURCE_CLKP:
    case LL_RCC_XSPI3_CLKSOURCE_CLKP:
      xspi_frequency = RCCEx_GetCLKPCLKFreq(LL_RCC_CLKP_CLKSOURCE);
241096fc:	2007      	movs	r0, #7
241096fe:	f7fc ff83 	bl	24106608 <RCCEx_GetCLKPCLKFreq>
24109702:	60f8      	str	r0, [r7, #12]
      break;
24109704:	e08b      	b.n	2410981e <RCCEx_GetXSPICLKFreq+0x1e6>

    case LL_RCC_XSPI1_CLKSOURCE_IC3:
    case LL_RCC_XSPI2_CLKSOURCE_IC3:
    case LL_RCC_XSPI3_CLKSOURCE_IC3:
      if (LL_RCC_IC3_IsEnabled() != 0U)
24109706:	f7f8 ffe7 	bl	241026d8 <LL_RCC_IC3_IsEnabled>
2410970a:	4603      	mov	r3, r0
2410970c:	2b00      	cmp	r3, #0
2410970e:	f000 8083 	beq.w	24109818 <RCCEx_GetXSPICLKFreq+0x1e0>
      {
        ic_divider = LL_RCC_IC3_GetDivider();
24109712:	f7f9 f803 	bl	2410271c <LL_RCC_IC3_GetDivider>
24109716:	60b8      	str	r0, [r7, #8]
        switch (LL_RCC_IC3_GetSource())
24109718:	f7f8 fff2 	bl	24102700 <LL_RCC_IC3_GetSource>
2410971c:	4603      	mov	r3, r0
2410971e:	f1b3 5f40 	cmp.w	r3, #805306368	@ 0x30000000
24109722:	d029      	beq.n	24109778 <RCCEx_GetXSPICLKFreq+0x140>
24109724:	f1b3 5f40 	cmp.w	r3, #805306368	@ 0x30000000
24109728:	d82f      	bhi.n	2410978a <RCCEx_GetXSPICLKFreq+0x152>
2410972a:	f1b3 5f00 	cmp.w	r3, #536870912	@ 0x20000000
2410972e:	d01a      	beq.n	24109766 <RCCEx_GetXSPICLKFreq+0x12e>
24109730:	f1b3 5f00 	cmp.w	r3, #536870912	@ 0x20000000
24109734:	d829      	bhi.n	2410978a <RCCEx_GetXSPICLKFreq+0x152>
24109736:	2b00      	cmp	r3, #0
24109738:	d003      	beq.n	24109742 <RCCEx_GetXSPICLKFreq+0x10a>
2410973a:	f1b3 5f80 	cmp.w	r3, #268435456	@ 0x10000000
2410973e:	d009      	beq.n	24109754 <RCCEx_GetXSPICLKFreq+0x11c>
            xspi_frequency = HAL_RCCEx_GetPLL4CLKFreq();
            xspi_frequency = xspi_frequency / ic_divider;
            break;
          default:
            /* Unexpected case */
            break;
24109740:	e023      	b.n	2410978a <RCCEx_GetXSPICLKFreq+0x152>
            xspi_frequency = HAL_RCCEx_GetPLL1CLKFreq();
24109742:	f7fc fb5d 	bl	24105e00 <HAL_RCCEx_GetPLL1CLKFreq>
24109746:	60f8      	str	r0, [r7, #12]
            xspi_frequency = xspi_frequency / ic_divider;
24109748:	68fa      	ldr	r2, [r7, #12]
2410974a:	68bb      	ldr	r3, [r7, #8]
2410974c:	fbb2 f3f3 	udiv	r3, r2, r3
24109750:	60fb      	str	r3, [r7, #12]
            break;
24109752:	e01b      	b.n	2410978c <RCCEx_GetXSPICLKFreq+0x154>
            xspi_frequency = HAL_RCCEx_GetPLL2CLKFreq();
24109754:	f7fc fb9a 	bl	24105e8c <HAL_RCCEx_GetPLL2CLKFreq>
24109758:	60f8      	str	r0, [r7, #12]
            xspi_frequency = xspi_frequency / ic_divider;
2410975a:	68fa      	ldr	r2, [r7, #12]
2410975c:	68bb      	ldr	r3, [r7, #8]
2410975e:	fbb2 f3f3 	udiv	r3, r2, r3
24109762:	60fb      	str	r3, [r7, #12]
            break;
24109764:	e012      	b.n	2410978c <RCCEx_GetXSPICLKFreq+0x154>
            xspi_frequency = HAL_RCCEx_GetPLL3CLKFreq();
24109766:	f7fc fbd7 	bl	24105f18 <HAL_RCCEx_GetPLL3CLKFreq>
2410976a:	60f8      	str	r0, [r7, #12]
            xspi_frequency = xspi_frequency / ic_divider;
2410976c:	68fa      	ldr	r2, [r7, #12]
2410976e:	68bb      	ldr	r3, [r7, #8]
24109770:	fbb2 f3f3 	udiv	r3, r2, r3
24109774:	60fb      	str	r3, [r7, #12]
            break;
24109776:	e009      	b.n	2410978c <RCCEx_GetXSPICLKFreq+0x154>
            xspi_frequency = HAL_RCCEx_GetPLL4CLKFreq();
24109778:	f7fc fc14 	bl	24105fa4 <HAL_RCCEx_GetPLL4CLKFreq>
2410977c:	60f8      	str	r0, [r7, #12]
            xspi_frequency = xspi_frequency / ic_divider;
2410977e:	68fa      	ldr	r2, [r7, #12]
24109780:	68bb      	ldr	r3, [r7, #8]
24109782:	fbb2 f3f3 	udiv	r3, r2, r3
24109786:	60fb      	str	r3, [r7, #12]
            break;
24109788:	e000      	b.n	2410978c <RCCEx_GetXSPICLKFreq+0x154>
            break;
2410978a:	bf00      	nop
        }
      }
      break;
2410978c:	e044      	b.n	24109818 <RCCEx_GetXSPICLKFreq+0x1e0>

    case LL_RCC_XSPI1_CLKSOURCE_IC4:
    case LL_RCC_XSPI2_CLKSOURCE_IC4:
    case LL_RCC_XSPI3_CLKSOURCE_IC4:
      if (LL_RCC_IC4_IsEnabled() != 0U)
2410978e:	f7f8 ffe3 	bl	24102758 <LL_RCC_IC4_IsEnabled>
24109792:	4603      	mov	r3, r0
24109794:	2b00      	cmp	r3, #0
24109796:	d041      	beq.n	2410981c <RCCEx_GetXSPICLKFreq+0x1e4>
      {
        ic_divider = LL_RCC_IC4_GetDivider();
24109798:	f7f9 f800 	bl	2410279c <LL_RCC_IC4_GetDivider>
2410979c:	60b8      	str	r0, [r7, #8]
        switch (LL_RCC_IC4_GetSource())
2410979e:	f7f8 ffef 	bl	24102780 <LL_RCC_IC4_GetSource>
241097a2:	4603      	mov	r3, r0
241097a4:	f1b3 5f40 	cmp.w	r3, #805306368	@ 0x30000000
241097a8:	d029      	beq.n	241097fe <RCCEx_GetXSPICLKFreq+0x1c6>
241097aa:	f1b3 5f40 	cmp.w	r3, #805306368	@ 0x30000000
241097ae:	d82f      	bhi.n	24109810 <RCCEx_GetXSPICLKFreq+0x1d8>
241097b0:	f1b3 5f00 	cmp.w	r3, #536870912	@ 0x20000000
241097b4:	d01a      	beq.n	241097ec <RCCEx_GetXSPICLKFreq+0x1b4>
241097b6:	f1b3 5f00 	cmp.w	r3, #536870912	@ 0x20000000
241097ba:	d829      	bhi.n	24109810 <RCCEx_GetXSPICLKFreq+0x1d8>
241097bc:	2b00      	cmp	r3, #0
241097be:	d003      	beq.n	241097c8 <RCCEx_GetXSPICLKFreq+0x190>
241097c0:	f1b3 5f80 	cmp.w	r3, #268435456	@ 0x10000000
241097c4:	d009      	beq.n	241097da <RCCEx_GetXSPICLKFreq+0x1a2>
            xspi_frequency = HAL_RCCEx_GetPLL4CLKFreq();
            xspi_frequency = xspi_frequency / ic_divider;
            break;
          default:
            /* Unexpected case */
            break;
241097c6:	e023      	b.n	24109810 <RCCEx_GetXSPICLKFreq+0x1d8>
            xspi_frequency = HAL_RCCEx_GetPLL1CLKFreq();
241097c8:	f7fc fb1a 	bl	24105e00 <HAL_RCCEx_GetPLL1CLKFreq>
241097cc:	60f8      	str	r0, [r7, #12]
            xspi_frequency = xspi_frequency / ic_divider;
241097ce:	68fa      	ldr	r2, [r7, #12]
241097d0:	68bb      	ldr	r3, [r7, #8]
241097d2:	fbb2 f3f3 	udiv	r3, r2, r3
241097d6:	60fb      	str	r3, [r7, #12]
            break;
241097d8:	e01b      	b.n	24109812 <RCCEx_GetXSPICLKFreq+0x1da>
            xspi_frequency = HAL_RCCEx_GetPLL2CLKFreq();
241097da:	f7fc fb57 	bl	24105e8c <HAL_RCCEx_GetPLL2CLKFreq>
241097de:	60f8      	str	r0, [r7, #12]
            xspi_frequency = xspi_frequency / ic_divider;
241097e0:	68fa      	ldr	r2, [r7, #12]
241097e2:	68bb      	ldr	r3, [r7, #8]
241097e4:	fbb2 f3f3 	udiv	r3, r2, r3
241097e8:	60fb      	str	r3, [r7, #12]
            break;
241097ea:	e012      	b.n	24109812 <RCCEx_GetXSPICLKFreq+0x1da>
            xspi_frequency = HAL_RCCEx_GetPLL3CLKFreq();
241097ec:	f7fc fb94 	bl	24105f18 <HAL_RCCEx_GetPLL3CLKFreq>
241097f0:	60f8      	str	r0, [r7, #12]
            xspi_frequency = xspi_frequency / ic_divider;
241097f2:	68fa      	ldr	r2, [r7, #12]
241097f4:	68bb      	ldr	r3, [r7, #8]
241097f6:	fbb2 f3f3 	udiv	r3, r2, r3
241097fa:	60fb      	str	r3, [r7, #12]
            break;
241097fc:	e009      	b.n	24109812 <RCCEx_GetXSPICLKFreq+0x1da>
            xspi_frequency = HAL_RCCEx_GetPLL4CLKFreq();
241097fe:	f7fc fbd1 	bl	24105fa4 <HAL_RCCEx_GetPLL4CLKFreq>
24109802:	60f8      	str	r0, [r7, #12]
            xspi_frequency = xspi_frequency / ic_divider;
24109804:	68fa      	ldr	r2, [r7, #12]
24109806:	68bb      	ldr	r3, [r7, #8]
24109808:	fbb2 f3f3 	udiv	r3, r2, r3
2410980c:	60fb      	str	r3, [r7, #12]
            break;
2410980e:	e000      	b.n	24109812 <RCCEx_GetXSPICLKFreq+0x1da>
            break;
24109810:	bf00      	nop
        }
      }
      break;
24109812:	e003      	b.n	2410981c <RCCEx_GetXSPICLKFreq+0x1e4>

    default:
      /* Nothing to do */
      break;
24109814:	bf00      	nop
24109816:	e002      	b.n	2410981e <RCCEx_GetXSPICLKFreq+0x1e6>
      break;
24109818:	bf00      	nop
2410981a:	e000      	b.n	2410981e <RCCEx_GetXSPICLKFreq+0x1e6>
      break;
2410981c:	bf00      	nop
  }

  return xspi_frequency;
2410981e:	68fb      	ldr	r3, [r7, #12]
}
24109820:	4618      	mov	r0, r3
24109822:	3710      	adds	r7, #16
24109824:	46bd      	mov	sp, r7
24109826:	bd80      	pop	{r7, pc}
24109828:	03030814 	.word	0x03030814
2410982c:	03030414 	.word	0x03030414
24109830:	03030014 	.word	0x03030014
24109834:	03020814 	.word	0x03020814
24109838:	03020414 	.word	0x03020414
2410983c:	03020014 	.word	0x03020014
24109840:	03010814 	.word	0x03010814
24109844:	03010414 	.word	0x03010414
24109848:	03010014 	.word	0x03010014
2410984c:	03000814 	.word	0x03000814
24109850:	03000014 	.word	0x03000014
24109854:	03000414 	.word	0x03000414

24109858 <HAL_UART_Init>:
  *        parameters in the UART_InitTypeDef and initialize the associated handle.
  * @param huart UART handle.
  * @retval HAL status
  */
HAL_StatusTypeDef HAL_UART_Init(UART_HandleTypeDef *huart)
{
24109858:	b580      	push	{r7, lr}
2410985a:	b082      	sub	sp, #8
2410985c:	af00      	add	r7, sp, #0
2410985e:	6078      	str	r0, [r7, #4]
  /* Check the UART handle allocation */
  if (huart == NULL)
24109860:	687b      	ldr	r3, [r7, #4]
24109862:	2b00      	cmp	r3, #0
24109864:	d101      	bne.n	2410986a <HAL_UART_Init+0x12>
  {
    return HAL_ERROR;
24109866:	2301      	movs	r3, #1
24109868:	e042      	b.n	241098f0 <HAL_UART_Init+0x98>
  {
    /* Check the parameters */
    assert_param((IS_UART_INSTANCE(huart->Instance)) || (IS_LPUART_INSTANCE(huart->Instance)));
  }

  if (huart->gState == HAL_UART_STATE_RESET)
2410986a:	687b      	ldr	r3, [r7, #4]
2410986c:	f8d3 3088 	ldr.w	r3, [r3, #136]	@ 0x88
24109870:	2b00      	cmp	r3, #0
24109872:	d106      	bne.n	24109882 <HAL_UART_Init+0x2a>
  {
    /* Allocate lock resource and initialize it */
    huart->Lock = HAL_UNLOCKED;
24109874:	687b      	ldr	r3, [r7, #4]
24109876:	2200      	movs	r2, #0
24109878:	f883 2084 	strb.w	r2, [r3, #132]	@ 0x84

    /* Init the low level hardware */
    huart->MspInitCallback(huart);
#else
    /* Init the low level hardware : GPIO, CLOCK */
    HAL_UART_MspInit(huart);
2410987c:	6878      	ldr	r0, [r7, #4]
2410987e:	f7f7 fa45 	bl	24100d0c <HAL_UART_MspInit>
#endif /* (USE_HAL_UART_REGISTER_CALLBACKS) */
  }

  huart->gState = HAL_UART_STATE_BUSY;
24109882:	687b      	ldr	r3, [r7, #4]
24109884:	2224      	movs	r2, #36	@ 0x24
24109886:	f8c3 2088 	str.w	r2, [r3, #136]	@ 0x88

  __HAL_UART_DISABLE(huart);
2410988a:	687b      	ldr	r3, [r7, #4]
2410988c:	681b      	ldr	r3, [r3, #0]
2410988e:	681a      	ldr	r2, [r3, #0]
24109890:	687b      	ldr	r3, [r7, #4]
24109892:	681b      	ldr	r3, [r3, #0]
24109894:	f022 0201 	bic.w	r2, r2, #1
24109898:	601a      	str	r2, [r3, #0]

  /* Perform advanced settings configuration */
  /* For some items, configuration requires to be done prior TE and RE bits are set */
  if (huart->AdvancedInit.AdvFeatureInit != UART_ADVFEATURE_NO_INIT)
2410989a:	687b      	ldr	r3, [r7, #4]
2410989c:	6a9b      	ldr	r3, [r3, #40]	@ 0x28
2410989e:	2b00      	cmp	r3, #0
241098a0:	d002      	beq.n	241098a8 <HAL_UART_Init+0x50>
  {
    UART_AdvFeatureConfig(huart);
241098a2:	6878      	ldr	r0, [r7, #4]
241098a4:	f000 fa9e 	bl	24109de4 <UART_AdvFeatureConfig>
  }

  /* Set the UART Communication parameters */
  if (UART_SetConfig(huart) == HAL_ERROR)
241098a8:	6878      	ldr	r0, [r7, #4]
241098aa:	f000 f8bf 	bl	24109a2c <UART_SetConfig>
241098ae:	4603      	mov	r3, r0
241098b0:	2b01      	cmp	r3, #1
241098b2:	d101      	bne.n	241098b8 <HAL_UART_Init+0x60>
  {
    return HAL_ERROR;
241098b4:	2301      	movs	r3, #1
241098b6:	e01b      	b.n	241098f0 <HAL_UART_Init+0x98>
  }

  /* In asynchronous mode, the following bits must be kept cleared:
  - LINEN and CLKEN bits in the USART_CR2 register,
  - SCEN, HDSEL and IREN  bits in the USART_CR3 register.*/
  CLEAR_BIT(huart->Instance->CR2, (USART_CR2_LINEN | USART_CR2_CLKEN));
241098b8:	687b      	ldr	r3, [r7, #4]
241098ba:	681b      	ldr	r3, [r3, #0]
241098bc:	685a      	ldr	r2, [r3, #4]
241098be:	687b      	ldr	r3, [r7, #4]
241098c0:	681b      	ldr	r3, [r3, #0]
241098c2:	f422 4290 	bic.w	r2, r2, #18432	@ 0x4800
241098c6:	605a      	str	r2, [r3, #4]
  CLEAR_BIT(huart->Instance->CR3, (USART_CR3_SCEN | USART_CR3_HDSEL | USART_CR3_IREN));
241098c8:	687b      	ldr	r3, [r7, #4]
241098ca:	681b      	ldr	r3, [r3, #0]
241098cc:	689a      	ldr	r2, [r3, #8]
241098ce:	687b      	ldr	r3, [r7, #4]
241098d0:	681b      	ldr	r3, [r3, #0]
241098d2:	f022 022a 	bic.w	r2, r2, #42	@ 0x2a
241098d6:	609a      	str	r2, [r3, #8]

  __HAL_UART_ENABLE(huart);
241098d8:	687b      	ldr	r3, [r7, #4]
241098da:	681b      	ldr	r3, [r3, #0]
241098dc:	681a      	ldr	r2, [r3, #0]
241098de:	687b      	ldr	r3, [r7, #4]
241098e0:	681b      	ldr	r3, [r3, #0]
241098e2:	f042 0201 	orr.w	r2, r2, #1
241098e6:	601a      	str	r2, [r3, #0]

  /* TEACK and/or REACK to check before moving huart->gState and huart->RxState to Ready */
  return (UART_CheckIdleState(huart));
241098e8:	6878      	ldr	r0, [r7, #4]
241098ea:	f000 fb1d 	bl	24109f28 <UART_CheckIdleState>
241098ee:	4603      	mov	r3, r0
}
241098f0:	4618      	mov	r0, r3
241098f2:	3708      	adds	r7, #8
241098f4:	46bd      	mov	sp, r7
241098f6:	bd80      	pop	{r7, pc}

241098f8 <HAL_UART_Transmit>:
  * @param Size    Amount of data elements (u8 or u16) to be sent.
  * @param Timeout Timeout duration.
  * @retval HAL status
  */
HAL_StatusTypeDef HAL_UART_Transmit(UART_HandleTypeDef *huart, const uint8_t *pData, uint16_t Size, uint32_t Timeout)
{
241098f8:	b580      	push	{r7, lr}
241098fa:	b08a      	sub	sp, #40	@ 0x28
241098fc:	af02      	add	r7, sp, #8
241098fe:	60f8      	str	r0, [r7, #12]
24109900:	60b9      	str	r1, [r7, #8]
24109902:	603b      	str	r3, [r7, #0]
24109904:	4613      	mov	r3, r2
24109906:	80fb      	strh	r3, [r7, #6]
  const uint8_t  *pdata8bits;
  const uint16_t *pdata16bits;
  uint32_t tickstart;

  /* Check that a Tx process is not already ongoing */
  if (huart->gState == HAL_UART_STATE_READY)
24109908:	68fb      	ldr	r3, [r7, #12]
2410990a:	f8d3 3088 	ldr.w	r3, [r3, #136]	@ 0x88
2410990e:	2b20      	cmp	r3, #32
24109910:	f040 8086 	bne.w	24109a20 <HAL_UART_Transmit+0x128>
  {
    if ((pData == NULL) || (Size == 0U))
24109914:	68bb      	ldr	r3, [r7, #8]
24109916:	2b00      	cmp	r3, #0
24109918:	d002      	beq.n	24109920 <HAL_UART_Transmit+0x28>
2410991a:	88fb      	ldrh	r3, [r7, #6]
2410991c:	2b00      	cmp	r3, #0
2410991e:	d101      	bne.n	24109924 <HAL_UART_Transmit+0x2c>
    {
      return  HAL_ERROR;
24109920:	2301      	movs	r3, #1
24109922:	e07e      	b.n	24109a22 <HAL_UART_Transmit+0x12a>
    }

    huart->ErrorCode = HAL_UART_ERROR_NONE;
24109924:	68fb      	ldr	r3, [r7, #12]
24109926:	2200      	movs	r2, #0
24109928:	f8c3 2090 	str.w	r2, [r3, #144]	@ 0x90
    huart->gState = HAL_UART_STATE_BUSY_TX;
2410992c:	68fb      	ldr	r3, [r7, #12]
2410992e:	2221      	movs	r2, #33	@ 0x21
24109930:	f8c3 2088 	str.w	r2, [r3, #136]	@ 0x88

    /* Init tickstart for timeout management */
    tickstart = HAL_GetTick();
24109934:	f7f7 fbbc 	bl	241010b0 <HAL_GetTick>
24109938:	6178      	str	r0, [r7, #20]

    huart->TxXferSize  = Size;
2410993a:	68fb      	ldr	r3, [r7, #12]
2410993c:	88fa      	ldrh	r2, [r7, #6]
2410993e:	f8a3 2054 	strh.w	r2, [r3, #84]	@ 0x54
    huart->TxXferCount = Size;
24109942:	68fb      	ldr	r3, [r7, #12]
24109944:	88fa      	ldrh	r2, [r7, #6]
24109946:	f8a3 2056 	strh.w	r2, [r3, #86]	@ 0x56

    /* In case of 9bits/No Parity transfer, pData needs to be handled as a uint16_t pointer */
    if ((huart->Init.WordLength == UART_WORDLENGTH_9B) && (huart->Init.Parity == UART_PARITY_NONE))
2410994a:	68fb      	ldr	r3, [r7, #12]
2410994c:	689b      	ldr	r3, [r3, #8]
2410994e:	f5b3 5f80 	cmp.w	r3, #4096	@ 0x1000
24109952:	d108      	bne.n	24109966 <HAL_UART_Transmit+0x6e>
24109954:	68fb      	ldr	r3, [r7, #12]
24109956:	691b      	ldr	r3, [r3, #16]
24109958:	2b00      	cmp	r3, #0
2410995a:	d104      	bne.n	24109966 <HAL_UART_Transmit+0x6e>
    {
      pdata8bits  = NULL;
2410995c:	2300      	movs	r3, #0
2410995e:	61fb      	str	r3, [r7, #28]
      pdata16bits = (const uint16_t *) pData;
24109960:	68bb      	ldr	r3, [r7, #8]
24109962:	61bb      	str	r3, [r7, #24]
24109964:	e003      	b.n	2410996e <HAL_UART_Transmit+0x76>
    }
    else
    {
      pdata8bits  = pData;
24109966:	68bb      	ldr	r3, [r7, #8]
24109968:	61fb      	str	r3, [r7, #28]
      pdata16bits = NULL;
2410996a:	2300      	movs	r3, #0
2410996c:	61bb      	str	r3, [r7, #24]
    }

    while (huart->TxXferCount > 0U)
2410996e:	e03a      	b.n	241099e6 <HAL_UART_Transmit+0xee>
    {
      if (UART_WaitOnFlagUntilTimeout(huart, UART_FLAG_TXE, RESET, tickstart, Timeout) != HAL_OK)
24109970:	683b      	ldr	r3, [r7, #0]
24109972:	9300      	str	r3, [sp, #0]
24109974:	697b      	ldr	r3, [r7, #20]
24109976:	2200      	movs	r2, #0
24109978:	2180      	movs	r1, #128	@ 0x80
2410997a:	68f8      	ldr	r0, [r7, #12]
2410997c:	f000 fb7e 	bl	2410a07c <UART_WaitOnFlagUntilTimeout>
24109980:	4603      	mov	r3, r0
24109982:	2b00      	cmp	r3, #0
24109984:	d005      	beq.n	24109992 <HAL_UART_Transmit+0x9a>
      {

        huart->gState = HAL_UART_STATE_READY;
24109986:	68fb      	ldr	r3, [r7, #12]
24109988:	2220      	movs	r2, #32
2410998a:	f8c3 2088 	str.w	r2, [r3, #136]	@ 0x88

        return HAL_TIMEOUT;
2410998e:	2303      	movs	r3, #3
24109990:	e047      	b.n	24109a22 <HAL_UART_Transmit+0x12a>
      }
      if (pdata8bits == NULL)
24109992:	69fb      	ldr	r3, [r7, #28]
24109994:	2b00      	cmp	r3, #0
24109996:	d10b      	bne.n	241099b0 <HAL_UART_Transmit+0xb8>
      {
        huart->Instance->TDR = (uint16_t)(*pdata16bits & 0x01FFU);
24109998:	69bb      	ldr	r3, [r7, #24]
2410999a:	881b      	ldrh	r3, [r3, #0]
2410999c:	461a      	mov	r2, r3
2410999e:	68fb      	ldr	r3, [r7, #12]
241099a0:	681b      	ldr	r3, [r3, #0]
241099a2:	f3c2 0208 	ubfx	r2, r2, #0, #9
241099a6:	629a      	str	r2, [r3, #40]	@ 0x28
        pdata16bits++;
241099a8:	69bb      	ldr	r3, [r7, #24]
241099aa:	3302      	adds	r3, #2
241099ac:	61bb      	str	r3, [r7, #24]
241099ae:	e007      	b.n	241099c0 <HAL_UART_Transmit+0xc8>
      }
      else
      {
        huart->Instance->TDR = (uint8_t)(*pdata8bits & 0xFFU);
241099b0:	69fb      	ldr	r3, [r7, #28]
241099b2:	781a      	ldrb	r2, [r3, #0]
241099b4:	68fb      	ldr	r3, [r7, #12]
241099b6:	681b      	ldr	r3, [r3, #0]
241099b8:	629a      	str	r2, [r3, #40]	@ 0x28
        pdata8bits++;
241099ba:	69fb      	ldr	r3, [r7, #28]
241099bc:	3301      	adds	r3, #1
241099be:	61fb      	str	r3, [r7, #28]
      }
      if ((huart->gState & HAL_UART_STATE_BUSY_TX) == HAL_UART_STATE_BUSY_TX)
241099c0:	68fb      	ldr	r3, [r7, #12]
241099c2:	f8d3 3088 	ldr.w	r3, [r3, #136]	@ 0x88
241099c6:	f003 0321 	and.w	r3, r3, #33	@ 0x21
241099ca:	2b21      	cmp	r3, #33	@ 0x21
241099cc:	d109      	bne.n	241099e2 <HAL_UART_Transmit+0xea>
      {
        huart->TxXferCount--;
241099ce:	68fb      	ldr	r3, [r7, #12]
241099d0:	f8b3 3056 	ldrh.w	r3, [r3, #86]	@ 0x56
241099d4:	b29b      	uxth	r3, r3
241099d6:	3b01      	subs	r3, #1
241099d8:	b29a      	uxth	r2, r3
241099da:	68fb      	ldr	r3, [r7, #12]
241099dc:	f8a3 2056 	strh.w	r2, [r3, #86]	@ 0x56
241099e0:	e001      	b.n	241099e6 <HAL_UART_Transmit+0xee>
      }
      else
      {
        /* Process was aborted during the transmission */
        return HAL_ERROR;
241099e2:	2301      	movs	r3, #1
241099e4:	e01d      	b.n	24109a22 <HAL_UART_Transmit+0x12a>
    while (huart->TxXferCount > 0U)
241099e6:	68fb      	ldr	r3, [r7, #12]
241099e8:	f8b3 3056 	ldrh.w	r3, [r3, #86]	@ 0x56
241099ec:	b29b      	uxth	r3, r3
241099ee:	2b00      	cmp	r3, #0
241099f0:	d1be      	bne.n	24109970 <HAL_UART_Transmit+0x78>
      }
    }

    if (UART_WaitOnFlagUntilTimeout(huart, UART_FLAG_TC, RESET, tickstart, Timeout) != HAL_OK)
241099f2:	683b      	ldr	r3, [r7, #0]
241099f4:	9300      	str	r3, [sp, #0]
241099f6:	697b      	ldr	r3, [r7, #20]
241099f8:	2200      	movs	r2, #0
241099fa:	2140      	movs	r1, #64	@ 0x40
241099fc:	68f8      	ldr	r0, [r7, #12]
241099fe:	f000 fb3d 	bl	2410a07c <UART_WaitOnFlagUntilTimeout>
24109a02:	4603      	mov	r3, r0
24109a04:	2b00      	cmp	r3, #0
24109a06:	d005      	beq.n	24109a14 <HAL_UART_Transmit+0x11c>
    {
      huart->gState = HAL_UART_STATE_READY;
24109a08:	68fb      	ldr	r3, [r7, #12]
24109a0a:	2220      	movs	r2, #32
24109a0c:	f8c3 2088 	str.w	r2, [r3, #136]	@ 0x88

      return HAL_TIMEOUT;
24109a10:	2303      	movs	r3, #3
24109a12:	e006      	b.n	24109a22 <HAL_UART_Transmit+0x12a>
    }

    /* At end of Tx process, restore huart->gState to Ready */
    huart->gState = HAL_UART_STATE_READY;
24109a14:	68fb      	ldr	r3, [r7, #12]
24109a16:	2220      	movs	r2, #32
24109a18:	f8c3 2088 	str.w	r2, [r3, #136]	@ 0x88

    return HAL_OK;
24109a1c:	2300      	movs	r3, #0
24109a1e:	e000      	b.n	24109a22 <HAL_UART_Transmit+0x12a>
  }
  else
  {
    return HAL_BUSY;
24109a20:	2302      	movs	r3, #2
  }
}
24109a22:	4618      	mov	r0, r3
24109a24:	3720      	adds	r7, #32
24109a26:	46bd      	mov	sp, r7
24109a28:	bd80      	pop	{r7, pc}
	...

24109a2c <UART_SetConfig>:
  * @brief Configure the UART peripheral.
  * @param huart UART handle.
  * @retval HAL status
  */
HAL_StatusTypeDef UART_SetConfig(UART_HandleTypeDef *huart)
{
24109a2c:	e92d 4fb0 	stmdb	sp!, {r4, r5, r7, r8, r9, sl, fp, lr}
24109a30:	b090      	sub	sp, #64	@ 0x40
24109a32:	af00      	add	r7, sp, #0
24109a34:	6178      	str	r0, [r7, #20]
  uint32_t tmpreg;
  uint16_t brrtemp;
  uint64_t clocksource;
  uint32_t usartdiv;
  HAL_StatusTypeDef ret               = HAL_OK;
24109a36:	2300      	movs	r3, #0
24109a38:	f887 302f 	strb.w	r3, [r7, #47]	@ 0x2f
  *  the UART Word Length, Parity, Mode and oversampling:
  *  set the M bits according to huart->Init.WordLength value
  *  set PCE and PS bits according to huart->Init.Parity value
  *  set TE and RE bits according to huart->Init.Mode value
  *  set OVER8 bit according to huart->Init.OverSampling value */
  tmpreg = (uint32_t)huart->Init.WordLength | huart->Init.Parity | huart->Init.Mode | huart->Init.OverSampling ;
24109a3c:	697b      	ldr	r3, [r7, #20]
24109a3e:	689a      	ldr	r2, [r3, #8]
24109a40:	697b      	ldr	r3, [r7, #20]
24109a42:	691b      	ldr	r3, [r3, #16]
24109a44:	431a      	orrs	r2, r3
24109a46:	697b      	ldr	r3, [r7, #20]
24109a48:	695b      	ldr	r3, [r3, #20]
24109a4a:	431a      	orrs	r2, r3
24109a4c:	697b      	ldr	r3, [r7, #20]
24109a4e:	69db      	ldr	r3, [r3, #28]
24109a50:	4313      	orrs	r3, r2
24109a52:	63fb      	str	r3, [r7, #60]	@ 0x3c
  MODIFY_REG(huart->Instance->CR1, USART_CR1_FIELDS, tmpreg);
24109a54:	697b      	ldr	r3, [r7, #20]
24109a56:	681b      	ldr	r3, [r3, #0]
24109a58:	681a      	ldr	r2, [r3, #0]
24109a5a:	4b95      	ldr	r3, [pc, #596]	@ (24109cb0 <UART_SetConfig+0x284>)
24109a5c:	4013      	ands	r3, r2
24109a5e:	697a      	ldr	r2, [r7, #20]
24109a60:	6812      	ldr	r2, [r2, #0]
24109a62:	6bf9      	ldr	r1, [r7, #60]	@ 0x3c
24109a64:	430b      	orrs	r3, r1
24109a66:	6013      	str	r3, [r2, #0]

  /*-------------------------- USART CR2 Configuration -----------------------*/
  /* Configure the UART Stop Bits: Set STOP[13:12] bits according
  * to huart->Init.StopBits value */
  MODIFY_REG(huart->Instance->CR2, USART_CR2_STOP, huart->Init.StopBits);
24109a68:	697b      	ldr	r3, [r7, #20]
24109a6a:	681b      	ldr	r3, [r3, #0]
24109a6c:	685b      	ldr	r3, [r3, #4]
24109a6e:	f423 5140 	bic.w	r1, r3, #12288	@ 0x3000
24109a72:	697b      	ldr	r3, [r7, #20]
24109a74:	68da      	ldr	r2, [r3, #12]
24109a76:	697b      	ldr	r3, [r7, #20]
24109a78:	681b      	ldr	r3, [r3, #0]
24109a7a:	430a      	orrs	r2, r1
24109a7c:	605a      	str	r2, [r3, #4]
  /* Configure
  * - UART HardWare Flow Control: set CTSE and RTSE bits according
  *   to huart->Init.HwFlowCtl value
  * - one-bit sampling method versus three samples' majority rule according
  *   to huart->Init.OneBitSampling (not applicable to LPUART) */
  tmpreg = (uint32_t)huart->Init.HwFlowCtl;
24109a7e:	697b      	ldr	r3, [r7, #20]
24109a80:	699b      	ldr	r3, [r3, #24]
24109a82:	63fb      	str	r3, [r7, #60]	@ 0x3c

  if (!(UART_INSTANCE_LOWPOWER(huart)))
24109a84:	697b      	ldr	r3, [r7, #20]
24109a86:	681b      	ldr	r3, [r3, #0]
24109a88:	4a8a      	ldr	r2, [pc, #552]	@ (24109cb4 <UART_SetConfig+0x288>)
24109a8a:	4293      	cmp	r3, r2
24109a8c:	d004      	beq.n	24109a98 <UART_SetConfig+0x6c>
  {
    tmpreg |= huart->Init.OneBitSampling;
24109a8e:	697b      	ldr	r3, [r7, #20]
24109a90:	6a1b      	ldr	r3, [r3, #32]
24109a92:	6bfa      	ldr	r2, [r7, #60]	@ 0x3c
24109a94:	4313      	orrs	r3, r2
24109a96:	63fb      	str	r3, [r7, #60]	@ 0x3c
  }
  MODIFY_REG(huart->Instance->CR3, USART_CR3_FIELDS, tmpreg);
24109a98:	697b      	ldr	r3, [r7, #20]
24109a9a:	681b      	ldr	r3, [r3, #0]
24109a9c:	689b      	ldr	r3, [r3, #8]
24109a9e:	f023 436e 	bic.w	r3, r3, #3992977408	@ 0xee000000
24109aa2:	f423 6330 	bic.w	r3, r3, #2816	@ 0xb00
24109aa6:	697a      	ldr	r2, [r7, #20]
24109aa8:	6812      	ldr	r2, [r2, #0]
24109aaa:	6bf9      	ldr	r1, [r7, #60]	@ 0x3c
24109aac:	430b      	orrs	r3, r1
24109aae:	6093      	str	r3, [r2, #8]

  /*-------------------------- USART PRESC Configuration -----------------------*/
  /* Configure
  * - UART Clock Prescaler : set PRESCALER according to huart->Init.ClockPrescaler value */
  MODIFY_REG(huart->Instance->PRESC, USART_PRESC_PRESCALER, huart->Init.ClockPrescaler);
24109ab0:	697b      	ldr	r3, [r7, #20]
24109ab2:	681b      	ldr	r3, [r3, #0]
24109ab4:	6adb      	ldr	r3, [r3, #44]	@ 0x2c
24109ab6:	f023 010f 	bic.w	r1, r3, #15
24109aba:	697b      	ldr	r3, [r7, #20]
24109abc:	6a5a      	ldr	r2, [r3, #36]	@ 0x24
24109abe:	697b      	ldr	r3, [r7, #20]
24109ac0:	681b      	ldr	r3, [r3, #0]
24109ac2:	430a      	orrs	r2, r1
24109ac4:	62da      	str	r2, [r3, #44]	@ 0x2c

  /*-------------------------- USART BRR Configuration -----------------------*/
  UART_GETCLOCKSOURCE(huart, clocksource);
24109ac6:	697b      	ldr	r3, [r7, #20]
24109ac8:	681b      	ldr	r3, [r3, #0]
24109aca:	4a7b      	ldr	r2, [pc, #492]	@ (24109cb8 <UART_SetConfig+0x28c>)
24109acc:	4293      	cmp	r3, r2
24109ace:	d106      	bne.n	24109ade <UART_SetConfig+0xb2>
24109ad0:	f04f 0200 	mov.w	r2, #0
24109ad4:	f44f 7380 	mov.w	r3, #256	@ 0x100
24109ad8:	e9c7 230c 	strd	r2, r3, [r7, #48]	@ 0x30
24109adc:	e07d      	b.n	24109bda <UART_SetConfig+0x1ae>
24109ade:	697b      	ldr	r3, [r7, #20]
24109ae0:	681b      	ldr	r3, [r3, #0]
24109ae2:	4a76      	ldr	r2, [pc, #472]	@ (24109cbc <UART_SetConfig+0x290>)
24109ae4:	4293      	cmp	r3, r2
24109ae6:	d106      	bne.n	24109af6 <UART_SetConfig+0xca>
24109ae8:	f04f 0200 	mov.w	r2, #0
24109aec:	f44f 7300 	mov.w	r3, #512	@ 0x200
24109af0:	e9c7 230c 	strd	r2, r3, [r7, #48]	@ 0x30
24109af4:	e071      	b.n	24109bda <UART_SetConfig+0x1ae>
24109af6:	697b      	ldr	r3, [r7, #20]
24109af8:	681b      	ldr	r3, [r3, #0]
24109afa:	4a71      	ldr	r2, [pc, #452]	@ (24109cc0 <UART_SetConfig+0x294>)
24109afc:	4293      	cmp	r3, r2
24109afe:	d106      	bne.n	24109b0e <UART_SetConfig+0xe2>
24109b00:	f04f 0200 	mov.w	r2, #0
24109b04:	f44f 6380 	mov.w	r3, #1024	@ 0x400
24109b08:	e9c7 230c 	strd	r2, r3, [r7, #48]	@ 0x30
24109b0c:	e065      	b.n	24109bda <UART_SetConfig+0x1ae>
24109b0e:	697b      	ldr	r3, [r7, #20]
24109b10:	681b      	ldr	r3, [r3, #0]
24109b12:	4a6c      	ldr	r2, [pc, #432]	@ (24109cc4 <UART_SetConfig+0x298>)
24109b14:	4293      	cmp	r3, r2
24109b16:	d106      	bne.n	24109b26 <UART_SetConfig+0xfa>
24109b18:	f04f 0200 	mov.w	r2, #0
24109b1c:	f44f 6300 	mov.w	r3, #2048	@ 0x800
24109b20:	e9c7 230c 	strd	r2, r3, [r7, #48]	@ 0x30
24109b24:	e059      	b.n	24109bda <UART_SetConfig+0x1ae>
24109b26:	697b      	ldr	r3, [r7, #20]
24109b28:	681b      	ldr	r3, [r3, #0]
24109b2a:	4a67      	ldr	r2, [pc, #412]	@ (24109cc8 <UART_SetConfig+0x29c>)
24109b2c:	4293      	cmp	r3, r2
24109b2e:	d106      	bne.n	24109b3e <UART_SetConfig+0x112>
24109b30:	f04f 0200 	mov.w	r2, #0
24109b34:	f44f 5380 	mov.w	r3, #4096	@ 0x1000
24109b38:	e9c7 230c 	strd	r2, r3, [r7, #48]	@ 0x30
24109b3c:	e04d      	b.n	24109bda <UART_SetConfig+0x1ae>
24109b3e:	697b      	ldr	r3, [r7, #20]
24109b40:	681b      	ldr	r3, [r3, #0]
24109b42:	4a62      	ldr	r2, [pc, #392]	@ (24109ccc <UART_SetConfig+0x2a0>)
24109b44:	4293      	cmp	r3, r2
24109b46:	d106      	bne.n	24109b56 <UART_SetConfig+0x12a>
24109b48:	f04f 0200 	mov.w	r2, #0
24109b4c:	f44f 5300 	mov.w	r3, #8192	@ 0x2000
24109b50:	e9c7 230c 	strd	r2, r3, [r7, #48]	@ 0x30
24109b54:	e041      	b.n	24109bda <UART_SetConfig+0x1ae>
24109b56:	697b      	ldr	r3, [r7, #20]
24109b58:	681b      	ldr	r3, [r3, #0]
24109b5a:	4a5d      	ldr	r2, [pc, #372]	@ (24109cd0 <UART_SetConfig+0x2a4>)
24109b5c:	4293      	cmp	r3, r2
24109b5e:	d106      	bne.n	24109b6e <UART_SetConfig+0x142>
24109b60:	f04f 0200 	mov.w	r2, #0
24109b64:	f44f 4380 	mov.w	r3, #16384	@ 0x4000
24109b68:	e9c7 230c 	strd	r2, r3, [r7, #48]	@ 0x30
24109b6c:	e035      	b.n	24109bda <UART_SetConfig+0x1ae>
24109b6e:	697b      	ldr	r3, [r7, #20]
24109b70:	681b      	ldr	r3, [r3, #0]
24109b72:	4a58      	ldr	r2, [pc, #352]	@ (24109cd4 <UART_SetConfig+0x2a8>)
24109b74:	4293      	cmp	r3, r2
24109b76:	d106      	bne.n	24109b86 <UART_SetConfig+0x15a>
24109b78:	f04f 0200 	mov.w	r2, #0
24109b7c:	f44f 4300 	mov.w	r3, #32768	@ 0x8000
24109b80:	e9c7 230c 	strd	r2, r3, [r7, #48]	@ 0x30
24109b84:	e029      	b.n	24109bda <UART_SetConfig+0x1ae>
24109b86:	697b      	ldr	r3, [r7, #20]
24109b88:	681b      	ldr	r3, [r3, #0]
24109b8a:	4a53      	ldr	r2, [pc, #332]	@ (24109cd8 <UART_SetConfig+0x2ac>)
24109b8c:	4293      	cmp	r3, r2
24109b8e:	d106      	bne.n	24109b9e <UART_SetConfig+0x172>
24109b90:	f04f 0200 	mov.w	r2, #0
24109b94:	f44f 3380 	mov.w	r3, #65536	@ 0x10000
24109b98:	e9c7 230c 	strd	r2, r3, [r7, #48]	@ 0x30
24109b9c:	e01d      	b.n	24109bda <UART_SetConfig+0x1ae>
24109b9e:	697b      	ldr	r3, [r7, #20]
24109ba0:	681b      	ldr	r3, [r3, #0]
24109ba2:	4a4e      	ldr	r2, [pc, #312]	@ (24109cdc <UART_SetConfig+0x2b0>)
24109ba4:	4293      	cmp	r3, r2
24109ba6:	d106      	bne.n	24109bb6 <UART_SetConfig+0x18a>
24109ba8:	f04f 0200 	mov.w	r2, #0
24109bac:	f44f 3300 	mov.w	r3, #131072	@ 0x20000
24109bb0:	e9c7 230c 	strd	r2, r3, [r7, #48]	@ 0x30
24109bb4:	e011      	b.n	24109bda <UART_SetConfig+0x1ae>
24109bb6:	697b      	ldr	r3, [r7, #20]
24109bb8:	681b      	ldr	r3, [r3, #0]
24109bba:	4a3e      	ldr	r2, [pc, #248]	@ (24109cb4 <UART_SetConfig+0x288>)
24109bbc:	4293      	cmp	r3, r2
24109bbe:	d106      	bne.n	24109bce <UART_SetConfig+0x1a2>
24109bc0:	f44f 0200 	mov.w	r2, #8388608	@ 0x800000
24109bc4:	f04f 0300 	mov.w	r3, #0
24109bc8:	e9c7 230c 	strd	r2, r3, [r7, #48]	@ 0x30
24109bcc:	e005      	b.n	24109bda <UART_SetConfig+0x1ae>
24109bce:	f04f 0200 	mov.w	r2, #0
24109bd2:	f04f 0300 	mov.w	r3, #0
24109bd6:	e9c7 230c 	strd	r2, r3, [r7, #48]	@ 0x30

  /* Check LPUART instance */
  if (UART_INSTANCE_LOWPOWER(huart))
24109bda:	697b      	ldr	r3, [r7, #20]
24109bdc:	681b      	ldr	r3, [r3, #0]
24109bde:	4a35      	ldr	r2, [pc, #212]	@ (24109cb4 <UART_SetConfig+0x288>)
24109be0:	4293      	cmp	r3, r2
24109be2:	d17f      	bne.n	24109ce4 <UART_SetConfig+0x2b8>
  {
    /* Retrieve frequency clock */
    pclk = HAL_RCCEx_GetPeriphCLKFreq(clocksource);
24109be4:	e9d7 010c 	ldrd	r0, r1, [r7, #48]	@ 0x30
24109be8:	f7fb fc6e 	bl	241054c8 <HAL_RCCEx_GetPeriphCLKFreq>
24109bec:	62b8      	str	r0, [r7, #40]	@ 0x28

    /* If proper clock source reported */
    if (pclk != 0U)
24109bee:	6abb      	ldr	r3, [r7, #40]	@ 0x28
24109bf0:	2b00      	cmp	r3, #0
24109bf2:	f000 80df 	beq.w	24109db4 <UART_SetConfig+0x388>
    {
      /* Compute clock after Prescaler */
      lpuart_ker_ck_pres = (pclk / UARTPrescTable[huart->Init.ClockPrescaler]);
24109bf6:	697b      	ldr	r3, [r7, #20]
24109bf8:	6a5b      	ldr	r3, [r3, #36]	@ 0x24
24109bfa:	4a39      	ldr	r2, [pc, #228]	@ (24109ce0 <UART_SetConfig+0x2b4>)
24109bfc:	f832 3013 	ldrh.w	r3, [r2, r3, lsl #1]
24109c00:	461a      	mov	r2, r3
24109c02:	6abb      	ldr	r3, [r7, #40]	@ 0x28
24109c04:	fbb3 f3f2 	udiv	r3, r3, r2
24109c08:	61fb      	str	r3, [r7, #28]

      /* Ensure that Frequency clock is in the range [3 * baudrate, 4096 * baudrate] */
      if ((lpuart_ker_ck_pres < (3U * huart->Init.BaudRate)) ||
24109c0a:	697b      	ldr	r3, [r7, #20]
24109c0c:	685a      	ldr	r2, [r3, #4]
24109c0e:	4613      	mov	r3, r2
24109c10:	005b      	lsls	r3, r3, #1
24109c12:	4413      	add	r3, r2
24109c14:	69fa      	ldr	r2, [r7, #28]
24109c16:	429a      	cmp	r2, r3
24109c18:	d305      	bcc.n	24109c26 <UART_SetConfig+0x1fa>
          (lpuart_ker_ck_pres > (4096U * huart->Init.BaudRate)))
24109c1a:	697b      	ldr	r3, [r7, #20]
24109c1c:	685b      	ldr	r3, [r3, #4]
24109c1e:	031b      	lsls	r3, r3, #12
      if ((lpuart_ker_ck_pres < (3U * huart->Init.BaudRate)) ||
24109c20:	69fa      	ldr	r2, [r7, #28]
24109c22:	429a      	cmp	r2, r3
24109c24:	d903      	bls.n	24109c2e <UART_SetConfig+0x202>
      {
        ret = HAL_ERROR;
24109c26:	2301      	movs	r3, #1
24109c28:	f887 302f 	strb.w	r3, [r7, #47]	@ 0x2f
24109c2c:	e0c2      	b.n	24109db4 <UART_SetConfig+0x388>
      }
      else
      {
        /* Check computed UsartDiv value is in allocated range
           (it is forbidden to write values lower than 0x300 in the LPUART_BRR register) */
        usartdiv = (uint32_t)(UART_DIV_LPUART(pclk, huart->Init.BaudRate, huart->Init.ClockPrescaler));
24109c2e:	6abb      	ldr	r3, [r7, #40]	@ 0x28
24109c30:	2200      	movs	r2, #0
24109c32:	60bb      	str	r3, [r7, #8]
24109c34:	60fa      	str	r2, [r7, #12]
24109c36:	697b      	ldr	r3, [r7, #20]
24109c38:	6a5b      	ldr	r3, [r3, #36]	@ 0x24
24109c3a:	4a29      	ldr	r2, [pc, #164]	@ (24109ce0 <UART_SetConfig+0x2b4>)
24109c3c:	f832 3013 	ldrh.w	r3, [r2, r3, lsl #1]
24109c40:	b29b      	uxth	r3, r3
24109c42:	2200      	movs	r2, #0
24109c44:	603b      	str	r3, [r7, #0]
24109c46:	607a      	str	r2, [r7, #4]
24109c48:	e9d7 2300 	ldrd	r2, r3, [r7]
24109c4c:	e9d7 0102 	ldrd	r0, r1, [r7, #8]
24109c50:	f7f6 fd9e 	bl	24100790 <__aeabi_uldivmod>
24109c54:	4602      	mov	r2, r0
24109c56:	460b      	mov	r3, r1
24109c58:	ea52 230f 	lsll	r2, r3, #8
24109c5c:	6979      	ldr	r1, [r7, #20]
24109c5e:	6849      	ldr	r1, [r1, #4]
24109c60:	0849      	lsrs	r1, r1, #1
24109c62:	2000      	movs	r0, #0
24109c64:	460c      	mov	r4, r1
24109c66:	4605      	mov	r5, r0
24109c68:	eb12 0804 	adds.w	r8, r2, r4
24109c6c:	eb43 0905 	adc.w	r9, r3, r5
24109c70:	697b      	ldr	r3, [r7, #20]
24109c72:	685b      	ldr	r3, [r3, #4]
24109c74:	2200      	movs	r2, #0
24109c76:	469a      	mov	sl, r3
24109c78:	4693      	mov	fp, r2
24109c7a:	4652      	mov	r2, sl
24109c7c:	465b      	mov	r3, fp
24109c7e:	4640      	mov	r0, r8
24109c80:	4649      	mov	r1, r9
24109c82:	f7f6 fd85 	bl	24100790 <__aeabi_uldivmod>
24109c86:	4602      	mov	r2, r0
24109c88:	460b      	mov	r3, r1
24109c8a:	4613      	mov	r3, r2
24109c8c:	627b      	str	r3, [r7, #36]	@ 0x24
        if ((usartdiv >= LPUART_BRR_MIN) && (usartdiv <= LPUART_BRR_MAX))
24109c8e:	6a7b      	ldr	r3, [r7, #36]	@ 0x24
24109c90:	f5b3 7f40 	cmp.w	r3, #768	@ 0x300
24109c94:	d308      	bcc.n	24109ca8 <UART_SetConfig+0x27c>
24109c96:	6a7b      	ldr	r3, [r7, #36]	@ 0x24
24109c98:	f5b3 1f80 	cmp.w	r3, #1048576	@ 0x100000
24109c9c:	d204      	bcs.n	24109ca8 <UART_SetConfig+0x27c>
        {
          huart->Instance->BRR = usartdiv;
24109c9e:	697b      	ldr	r3, [r7, #20]
24109ca0:	681b      	ldr	r3, [r3, #0]
24109ca2:	6a7a      	ldr	r2, [r7, #36]	@ 0x24
24109ca4:	60da      	str	r2, [r3, #12]
24109ca6:	e085      	b.n	24109db4 <UART_SetConfig+0x388>
        }
        else
        {
          ret = HAL_ERROR;
24109ca8:	2301      	movs	r3, #1
24109caa:	f887 302f 	strb.w	r3, [r7, #47]	@ 0x2f
24109cae:	e081      	b.n	24109db4 <UART_SetConfig+0x388>
24109cb0:	cfff69f3 	.word	0xcfff69f3
24109cb4:	46000c00 	.word	0x46000c00
24109cb8:	42001000 	.word	0x42001000
24109cbc:	40004400 	.word	0x40004400
24109cc0:	40004800 	.word	0x40004800
24109cc4:	40004c00 	.word	0x40004c00
24109cc8:	40005000 	.word	0x40005000
24109ccc:	42001400 	.word	0x42001400
24109cd0:	40007800 	.word	0x40007800
24109cd4:	40007c00 	.word	0x40007c00
24109cd8:	42001800 	.word	0x42001800
24109cdc:	42001c00 	.word	0x42001c00
24109ce0:	2410ada0 	.word	0x2410ada0
      } /* if ( (lpuart_ker_ck_pres < (3 * huart->Init.BaudRate) ) ||
                (lpuart_ker_ck_pres > (4096 * huart->Init.BaudRate) )) */
    } /* if (pclk != 0) */
  }
  /* Check UART Over Sampling to set Baud Rate Register */
  else if (huart->Init.OverSampling == UART_OVERSAMPLING_8)
24109ce4:	697b      	ldr	r3, [r7, #20]
24109ce6:	69db      	ldr	r3, [r3, #28]
24109ce8:	f5b3 4f00 	cmp.w	r3, #32768	@ 0x8000
24109cec:	d138      	bne.n	24109d60 <UART_SetConfig+0x334>
  {
    pclk = HAL_RCCEx_GetPeriphCLKFreq(clocksource);
24109cee:	e9d7 010c 	ldrd	r0, r1, [r7, #48]	@ 0x30
24109cf2:	f7fb fbe9 	bl	241054c8 <HAL_RCCEx_GetPeriphCLKFreq>
24109cf6:	62b8      	str	r0, [r7, #40]	@ 0x28

    /* USARTDIV must be greater than or equal to 0d16 */
    if (pclk != 0U)
24109cf8:	6abb      	ldr	r3, [r7, #40]	@ 0x28
24109cfa:	2b00      	cmp	r3, #0
24109cfc:	d05a      	beq.n	24109db4 <UART_SetConfig+0x388>
    {
      usartdiv = (uint32_t)(UART_DIV_SAMPLING8(pclk, huart->Init.BaudRate, huart->Init.ClockPrescaler));
24109cfe:	697b      	ldr	r3, [r7, #20]
24109d00:	6a5b      	ldr	r3, [r3, #36]	@ 0x24
24109d02:	4a37      	ldr	r2, [pc, #220]	@ (24109de0 <UART_SetConfig+0x3b4>)
24109d04:	f832 3013 	ldrh.w	r3, [r2, r3, lsl #1]
24109d08:	461a      	mov	r2, r3
24109d0a:	6abb      	ldr	r3, [r7, #40]	@ 0x28
24109d0c:	fbb3 f3f2 	udiv	r3, r3, r2
24109d10:	005a      	lsls	r2, r3, #1
24109d12:	697b      	ldr	r3, [r7, #20]
24109d14:	685b      	ldr	r3, [r3, #4]
24109d16:	085b      	lsrs	r3, r3, #1
24109d18:	441a      	add	r2, r3
24109d1a:	697b      	ldr	r3, [r7, #20]
24109d1c:	685b      	ldr	r3, [r3, #4]
24109d1e:	fbb2 f3f3 	udiv	r3, r2, r3
24109d22:	627b      	str	r3, [r7, #36]	@ 0x24
      if ((usartdiv >= UART_BRR_MIN) && (usartdiv <= UART_BRR_MAX))
24109d24:	6a7b      	ldr	r3, [r7, #36]	@ 0x24
24109d26:	2b0f      	cmp	r3, #15
24109d28:	d916      	bls.n	24109d58 <UART_SetConfig+0x32c>
24109d2a:	6a7b      	ldr	r3, [r7, #36]	@ 0x24
24109d2c:	f5b3 3f80 	cmp.w	r3, #65536	@ 0x10000
24109d30:	d212      	bcs.n	24109d58 <UART_SetConfig+0x32c>
      {
        brrtemp = (uint16_t)(usartdiv & 0xFFF0U);
24109d32:	6a7b      	ldr	r3, [r7, #36]	@ 0x24
24109d34:	b29b      	uxth	r3, r3
24109d36:	f023 030f 	bic.w	r3, r3, #15
24109d3a:	847b      	strh	r3, [r7, #34]	@ 0x22
        brrtemp |= (uint16_t)((usartdiv & (uint16_t)0x000FU) >> 1U);
24109d3c:	6a7b      	ldr	r3, [r7, #36]	@ 0x24
24109d3e:	085b      	lsrs	r3, r3, #1
24109d40:	b29b      	uxth	r3, r3
24109d42:	f003 0307 	and.w	r3, r3, #7
24109d46:	b29a      	uxth	r2, r3
24109d48:	8c7b      	ldrh	r3, [r7, #34]	@ 0x22
24109d4a:	4313      	orrs	r3, r2
24109d4c:	847b      	strh	r3, [r7, #34]	@ 0x22
        huart->Instance->BRR = brrtemp;
24109d4e:	697b      	ldr	r3, [r7, #20]
24109d50:	681b      	ldr	r3, [r3, #0]
24109d52:	8c7a      	ldrh	r2, [r7, #34]	@ 0x22
24109d54:	60da      	str	r2, [r3, #12]
24109d56:	e02d      	b.n	24109db4 <UART_SetConfig+0x388>
      }
      else
      {
        ret = HAL_ERROR;
24109d58:	2301      	movs	r3, #1
24109d5a:	f887 302f 	strb.w	r3, [r7, #47]	@ 0x2f
24109d5e:	e029      	b.n	24109db4 <UART_SetConfig+0x388>
      }
    }
  }
  else
  {
    pclk = HAL_RCCEx_GetPeriphCLKFreq(clocksource);
24109d60:	e9d7 010c 	ldrd	r0, r1, [r7, #48]	@ 0x30
24109d64:	f7fb fbb0 	bl	241054c8 <HAL_RCCEx_GetPeriphCLKFreq>
24109d68:	62b8      	str	r0, [r7, #40]	@ 0x28

    if (pclk != 0U)
24109d6a:	6abb      	ldr	r3, [r7, #40]	@ 0x28
24109d6c:	2b00      	cmp	r3, #0
24109d6e:	d021      	beq.n	24109db4 <UART_SetConfig+0x388>
    {
      /* USARTDIV must be greater than or equal to 0d16 */
      usartdiv = (uint32_t)(UART_DIV_SAMPLING16(pclk, huart->Init.BaudRate, huart->Init.ClockPrescaler));
24109d70:	697b      	ldr	r3, [r7, #20]
24109d72:	6a5b      	ldr	r3, [r3, #36]	@ 0x24
24109d74:	4a1a      	ldr	r2, [pc, #104]	@ (24109de0 <UART_SetConfig+0x3b4>)
24109d76:	f832 3013 	ldrh.w	r3, [r2, r3, lsl #1]
24109d7a:	461a      	mov	r2, r3
24109d7c:	6abb      	ldr	r3, [r7, #40]	@ 0x28
24109d7e:	fbb3 f2f2 	udiv	r2, r3, r2
24109d82:	697b      	ldr	r3, [r7, #20]
24109d84:	685b      	ldr	r3, [r3, #4]
24109d86:	085b      	lsrs	r3, r3, #1
24109d88:	441a      	add	r2, r3
24109d8a:	697b      	ldr	r3, [r7, #20]
24109d8c:	685b      	ldr	r3, [r3, #4]
24109d8e:	fbb2 f3f3 	udiv	r3, r2, r3
24109d92:	627b      	str	r3, [r7, #36]	@ 0x24
      if ((usartdiv >= UART_BRR_MIN) && (usartdiv <= UART_BRR_MAX))
24109d94:	6a7b      	ldr	r3, [r7, #36]	@ 0x24
24109d96:	2b0f      	cmp	r3, #15
24109d98:	d909      	bls.n	24109dae <UART_SetConfig+0x382>
24109d9a:	6a7b      	ldr	r3, [r7, #36]	@ 0x24
24109d9c:	f5b3 3f80 	cmp.w	r3, #65536	@ 0x10000
24109da0:	d205      	bcs.n	24109dae <UART_SetConfig+0x382>
      {
        huart->Instance->BRR = (uint16_t)usartdiv;
24109da2:	6a7b      	ldr	r3, [r7, #36]	@ 0x24
24109da4:	b29a      	uxth	r2, r3
24109da6:	697b      	ldr	r3, [r7, #20]
24109da8:	681b      	ldr	r3, [r3, #0]
24109daa:	60da      	str	r2, [r3, #12]
24109dac:	e002      	b.n	24109db4 <UART_SetConfig+0x388>
      }
      else
      {
        ret = HAL_ERROR;
24109dae:	2301      	movs	r3, #1
24109db0:	f887 302f 	strb.w	r3, [r7, #47]	@ 0x2f
      }
    }
  }

  /* Initialize the number of data to process during RX/TX ISR execution */
  huart->NbTxDataToProcess = 1;
24109db4:	697b      	ldr	r3, [r7, #20]
24109db6:	2201      	movs	r2, #1
24109db8:	f8a3 206a 	strh.w	r2, [r3, #106]	@ 0x6a
  huart->NbRxDataToProcess = 1;
24109dbc:	697b      	ldr	r3, [r7, #20]
24109dbe:	2201      	movs	r2, #1
24109dc0:	f8a3 2068 	strh.w	r2, [r3, #104]	@ 0x68

  /* Clear ISR function pointers */
  huart->RxISR = NULL;
24109dc4:	697b      	ldr	r3, [r7, #20]
24109dc6:	2200      	movs	r2, #0
24109dc8:	675a      	str	r2, [r3, #116]	@ 0x74
  huart->TxISR = NULL;
24109dca:	697b      	ldr	r3, [r7, #20]
24109dcc:	2200      	movs	r2, #0
24109dce:	679a      	str	r2, [r3, #120]	@ 0x78

  return ret;
24109dd0:	f897 302f 	ldrb.w	r3, [r7, #47]	@ 0x2f
}
24109dd4:	4618      	mov	r0, r3
24109dd6:	3740      	adds	r7, #64	@ 0x40
24109dd8:	46bd      	mov	sp, r7
24109dda:	e8bd 8fb0 	ldmia.w	sp!, {r4, r5, r7, r8, r9, sl, fp, pc}
24109dde:	bf00      	nop
24109de0:	2410ada0 	.word	0x2410ada0

24109de4 <UART_AdvFeatureConfig>:
  * @brief Configure the UART peripheral advanced features.
  * @param huart UART handle.
  * @retval None
  */
void UART_AdvFeatureConfig(UART_HandleTypeDef *huart)
{
24109de4:	b480      	push	{r7}
24109de6:	b083      	sub	sp, #12
24109de8:	af00      	add	r7, sp, #0
24109dea:	6078      	str	r0, [r7, #4]
  /* Check whether the set of advanced features to configure is properly set */
  assert_param(IS_UART_ADVFEATURE_INIT(huart->AdvancedInit.AdvFeatureInit));

  /* if required, configure RX/TX pins swap */
  if (HAL_IS_BIT_SET(huart->AdvancedInit.AdvFeatureInit, UART_ADVFEATURE_SWAP_INIT))
24109dec:	687b      	ldr	r3, [r7, #4]
24109dee:	6a9b      	ldr	r3, [r3, #40]	@ 0x28
24109df0:	f003 0308 	and.w	r3, r3, #8
24109df4:	2b00      	cmp	r3, #0
24109df6:	d00a      	beq.n	24109e0e <UART_AdvFeatureConfig+0x2a>
  {
    assert_param(IS_UART_ADVFEATURE_SWAP(huart->AdvancedInit.Swap));
    MODIFY_REG(huart->Instance->CR2, USART_CR2_SWAP, huart->AdvancedInit.Swap);
24109df8:	687b      	ldr	r3, [r7, #4]
24109dfa:	681b      	ldr	r3, [r3, #0]
24109dfc:	685b      	ldr	r3, [r3, #4]
24109dfe:	f423 4100 	bic.w	r1, r3, #32768	@ 0x8000
24109e02:	687b      	ldr	r3, [r7, #4]
24109e04:	6b9a      	ldr	r2, [r3, #56]	@ 0x38
24109e06:	687b      	ldr	r3, [r7, #4]
24109e08:	681b      	ldr	r3, [r3, #0]
24109e0a:	430a      	orrs	r2, r1
24109e0c:	605a      	str	r2, [r3, #4]
  }

  /* if required, configure TX pin active level inversion */
  if (HAL_IS_BIT_SET(huart->AdvancedInit.AdvFeatureInit, UART_ADVFEATURE_TXINVERT_INIT))
24109e0e:	687b      	ldr	r3, [r7, #4]
24109e10:	6a9b      	ldr	r3, [r3, #40]	@ 0x28
24109e12:	f003 0301 	and.w	r3, r3, #1
24109e16:	2b00      	cmp	r3, #0
24109e18:	d00a      	beq.n	24109e30 <UART_AdvFeatureConfig+0x4c>
  {
    assert_param(IS_UART_ADVFEATURE_TXINV(huart->AdvancedInit.TxPinLevelInvert));
    MODIFY_REG(huart->Instance->CR2, USART_CR2_TXINV, huart->AdvancedInit.TxPinLevelInvert);
24109e1a:	687b      	ldr	r3, [r7, #4]
24109e1c:	681b      	ldr	r3, [r3, #0]
24109e1e:	685b      	ldr	r3, [r3, #4]
24109e20:	f423 3100 	bic.w	r1, r3, #131072	@ 0x20000
24109e24:	687b      	ldr	r3, [r7, #4]
24109e26:	6ada      	ldr	r2, [r3, #44]	@ 0x2c
24109e28:	687b      	ldr	r3, [r7, #4]
24109e2a:	681b      	ldr	r3, [r3, #0]
24109e2c:	430a      	orrs	r2, r1
24109e2e:	605a      	str	r2, [r3, #4]
  }

  /* if required, configure RX pin active level inversion */
  if (HAL_IS_BIT_SET(huart->AdvancedInit.AdvFeatureInit, UART_ADVFEATURE_RXINVERT_INIT))
24109e30:	687b      	ldr	r3, [r7, #4]
24109e32:	6a9b      	ldr	r3, [r3, #40]	@ 0x28
24109e34:	f003 0302 	and.w	r3, r3, #2
24109e38:	2b00      	cmp	r3, #0
24109e3a:	d00a      	beq.n	24109e52 <UART_AdvFeatureConfig+0x6e>
  {
    assert_param(IS_UART_ADVFEATURE_RXINV(huart->AdvancedInit.RxPinLevelInvert));
    MODIFY_REG(huart->Instance->CR2, USART_CR2_RXINV, huart->AdvancedInit.RxPinLevelInvert);
24109e3c:	687b      	ldr	r3, [r7, #4]
24109e3e:	681b      	ldr	r3, [r3, #0]
24109e40:	685b      	ldr	r3, [r3, #4]
24109e42:	f423 3180 	bic.w	r1, r3, #65536	@ 0x10000
24109e46:	687b      	ldr	r3, [r7, #4]
24109e48:	6b1a      	ldr	r2, [r3, #48]	@ 0x30
24109e4a:	687b      	ldr	r3, [r7, #4]
24109e4c:	681b      	ldr	r3, [r3, #0]
24109e4e:	430a      	orrs	r2, r1
24109e50:	605a      	str	r2, [r3, #4]
  }

  /* if required, configure data inversion */
  if (HAL_IS_BIT_SET(huart->AdvancedInit.AdvFeatureInit, UART_ADVFEATURE_DATAINVERT_INIT))
24109e52:	687b      	ldr	r3, [r7, #4]
24109e54:	6a9b      	ldr	r3, [r3, #40]	@ 0x28
24109e56:	f003 0304 	and.w	r3, r3, #4
24109e5a:	2b00      	cmp	r3, #0
24109e5c:	d00a      	beq.n	24109e74 <UART_AdvFeatureConfig+0x90>
  {
    assert_param(IS_UART_ADVFEATURE_DATAINV(huart->AdvancedInit.DataInvert));
    MODIFY_REG(huart->Instance->CR2, USART_CR2_DATAINV, huart->AdvancedInit.DataInvert);
24109e5e:	687b      	ldr	r3, [r7, #4]
24109e60:	681b      	ldr	r3, [r3, #0]
24109e62:	685b      	ldr	r3, [r3, #4]
24109e64:	f423 2180 	bic.w	r1, r3, #262144	@ 0x40000
24109e68:	687b      	ldr	r3, [r7, #4]
24109e6a:	6b5a      	ldr	r2, [r3, #52]	@ 0x34
24109e6c:	687b      	ldr	r3, [r7, #4]
24109e6e:	681b      	ldr	r3, [r3, #0]
24109e70:	430a      	orrs	r2, r1
24109e72:	605a      	str	r2, [r3, #4]
  }

  /* if required, configure RX overrun detection disabling */
  if (HAL_IS_BIT_SET(huart->AdvancedInit.AdvFeatureInit, UART_ADVFEATURE_RXOVERRUNDISABLE_INIT))
24109e74:	687b      	ldr	r3, [r7, #4]
24109e76:	6a9b      	ldr	r3, [r3, #40]	@ 0x28
24109e78:	f003 0310 	and.w	r3, r3, #16
24109e7c:	2b00      	cmp	r3, #0
24109e7e:	d00a      	beq.n	24109e96 <UART_AdvFeatureConfig+0xb2>
  {
    assert_param(IS_UART_OVERRUN(huart->AdvancedInit.OverrunDisable));
    MODIFY_REG(huart->Instance->CR3, USART_CR3_OVRDIS, huart->AdvancedInit.OverrunDisable);
24109e80:	687b      	ldr	r3, [r7, #4]
24109e82:	681b      	ldr	r3, [r3, #0]
24109e84:	689b      	ldr	r3, [r3, #8]
24109e86:	f423 5180 	bic.w	r1, r3, #4096	@ 0x1000
24109e8a:	687b      	ldr	r3, [r7, #4]
24109e8c:	6bda      	ldr	r2, [r3, #60]	@ 0x3c
24109e8e:	687b      	ldr	r3, [r7, #4]
24109e90:	681b      	ldr	r3, [r3, #0]
24109e92:	430a      	orrs	r2, r1
24109e94:	609a      	str	r2, [r3, #8]
  }

#if defined(HAL_DMA_MODULE_ENABLED)
  /* if required, configure DMA disabling on reception error */
  if (HAL_IS_BIT_SET(huart->AdvancedInit.AdvFeatureInit, UART_ADVFEATURE_DMADISABLEONERROR_INIT))
24109e96:	687b      	ldr	r3, [r7, #4]
24109e98:	6a9b      	ldr	r3, [r3, #40]	@ 0x28
24109e9a:	f003 0320 	and.w	r3, r3, #32
24109e9e:	2b00      	cmp	r3, #0
24109ea0:	d00a      	beq.n	24109eb8 <UART_AdvFeatureConfig+0xd4>
  {
    assert_param(IS_UART_ADVFEATURE_DMAONRXERROR(huart->AdvancedInit.DMADisableonRxError));
    MODIFY_REG(huart->Instance->CR3, USART_CR3_DDRE, huart->AdvancedInit.DMADisableonRxError);
24109ea2:	687b      	ldr	r3, [r7, #4]
24109ea4:	681b      	ldr	r3, [r3, #0]
24109ea6:	689b      	ldr	r3, [r3, #8]
24109ea8:	f423 5100 	bic.w	r1, r3, #8192	@ 0x2000
24109eac:	687b      	ldr	r3, [r7, #4]
24109eae:	6c1a      	ldr	r2, [r3, #64]	@ 0x40
24109eb0:	687b      	ldr	r3, [r7, #4]
24109eb2:	681b      	ldr	r3, [r3, #0]
24109eb4:	430a      	orrs	r2, r1
24109eb6:	609a      	str	r2, [r3, #8]
  }
#endif /* HAL_DMA_MODULE_ENABLED */

  /* if required, configure auto Baud rate detection scheme */
  if (HAL_IS_BIT_SET(huart->AdvancedInit.AdvFeatureInit, UART_ADVFEATURE_AUTOBAUDRATE_INIT))
24109eb8:	687b      	ldr	r3, [r7, #4]
24109eba:	6a9b      	ldr	r3, [r3, #40]	@ 0x28
24109ebc:	f003 0340 	and.w	r3, r3, #64	@ 0x40
24109ec0:	2b00      	cmp	r3, #0
24109ec2:	d01a      	beq.n	24109efa <UART_AdvFeatureConfig+0x116>
  {
    assert_param(IS_USART_AUTOBAUDRATE_DETECTION_INSTANCE(huart->Instance));
    assert_param(IS_UART_ADVFEATURE_AUTOBAUDRATE(huart->AdvancedInit.AutoBaudRateEnable));
    MODIFY_REG(huart->Instance->CR2, USART_CR2_ABREN, huart->AdvancedInit.AutoBaudRateEnable);
24109ec4:	687b      	ldr	r3, [r7, #4]
24109ec6:	681b      	ldr	r3, [r3, #0]
24109ec8:	685b      	ldr	r3, [r3, #4]
24109eca:	f423 1180 	bic.w	r1, r3, #1048576	@ 0x100000
24109ece:	687b      	ldr	r3, [r7, #4]
24109ed0:	6c5a      	ldr	r2, [r3, #68]	@ 0x44
24109ed2:	687b      	ldr	r3, [r7, #4]
24109ed4:	681b      	ldr	r3, [r3, #0]
24109ed6:	430a      	orrs	r2, r1
24109ed8:	605a      	str	r2, [r3, #4]
    /* set auto Baudrate detection parameters if detection is enabled */
    if (huart->AdvancedInit.AutoBaudRateEnable == UART_ADVFEATURE_AUTOBAUDRATE_ENABLE)
24109eda:	687b      	ldr	r3, [r7, #4]
24109edc:	6c5b      	ldr	r3, [r3, #68]	@ 0x44
24109ede:	f5b3 1f80 	cmp.w	r3, #1048576	@ 0x100000
24109ee2:	d10a      	bne.n	24109efa <UART_AdvFeatureConfig+0x116>
    {
      assert_param(IS_UART_ADVFEATURE_AUTOBAUDRATEMODE(huart->AdvancedInit.AutoBaudRateMode));
      MODIFY_REG(huart->Instance->CR2, USART_CR2_ABRMODE, huart->AdvancedInit.AutoBaudRateMode);
24109ee4:	687b      	ldr	r3, [r7, #4]
24109ee6:	681b      	ldr	r3, [r3, #0]
24109ee8:	685b      	ldr	r3, [r3, #4]
24109eea:	f423 01c0 	bic.w	r1, r3, #6291456	@ 0x600000
24109eee:	687b      	ldr	r3, [r7, #4]
24109ef0:	6c9a      	ldr	r2, [r3, #72]	@ 0x48
24109ef2:	687b      	ldr	r3, [r7, #4]
24109ef4:	681b      	ldr	r3, [r3, #0]
24109ef6:	430a      	orrs	r2, r1
24109ef8:	605a      	str	r2, [r3, #4]
    }
  }

  /* if required, configure MSB first on communication line */
  if (HAL_IS_BIT_SET(huart->AdvancedInit.AdvFeatureInit, UART_ADVFEATURE_MSBFIRST_INIT))
24109efa:	687b      	ldr	r3, [r7, #4]
24109efc:	6a9b      	ldr	r3, [r3, #40]	@ 0x28
24109efe:	f003 0380 	and.w	r3, r3, #128	@ 0x80
24109f02:	2b00      	cmp	r3, #0
24109f04:	d00a      	beq.n	24109f1c <UART_AdvFeatureConfig+0x138>
  {
    assert_param(IS_UART_ADVFEATURE_MSBFIRST(huart->AdvancedInit.MSBFirst));
    MODIFY_REG(huart->Instance->CR2, USART_CR2_MSBFIRST, huart->AdvancedInit.MSBFirst);
24109f06:	687b      	ldr	r3, [r7, #4]
24109f08:	681b      	ldr	r3, [r3, #0]
24109f0a:	685b      	ldr	r3, [r3, #4]
24109f0c:	f423 2100 	bic.w	r1, r3, #524288	@ 0x80000
24109f10:	687b      	ldr	r3, [r7, #4]
24109f12:	6cda      	ldr	r2, [r3, #76]	@ 0x4c
24109f14:	687b      	ldr	r3, [r7, #4]
24109f16:	681b      	ldr	r3, [r3, #0]
24109f18:	430a      	orrs	r2, r1
24109f1a:	605a      	str	r2, [r3, #4]
  }
}
24109f1c:	bf00      	nop
24109f1e:	370c      	adds	r7, #12
24109f20:	46bd      	mov	sp, r7
24109f22:	f85d 7b04 	ldr.w	r7, [sp], #4
24109f26:	4770      	bx	lr

24109f28 <UART_CheckIdleState>:
  * @brief Check the UART Idle State.
  * @param huart UART handle.
  * @retval HAL status
  */
HAL_StatusTypeDef UART_CheckIdleState(UART_HandleTypeDef *huart)
{
24109f28:	b580      	push	{r7, lr}
24109f2a:	b098      	sub	sp, #96	@ 0x60
24109f2c:	af02      	add	r7, sp, #8
24109f2e:	6078      	str	r0, [r7, #4]
  uint32_t tickstart;

  /* Initialize the UART ErrorCode */
  huart->ErrorCode = HAL_UART_ERROR_NONE;
24109f30:	687b      	ldr	r3, [r7, #4]
24109f32:	2200      	movs	r2, #0
24109f34:	f8c3 2090 	str.w	r2, [r3, #144]	@ 0x90

  /* Init tickstart for timeout management */
  tickstart = HAL_GetTick();
24109f38:	f7f7 f8ba 	bl	241010b0 <HAL_GetTick>
24109f3c:	6578      	str	r0, [r7, #84]	@ 0x54

  /* Check if the Transmitter is enabled */
  if ((huart->Instance->CR1 & USART_CR1_TE) == USART_CR1_TE)
24109f3e:	687b      	ldr	r3, [r7, #4]
24109f40:	681b      	ldr	r3, [r3, #0]
24109f42:	681b      	ldr	r3, [r3, #0]
24109f44:	f003 0308 	and.w	r3, r3, #8
24109f48:	2b08      	cmp	r3, #8
24109f4a:	d12f      	bne.n	24109fac <UART_CheckIdleState+0x84>
  {
    /* Wait until TEACK flag is set */
    if (UART_WaitOnFlagUntilTimeout(huart, USART_ISR_TEACK, RESET, tickstart, HAL_UART_TIMEOUT_VALUE) != HAL_OK)
24109f4c:	f06f 437e 	mvn.w	r3, #4261412864	@ 0xfe000000
24109f50:	9300      	str	r3, [sp, #0]
24109f52:	6d7b      	ldr	r3, [r7, #84]	@ 0x54
24109f54:	2200      	movs	r2, #0
24109f56:	f44f 1100 	mov.w	r1, #2097152	@ 0x200000
24109f5a:	6878      	ldr	r0, [r7, #4]
24109f5c:	f000 f88e 	bl	2410a07c <UART_WaitOnFlagUntilTimeout>
24109f60:	4603      	mov	r3, r0
24109f62:	2b00      	cmp	r3, #0
24109f64:	d022      	beq.n	24109fac <UART_CheckIdleState+0x84>
    {
      /* Disable TXE interrupt for the interrupt process */
      ATOMIC_CLEAR_BIT(huart->Instance->CR1, (USART_CR1_TXEIE_TXFNFIE));
24109f66:	687b      	ldr	r3, [r7, #4]
24109f68:	681b      	ldr	r3, [r3, #0]
24109f6a:	63bb      	str	r3, [r7, #56]	@ 0x38
  __ASM volatile ("ldrex %0, %1" : "=r" (result) : "Q" (*addr) );
24109f6c:	6bbb      	ldr	r3, [r7, #56]	@ 0x38
24109f6e:	e853 3f00 	ldrex	r3, [r3]
24109f72:	637b      	str	r3, [r7, #52]	@ 0x34
  return (result);
24109f74:	6b7b      	ldr	r3, [r7, #52]	@ 0x34
24109f76:	f023 0380 	bic.w	r3, r3, #128	@ 0x80
24109f7a:	653b      	str	r3, [r7, #80]	@ 0x50
24109f7c:	687b      	ldr	r3, [r7, #4]
24109f7e:	681b      	ldr	r3, [r3, #0]
24109f80:	461a      	mov	r2, r3
24109f82:	6d3b      	ldr	r3, [r7, #80]	@ 0x50
24109f84:	647b      	str	r3, [r7, #68]	@ 0x44
24109f86:	643a      	str	r2, [r7, #64]	@ 0x40
  __ASM volatile ("strex %0, %2, %1" : "=&r" (result), "=Q" (*addr) : "r" (value) );
24109f88:	6c39      	ldr	r1, [r7, #64]	@ 0x40
24109f8a:	6c7a      	ldr	r2, [r7, #68]	@ 0x44
24109f8c:	e841 2300 	strex	r3, r2, [r1]
24109f90:	63fb      	str	r3, [r7, #60]	@ 0x3c
  return (result);
24109f92:	6bfb      	ldr	r3, [r7, #60]	@ 0x3c
24109f94:	2b00      	cmp	r3, #0
24109f96:	d1e6      	bne.n	24109f66 <UART_CheckIdleState+0x3e>

      huart->gState = HAL_UART_STATE_READY;
24109f98:	687b      	ldr	r3, [r7, #4]
24109f9a:	2220      	movs	r2, #32
24109f9c:	f8c3 2088 	str.w	r2, [r3, #136]	@ 0x88

      __HAL_UNLOCK(huart);
24109fa0:	687b      	ldr	r3, [r7, #4]
24109fa2:	2200      	movs	r2, #0
24109fa4:	f883 2084 	strb.w	r2, [r3, #132]	@ 0x84

      /* Timeout occurred */
      return HAL_TIMEOUT;
24109fa8:	2303      	movs	r3, #3
24109faa:	e063      	b.n	2410a074 <UART_CheckIdleState+0x14c>
    }
  }

  /* Check if the Receiver is enabled */
  if ((huart->Instance->CR1 & USART_CR1_RE) == USART_CR1_RE)
24109fac:	687b      	ldr	r3, [r7, #4]
24109fae:	681b      	ldr	r3, [r3, #0]
24109fb0:	681b      	ldr	r3, [r3, #0]
24109fb2:	f003 0304 	and.w	r3, r3, #4
24109fb6:	2b04      	cmp	r3, #4
24109fb8:	d149      	bne.n	2410a04e <UART_CheckIdleState+0x126>
  {
    /* Wait until REACK flag is set */
    if (UART_WaitOnFlagUntilTimeout(huart, USART_ISR_REACK, RESET, tickstart, HAL_UART_TIMEOUT_VALUE) != HAL_OK)
24109fba:	f06f 437e 	mvn.w	r3, #4261412864	@ 0xfe000000
24109fbe:	9300      	str	r3, [sp, #0]
24109fc0:	6d7b      	ldr	r3, [r7, #84]	@ 0x54
24109fc2:	2200      	movs	r2, #0
24109fc4:	f44f 0180 	mov.w	r1, #4194304	@ 0x400000
24109fc8:	6878      	ldr	r0, [r7, #4]
24109fca:	f000 f857 	bl	2410a07c <UART_WaitOnFlagUntilTimeout>
24109fce:	4603      	mov	r3, r0
24109fd0:	2b00      	cmp	r3, #0
24109fd2:	d03c      	beq.n	2410a04e <UART_CheckIdleState+0x126>
    {
      /* Disable RXNE, PE and ERR (Frame error, noise error, overrun error)
      interrupts for the interrupt process */
      ATOMIC_CLEAR_BIT(huart->Instance->CR1, (USART_CR1_RXNEIE_RXFNEIE | USART_CR1_PEIE));
24109fd4:	687b      	ldr	r3, [r7, #4]
24109fd6:	681b      	ldr	r3, [r3, #0]
24109fd8:	627b      	str	r3, [r7, #36]	@ 0x24
  __ASM volatile ("ldrex %0, %1" : "=r" (result) : "Q" (*addr) );
24109fda:	6a7b      	ldr	r3, [r7, #36]	@ 0x24
24109fdc:	e853 3f00 	ldrex	r3, [r3]
24109fe0:	623b      	str	r3, [r7, #32]
  return (result);
24109fe2:	6a3b      	ldr	r3, [r7, #32]
24109fe4:	f423 7390 	bic.w	r3, r3, #288	@ 0x120
24109fe8:	64fb      	str	r3, [r7, #76]	@ 0x4c
24109fea:	687b      	ldr	r3, [r7, #4]
24109fec:	681b      	ldr	r3, [r3, #0]
24109fee:	461a      	mov	r2, r3
24109ff0:	6cfb      	ldr	r3, [r7, #76]	@ 0x4c
24109ff2:	633b      	str	r3, [r7, #48]	@ 0x30
24109ff4:	62fa      	str	r2, [r7, #44]	@ 0x2c
  __ASM volatile ("strex %0, %2, %1" : "=&r" (result), "=Q" (*addr) : "r" (value) );
24109ff6:	6af9      	ldr	r1, [r7, #44]	@ 0x2c
24109ff8:	6b3a      	ldr	r2, [r7, #48]	@ 0x30
24109ffa:	e841 2300 	strex	r3, r2, [r1]
24109ffe:	62bb      	str	r3, [r7, #40]	@ 0x28
  return (result);
2410a000:	6abb      	ldr	r3, [r7, #40]	@ 0x28
2410a002:	2b00      	cmp	r3, #0
2410a004:	d1e6      	bne.n	24109fd4 <UART_CheckIdleState+0xac>
      ATOMIC_CLEAR_BIT(huart->Instance->CR3, USART_CR3_EIE);
2410a006:	687b      	ldr	r3, [r7, #4]
2410a008:	681b      	ldr	r3, [r3, #0]
2410a00a:	3308      	adds	r3, #8
2410a00c:	613b      	str	r3, [r7, #16]
  __ASM volatile ("ldrex %0, %1" : "=r" (result) : "Q" (*addr) );
2410a00e:	693b      	ldr	r3, [r7, #16]
2410a010:	e853 3f00 	ldrex	r3, [r3]
2410a014:	60fb      	str	r3, [r7, #12]
  return (result);
2410a016:	68fb      	ldr	r3, [r7, #12]
2410a018:	f023 0301 	bic.w	r3, r3, #1
2410a01c:	64bb      	str	r3, [r7, #72]	@ 0x48
2410a01e:	687b      	ldr	r3, [r7, #4]
2410a020:	681b      	ldr	r3, [r3, #0]
2410a022:	3308      	adds	r3, #8
2410a024:	6cba      	ldr	r2, [r7, #72]	@ 0x48
2410a026:	61fa      	str	r2, [r7, #28]
2410a028:	61bb      	str	r3, [r7, #24]
  __ASM volatile ("strex %0, %2, %1" : "=&r" (result), "=Q" (*addr) : "r" (value) );
2410a02a:	69b9      	ldr	r1, [r7, #24]
2410a02c:	69fa      	ldr	r2, [r7, #28]
2410a02e:	e841 2300 	strex	r3, r2, [r1]
2410a032:	617b      	str	r3, [r7, #20]
  return (result);
2410a034:	697b      	ldr	r3, [r7, #20]
2410a036:	2b00      	cmp	r3, #0
2410a038:	d1e5      	bne.n	2410a006 <UART_CheckIdleState+0xde>

      huart->RxState = HAL_UART_STATE_READY;
2410a03a:	687b      	ldr	r3, [r7, #4]
2410a03c:	2220      	movs	r2, #32
2410a03e:	f8c3 208c 	str.w	r2, [r3, #140]	@ 0x8c

      __HAL_UNLOCK(huart);
2410a042:	687b      	ldr	r3, [r7, #4]
2410a044:	2200      	movs	r2, #0
2410a046:	f883 2084 	strb.w	r2, [r3, #132]	@ 0x84

      /* Timeout occurred */
      return HAL_TIMEOUT;
2410a04a:	2303      	movs	r3, #3
2410a04c:	e012      	b.n	2410a074 <UART_CheckIdleState+0x14c>
    }
  }

  /* Initialize the UART State */
  huart->gState = HAL_UART_STATE_READY;
2410a04e:	687b      	ldr	r3, [r7, #4]
2410a050:	2220      	movs	r2, #32
2410a052:	f8c3 2088 	str.w	r2, [r3, #136]	@ 0x88
  huart->RxState = HAL_UART_STATE_READY;
2410a056:	687b      	ldr	r3, [r7, #4]
2410a058:	2220      	movs	r2, #32
2410a05a:	f8c3 208c 	str.w	r2, [r3, #140]	@ 0x8c
  huart->ReceptionType = HAL_UART_RECEPTION_STANDARD;
2410a05e:	687b      	ldr	r3, [r7, #4]
2410a060:	2200      	movs	r2, #0
2410a062:	66da      	str	r2, [r3, #108]	@ 0x6c
  huart->RxEventType = HAL_UART_RXEVENT_TC;
2410a064:	687b      	ldr	r3, [r7, #4]
2410a066:	2200      	movs	r2, #0
2410a068:	671a      	str	r2, [r3, #112]	@ 0x70

  __HAL_UNLOCK(huart);
2410a06a:	687b      	ldr	r3, [r7, #4]
2410a06c:	2200      	movs	r2, #0
2410a06e:	f883 2084 	strb.w	r2, [r3, #132]	@ 0x84

  return HAL_OK;
2410a072:	2300      	movs	r3, #0
}
2410a074:	4618      	mov	r0, r3
2410a076:	3758      	adds	r7, #88	@ 0x58
2410a078:	46bd      	mov	sp, r7
2410a07a:	bd80      	pop	{r7, pc}

2410a07c <UART_WaitOnFlagUntilTimeout>:
  * @param Timeout   Timeout duration
  * @retval HAL status
  */
HAL_StatusTypeDef UART_WaitOnFlagUntilTimeout(UART_HandleTypeDef *huart, uint32_t Flag, FlagStatus Status,
                                              uint32_t Tickstart, uint32_t Timeout)
{
2410a07c:	b580      	push	{r7, lr}
2410a07e:	b084      	sub	sp, #16
2410a080:	af00      	add	r7, sp, #0
2410a082:	60f8      	str	r0, [r7, #12]
2410a084:	60b9      	str	r1, [r7, #8]
2410a086:	603b      	str	r3, [r7, #0]
2410a088:	4613      	mov	r3, r2
2410a08a:	71fb      	strb	r3, [r7, #7]
  /* Wait until flag is set */
  while ((__HAL_UART_GET_FLAG(huart, Flag) ? SET : RESET) == Status)
2410a08c:	e04f      	b.n	2410a12e <UART_WaitOnFlagUntilTimeout+0xb2>
  {
    /* Check for the Timeout */
    if (Timeout != HAL_MAX_DELAY)
2410a08e:	69bb      	ldr	r3, [r7, #24]
2410a090:	f1b3 3fff 	cmp.w	r3, #4294967295	@ 0xffffffff
2410a094:	d04b      	beq.n	2410a12e <UART_WaitOnFlagUntilTimeout+0xb2>
    {
      if (((HAL_GetTick() - Tickstart) > Timeout) || (Timeout == 0U))
2410a096:	f7f7 f80b 	bl	241010b0 <HAL_GetTick>
2410a09a:	4602      	mov	r2, r0
2410a09c:	683b      	ldr	r3, [r7, #0]
2410a09e:	1ad3      	subs	r3, r2, r3
2410a0a0:	69ba      	ldr	r2, [r7, #24]
2410a0a2:	429a      	cmp	r2, r3
2410a0a4:	d302      	bcc.n	2410a0ac <UART_WaitOnFlagUntilTimeout+0x30>
2410a0a6:	69bb      	ldr	r3, [r7, #24]
2410a0a8:	2b00      	cmp	r3, #0
2410a0aa:	d101      	bne.n	2410a0b0 <UART_WaitOnFlagUntilTimeout+0x34>
      {

        return HAL_TIMEOUT;
2410a0ac:	2303      	movs	r3, #3
2410a0ae:	e04e      	b.n	2410a14e <UART_WaitOnFlagUntilTimeout+0xd2>
      }

      if ((READ_BIT(huart->Instance->CR1, USART_CR1_RE) != 0U) && (Flag != UART_FLAG_TXE) && (Flag != UART_FLAG_TC))
2410a0b0:	68fb      	ldr	r3, [r7, #12]
2410a0b2:	681b      	ldr	r3, [r3, #0]
2410a0b4:	681b      	ldr	r3, [r3, #0]
2410a0b6:	f003 0304 	and.w	r3, r3, #4
2410a0ba:	2b00      	cmp	r3, #0
2410a0bc:	d037      	beq.n	2410a12e <UART_WaitOnFlagUntilTimeout+0xb2>
2410a0be:	68bb      	ldr	r3, [r7, #8]
2410a0c0:	2b80      	cmp	r3, #128	@ 0x80
2410a0c2:	d034      	beq.n	2410a12e <UART_WaitOnFlagUntilTimeout+0xb2>
2410a0c4:	68bb      	ldr	r3, [r7, #8]
2410a0c6:	2b40      	cmp	r3, #64	@ 0x40
2410a0c8:	d031      	beq.n	2410a12e <UART_WaitOnFlagUntilTimeout+0xb2>
      {
        if (__HAL_UART_GET_FLAG(huart, UART_FLAG_ORE) == SET)
2410a0ca:	68fb      	ldr	r3, [r7, #12]
2410a0cc:	681b      	ldr	r3, [r3, #0]
2410a0ce:	69db      	ldr	r3, [r3, #28]
2410a0d0:	f003 0308 	and.w	r3, r3, #8
2410a0d4:	2b08      	cmp	r3, #8
2410a0d6:	d110      	bne.n	2410a0fa <UART_WaitOnFlagUntilTimeout+0x7e>
        {
          /* Clear Overrun Error flag*/
          __HAL_UART_CLEAR_FLAG(huart, UART_CLEAR_OREF);
2410a0d8:	68fb      	ldr	r3, [r7, #12]
2410a0da:	681b      	ldr	r3, [r3, #0]
2410a0dc:	2208      	movs	r2, #8
2410a0de:	621a      	str	r2, [r3, #32]

          /* Blocking error : transfer is aborted
          Set the UART state ready to be able to start again the process,
          Disable Rx Interrupts if ongoing */
          UART_EndRxTransfer(huart);
2410a0e0:	68f8      	ldr	r0, [r7, #12]
2410a0e2:	f000 f838 	bl	2410a156 <UART_EndRxTransfer>

          huart->ErrorCode = HAL_UART_ERROR_ORE;
2410a0e6:	68fb      	ldr	r3, [r7, #12]
2410a0e8:	2208      	movs	r2, #8
2410a0ea:	f8c3 2090 	str.w	r2, [r3, #144]	@ 0x90

          /* Process Unlocked */
          __HAL_UNLOCK(huart);
2410a0ee:	68fb      	ldr	r3, [r7, #12]
2410a0f0:	2200      	movs	r2, #0
2410a0f2:	f883 2084 	strb.w	r2, [r3, #132]	@ 0x84

          return HAL_ERROR;
2410a0f6:	2301      	movs	r3, #1
2410a0f8:	e029      	b.n	2410a14e <UART_WaitOnFlagUntilTimeout+0xd2>
        }
        if (__HAL_UART_GET_FLAG(huart, UART_FLAG_RTOF) == SET)
2410a0fa:	68fb      	ldr	r3, [r7, #12]
2410a0fc:	681b      	ldr	r3, [r3, #0]
2410a0fe:	69db      	ldr	r3, [r3, #28]
2410a100:	f403 6300 	and.w	r3, r3, #2048	@ 0x800
2410a104:	f5b3 6f00 	cmp.w	r3, #2048	@ 0x800
2410a108:	d111      	bne.n	2410a12e <UART_WaitOnFlagUntilTimeout+0xb2>
        {
          /* Clear Receiver Timeout flag*/
          __HAL_UART_CLEAR_FLAG(huart, UART_CLEAR_RTOF);
2410a10a:	68fb      	ldr	r3, [r7, #12]
2410a10c:	681b      	ldr	r3, [r3, #0]
2410a10e:	f44f 6200 	mov.w	r2, #2048	@ 0x800
2410a112:	621a      	str	r2, [r3, #32]

          /* Blocking error : transfer is aborted
          Set the UART state ready to be able to start again the process,
          Disable Rx Interrupts if ongoing */
          UART_EndRxTransfer(huart);
2410a114:	68f8      	ldr	r0, [r7, #12]
2410a116:	f000 f81e 	bl	2410a156 <UART_EndRxTransfer>

          huart->ErrorCode = HAL_UART_ERROR_RTO;
2410a11a:	68fb      	ldr	r3, [r7, #12]
2410a11c:	2220      	movs	r2, #32
2410a11e:	f8c3 2090 	str.w	r2, [r3, #144]	@ 0x90

          /* Process Unlocked */
          __HAL_UNLOCK(huart);
2410a122:	68fb      	ldr	r3, [r7, #12]
2410a124:	2200      	movs	r2, #0
2410a126:	f883 2084 	strb.w	r2, [r3, #132]	@ 0x84

          return HAL_TIMEOUT;
2410a12a:	2303      	movs	r3, #3
2410a12c:	e00f      	b.n	2410a14e <UART_WaitOnFlagUntilTimeout+0xd2>
  while ((__HAL_UART_GET_FLAG(huart, Flag) ? SET : RESET) == Status)
2410a12e:	68fb      	ldr	r3, [r7, #12]
2410a130:	681b      	ldr	r3, [r3, #0]
2410a132:	69da      	ldr	r2, [r3, #28]
2410a134:	68bb      	ldr	r3, [r7, #8]
2410a136:	4013      	ands	r3, r2
2410a138:	68ba      	ldr	r2, [r7, #8]
2410a13a:	429a      	cmp	r2, r3
2410a13c:	bf0c      	ite	eq
2410a13e:	2301      	moveq	r3, #1
2410a140:	2300      	movne	r3, #0
2410a142:	b2db      	uxtb	r3, r3
2410a144:	461a      	mov	r2, r3
2410a146:	79fb      	ldrb	r3, [r7, #7]
2410a148:	429a      	cmp	r2, r3
2410a14a:	d0a0      	beq.n	2410a08e <UART_WaitOnFlagUntilTimeout+0x12>
        }
      }
    }
  }
  return HAL_OK;
2410a14c:	2300      	movs	r3, #0
}
2410a14e:	4618      	mov	r0, r3
2410a150:	3710      	adds	r7, #16
2410a152:	46bd      	mov	sp, r7
2410a154:	bd80      	pop	{r7, pc}

2410a156 <UART_EndRxTransfer>:
  * @brief  End ongoing Rx transfer on UART peripheral (following error detection or Reception completion).
  * @param  huart UART handle.
  * @retval None
  */
static void UART_EndRxTransfer(UART_HandleTypeDef *huart)
{
2410a156:	b480      	push	{r7}
2410a158:	b095      	sub	sp, #84	@ 0x54
2410a15a:	af00      	add	r7, sp, #0
2410a15c:	6078      	str	r0, [r7, #4]
  /* Disable RXNE, PE and ERR (Frame error, noise error, overrun error) interrupts */
  ATOMIC_CLEAR_BIT(huart->Instance->CR1, (USART_CR1_RXNEIE_RXFNEIE | USART_CR1_PEIE));
2410a15e:	687b      	ldr	r3, [r7, #4]
2410a160:	681b      	ldr	r3, [r3, #0]
2410a162:	637b      	str	r3, [r7, #52]	@ 0x34
  __ASM volatile ("ldrex %0, %1" : "=r" (result) : "Q" (*addr) );
2410a164:	6b7b      	ldr	r3, [r7, #52]	@ 0x34
2410a166:	e853 3f00 	ldrex	r3, [r3]
2410a16a:	633b      	str	r3, [r7, #48]	@ 0x30
  return (result);
2410a16c:	6b3b      	ldr	r3, [r7, #48]	@ 0x30
2410a16e:	f423 7390 	bic.w	r3, r3, #288	@ 0x120
2410a172:	64fb      	str	r3, [r7, #76]	@ 0x4c
2410a174:	687b      	ldr	r3, [r7, #4]
2410a176:	681b      	ldr	r3, [r3, #0]
2410a178:	461a      	mov	r2, r3
2410a17a:	6cfb      	ldr	r3, [r7, #76]	@ 0x4c
2410a17c:	643b      	str	r3, [r7, #64]	@ 0x40
2410a17e:	63fa      	str	r2, [r7, #60]	@ 0x3c
  __ASM volatile ("strex %0, %2, %1" : "=&r" (result), "=Q" (*addr) : "r" (value) );
2410a180:	6bf9      	ldr	r1, [r7, #60]	@ 0x3c
2410a182:	6c3a      	ldr	r2, [r7, #64]	@ 0x40
2410a184:	e841 2300 	strex	r3, r2, [r1]
2410a188:	63bb      	str	r3, [r7, #56]	@ 0x38
  return (result);
2410a18a:	6bbb      	ldr	r3, [r7, #56]	@ 0x38
2410a18c:	2b00      	cmp	r3, #0
2410a18e:	d1e6      	bne.n	2410a15e <UART_EndRxTransfer+0x8>
  ATOMIC_CLEAR_BIT(huart->Instance->CR3, (USART_CR3_EIE | USART_CR3_RXFTIE));
2410a190:	687b      	ldr	r3, [r7, #4]
2410a192:	681b      	ldr	r3, [r3, #0]
2410a194:	3308      	adds	r3, #8
2410a196:	623b      	str	r3, [r7, #32]
  __ASM volatile ("ldrex %0, %1" : "=r" (result) : "Q" (*addr) );
2410a198:	6a3b      	ldr	r3, [r7, #32]
2410a19a:	e853 3f00 	ldrex	r3, [r3]
2410a19e:	61fb      	str	r3, [r7, #28]
  return (result);
2410a1a0:	69fb      	ldr	r3, [r7, #28]
2410a1a2:	f023 5380 	bic.w	r3, r3, #268435456	@ 0x10000000
2410a1a6:	f023 0301 	bic.w	r3, r3, #1
2410a1aa:	64bb      	str	r3, [r7, #72]	@ 0x48
2410a1ac:	687b      	ldr	r3, [r7, #4]
2410a1ae:	681b      	ldr	r3, [r3, #0]
2410a1b0:	3308      	adds	r3, #8
2410a1b2:	6cba      	ldr	r2, [r7, #72]	@ 0x48
2410a1b4:	62fa      	str	r2, [r7, #44]	@ 0x2c
2410a1b6:	62bb      	str	r3, [r7, #40]	@ 0x28
  __ASM volatile ("strex %0, %2, %1" : "=&r" (result), "=Q" (*addr) : "r" (value) );
2410a1b8:	6ab9      	ldr	r1, [r7, #40]	@ 0x28
2410a1ba:	6afa      	ldr	r2, [r7, #44]	@ 0x2c
2410a1bc:	e841 2300 	strex	r3, r2, [r1]
2410a1c0:	627b      	str	r3, [r7, #36]	@ 0x24
  return (result);
2410a1c2:	6a7b      	ldr	r3, [r7, #36]	@ 0x24
2410a1c4:	2b00      	cmp	r3, #0
2410a1c6:	d1e3      	bne.n	2410a190 <UART_EndRxTransfer+0x3a>

  /* In case of reception waiting for IDLE event, disable also the IDLE IE interrupt source */
  if (huart->ReceptionType == HAL_UART_RECEPTION_TOIDLE)
2410a1c8:	687b      	ldr	r3, [r7, #4]
2410a1ca:	6edb      	ldr	r3, [r3, #108]	@ 0x6c
2410a1cc:	2b01      	cmp	r3, #1
2410a1ce:	d118      	bne.n	2410a202 <UART_EndRxTransfer+0xac>
  {
    ATOMIC_CLEAR_BIT(huart->Instance->CR1, USART_CR1_IDLEIE);
2410a1d0:	687b      	ldr	r3, [r7, #4]
2410a1d2:	681b      	ldr	r3, [r3, #0]
2410a1d4:	60fb      	str	r3, [r7, #12]
  __ASM volatile ("ldrex %0, %1" : "=r" (result) : "Q" (*addr) );
2410a1d6:	68fb      	ldr	r3, [r7, #12]
2410a1d8:	e853 3f00 	ldrex	r3, [r3]
2410a1dc:	60bb      	str	r3, [r7, #8]
  return (result);
2410a1de:	68bb      	ldr	r3, [r7, #8]
2410a1e0:	f023 0310 	bic.w	r3, r3, #16
2410a1e4:	647b      	str	r3, [r7, #68]	@ 0x44
2410a1e6:	687b      	ldr	r3, [r7, #4]
2410a1e8:	681b      	ldr	r3, [r3, #0]
2410a1ea:	461a      	mov	r2, r3
2410a1ec:	6c7b      	ldr	r3, [r7, #68]	@ 0x44
2410a1ee:	61bb      	str	r3, [r7, #24]
2410a1f0:	617a      	str	r2, [r7, #20]
  __ASM volatile ("strex %0, %2, %1" : "=&r" (result), "=Q" (*addr) : "r" (value) );
2410a1f2:	6979      	ldr	r1, [r7, #20]
2410a1f4:	69ba      	ldr	r2, [r7, #24]
2410a1f6:	e841 2300 	strex	r3, r2, [r1]
2410a1fa:	613b      	str	r3, [r7, #16]
  return (result);
2410a1fc:	693b      	ldr	r3, [r7, #16]
2410a1fe:	2b00      	cmp	r3, #0
2410a200:	d1e6      	bne.n	2410a1d0 <UART_EndRxTransfer+0x7a>
  }

  /* At end of Rx process, restore huart->RxState to Ready */
  huart->RxState = HAL_UART_STATE_READY;
2410a202:	687b      	ldr	r3, [r7, #4]
2410a204:	2220      	movs	r2, #32
2410a206:	f8c3 208c 	str.w	r2, [r3, #140]	@ 0x8c
  huart->ReceptionType = HAL_UART_RECEPTION_STANDARD;
2410a20a:	687b      	ldr	r3, [r7, #4]
2410a20c:	2200      	movs	r2, #0
2410a20e:	66da      	str	r2, [r3, #108]	@ 0x6c

  /* Reset RxIsr function pointer */
  huart->RxISR = NULL;
2410a210:	687b      	ldr	r3, [r7, #4]
2410a212:	2200      	movs	r2, #0
2410a214:	675a      	str	r2, [r3, #116]	@ 0x74
}
2410a216:	bf00      	nop
2410a218:	3754      	adds	r7, #84	@ 0x54
2410a21a:	46bd      	mov	sp, r7
2410a21c:	f85d 7b04 	ldr.w	r7, [sp], #4
2410a220:	4770      	bx	lr

2410a222 <HAL_UARTEx_DisableFifoMode>:
  * @brief  Disable the FIFO mode.
  * @param huart      UART handle.
  * @retval HAL status
  */
HAL_StatusTypeDef HAL_UARTEx_DisableFifoMode(UART_HandleTypeDef *huart)
{
2410a222:	b480      	push	{r7}
2410a224:	b085      	sub	sp, #20
2410a226:	af00      	add	r7, sp, #0
2410a228:	6078      	str	r0, [r7, #4]

  /* Check parameters */
  assert_param(IS_UART_FIFO_INSTANCE(huart->Instance));

  /* Process Locked */
  __HAL_LOCK(huart);
2410a22a:	687b      	ldr	r3, [r7, #4]
2410a22c:	f893 3084 	ldrb.w	r3, [r3, #132]	@ 0x84
2410a230:	2b01      	cmp	r3, #1
2410a232:	d101      	bne.n	2410a238 <HAL_UARTEx_DisableFifoMode+0x16>
2410a234:	2302      	movs	r3, #2
2410a236:	e027      	b.n	2410a288 <HAL_UARTEx_DisableFifoMode+0x66>
2410a238:	687b      	ldr	r3, [r7, #4]
2410a23a:	2201      	movs	r2, #1
2410a23c:	f883 2084 	strb.w	r2, [r3, #132]	@ 0x84

  huart->gState = HAL_UART_STATE_BUSY;
2410a240:	687b      	ldr	r3, [r7, #4]
2410a242:	2224      	movs	r2, #36	@ 0x24
2410a244:	f8c3 2088 	str.w	r2, [r3, #136]	@ 0x88

  /* Save actual UART configuration */
  tmpcr1 = READ_REG(huart->Instance->CR1);
2410a248:	687b      	ldr	r3, [r7, #4]
2410a24a:	681b      	ldr	r3, [r3, #0]
2410a24c:	681b      	ldr	r3, [r3, #0]
2410a24e:	60fb      	str	r3, [r7, #12]

  /* Disable UART */
  __HAL_UART_DISABLE(huart);
2410a250:	687b      	ldr	r3, [r7, #4]
2410a252:	681b      	ldr	r3, [r3, #0]
2410a254:	681a      	ldr	r2, [r3, #0]
2410a256:	687b      	ldr	r3, [r7, #4]
2410a258:	681b      	ldr	r3, [r3, #0]
2410a25a:	f022 0201 	bic.w	r2, r2, #1
2410a25e:	601a      	str	r2, [r3, #0]

  /* Disable FIFO mode */
  CLEAR_BIT(tmpcr1, USART_CR1_FIFOEN);
2410a260:	68fb      	ldr	r3, [r7, #12]
2410a262:	f023 5300 	bic.w	r3, r3, #536870912	@ 0x20000000
2410a266:	60fb      	str	r3, [r7, #12]
  huart->FifoMode = UART_FIFOMODE_DISABLE;
2410a268:	687b      	ldr	r3, [r7, #4]
2410a26a:	2200      	movs	r2, #0
2410a26c:	665a      	str	r2, [r3, #100]	@ 0x64

  /* Restore UART configuration */
  WRITE_REG(huart->Instance->CR1, tmpcr1);
2410a26e:	687b      	ldr	r3, [r7, #4]
2410a270:	681b      	ldr	r3, [r3, #0]
2410a272:	68fa      	ldr	r2, [r7, #12]
2410a274:	601a      	str	r2, [r3, #0]

  huart->gState = HAL_UART_STATE_READY;
2410a276:	687b      	ldr	r3, [r7, #4]
2410a278:	2220      	movs	r2, #32
2410a27a:	f8c3 2088 	str.w	r2, [r3, #136]	@ 0x88

  /* Process Unlocked */
  __HAL_UNLOCK(huart);
2410a27e:	687b      	ldr	r3, [r7, #4]
2410a280:	2200      	movs	r2, #0
2410a282:	f883 2084 	strb.w	r2, [r3, #132]	@ 0x84

  return HAL_OK;
2410a286:	2300      	movs	r3, #0
}
2410a288:	4618      	mov	r0, r3
2410a28a:	3714      	adds	r7, #20
2410a28c:	46bd      	mov	sp, r7
2410a28e:	f85d 7b04 	ldr.w	r7, [sp], #4
2410a292:	4770      	bx	lr

2410a294 <HAL_UARTEx_SetTxFifoThreshold>:
  *            @arg @ref UART_TXFIFO_THRESHOLD_7_8
  *            @arg @ref UART_TXFIFO_THRESHOLD_8_8
  * @retval HAL status
  */
HAL_StatusTypeDef HAL_UARTEx_SetTxFifoThreshold(UART_HandleTypeDef *huart, uint32_t Threshold)
{
2410a294:	b580      	push	{r7, lr}
2410a296:	b084      	sub	sp, #16
2410a298:	af00      	add	r7, sp, #0
2410a29a:	6078      	str	r0, [r7, #4]
2410a29c:	6039      	str	r1, [r7, #0]
  /* Check parameters */
  assert_param(IS_UART_FIFO_INSTANCE(huart->Instance));
  assert_param(IS_UART_TXFIFO_THRESHOLD(Threshold));

  /* Process Locked */
  __HAL_LOCK(huart);
2410a29e:	687b      	ldr	r3, [r7, #4]
2410a2a0:	f893 3084 	ldrb.w	r3, [r3, #132]	@ 0x84
2410a2a4:	2b01      	cmp	r3, #1
2410a2a6:	d101      	bne.n	2410a2ac <HAL_UARTEx_SetTxFifoThreshold+0x18>
2410a2a8:	2302      	movs	r3, #2
2410a2aa:	e02d      	b.n	2410a308 <HAL_UARTEx_SetTxFifoThreshold+0x74>
2410a2ac:	687b      	ldr	r3, [r7, #4]
2410a2ae:	2201      	movs	r2, #1
2410a2b0:	f883 2084 	strb.w	r2, [r3, #132]	@ 0x84

  huart->gState = HAL_UART_STATE_BUSY;
2410a2b4:	687b      	ldr	r3, [r7, #4]
2410a2b6:	2224      	movs	r2, #36	@ 0x24
2410a2b8:	f8c3 2088 	str.w	r2, [r3, #136]	@ 0x88

  /* Save actual UART configuration */
  tmpcr1 = READ_REG(huart->Instance->CR1);
2410a2bc:	687b      	ldr	r3, [r7, #4]
2410a2be:	681b      	ldr	r3, [r3, #0]
2410a2c0:	681b      	ldr	r3, [r3, #0]
2410a2c2:	60fb      	str	r3, [r7, #12]

  /* Disable UART */
  __HAL_UART_DISABLE(huart);
2410a2c4:	687b      	ldr	r3, [r7, #4]
2410a2c6:	681b      	ldr	r3, [r3, #0]
2410a2c8:	681a      	ldr	r2, [r3, #0]
2410a2ca:	687b      	ldr	r3, [r7, #4]
2410a2cc:	681b      	ldr	r3, [r3, #0]
2410a2ce:	f022 0201 	bic.w	r2, r2, #1
2410a2d2:	601a      	str	r2, [r3, #0]

  /* Update TX threshold configuration */
  MODIFY_REG(huart->Instance->CR3, USART_CR3_TXFTCFG, Threshold);
2410a2d4:	687b      	ldr	r3, [r7, #4]
2410a2d6:	681b      	ldr	r3, [r3, #0]
2410a2d8:	689b      	ldr	r3, [r3, #8]
2410a2da:	f023 4160 	bic.w	r1, r3, #3758096384	@ 0xe0000000
2410a2de:	687b      	ldr	r3, [r7, #4]
2410a2e0:	681b      	ldr	r3, [r3, #0]
2410a2e2:	683a      	ldr	r2, [r7, #0]
2410a2e4:	430a      	orrs	r2, r1
2410a2e6:	609a      	str	r2, [r3, #8]

  /* Determine the number of data to process during RX/TX ISR execution */
  UARTEx_SetNbDataToProcess(huart);
2410a2e8:	6878      	ldr	r0, [r7, #4]
2410a2ea:	f000 f84f 	bl	2410a38c <UARTEx_SetNbDataToProcess>

  /* Restore UART configuration */
  WRITE_REG(huart->Instance->CR1, tmpcr1);
2410a2ee:	687b      	ldr	r3, [r7, #4]
2410a2f0:	681b      	ldr	r3, [r3, #0]
2410a2f2:	68fa      	ldr	r2, [r7, #12]
2410a2f4:	601a      	str	r2, [r3, #0]

  huart->gState = HAL_UART_STATE_READY;
2410a2f6:	687b      	ldr	r3, [r7, #4]
2410a2f8:	2220      	movs	r2, #32
2410a2fa:	f8c3 2088 	str.w	r2, [r3, #136]	@ 0x88

  /* Process Unlocked */
  __HAL_UNLOCK(huart);
2410a2fe:	687b      	ldr	r3, [r7, #4]
2410a300:	2200      	movs	r2, #0
2410a302:	f883 2084 	strb.w	r2, [r3, #132]	@ 0x84

  return HAL_OK;
2410a306:	2300      	movs	r3, #0
}
2410a308:	4618      	mov	r0, r3
2410a30a:	3710      	adds	r7, #16
2410a30c:	46bd      	mov	sp, r7
2410a30e:	bd80      	pop	{r7, pc}

2410a310 <HAL_UARTEx_SetRxFifoThreshold>:
  *            @arg @ref UART_RXFIFO_THRESHOLD_7_8
  *            @arg @ref UART_RXFIFO_THRESHOLD_8_8
  * @retval HAL status
  */
HAL_StatusTypeDef HAL_UARTEx_SetRxFifoThreshold(UART_HandleTypeDef *huart, uint32_t Threshold)
{
2410a310:	b580      	push	{r7, lr}
2410a312:	b084      	sub	sp, #16
2410a314:	af00      	add	r7, sp, #0
2410a316:	6078      	str	r0, [r7, #4]
2410a318:	6039      	str	r1, [r7, #0]
  /* Check the parameters */
  assert_param(IS_UART_FIFO_INSTANCE(huart->Instance));
  assert_param(IS_UART_RXFIFO_THRESHOLD(Threshold));

  /* Process Locked */
  __HAL_LOCK(huart);
2410a31a:	687b      	ldr	r3, [r7, #4]
2410a31c:	f893 3084 	ldrb.w	r3, [r3, #132]	@ 0x84
2410a320:	2b01      	cmp	r3, #1
2410a322:	d101      	bne.n	2410a328 <HAL_UARTEx_SetRxFifoThreshold+0x18>
2410a324:	2302      	movs	r3, #2
2410a326:	e02d      	b.n	2410a384 <HAL_UARTEx_SetRxFifoThreshold+0x74>
2410a328:	687b      	ldr	r3, [r7, #4]
2410a32a:	2201      	movs	r2, #1
2410a32c:	f883 2084 	strb.w	r2, [r3, #132]	@ 0x84

  huart->gState = HAL_UART_STATE_BUSY;
2410a330:	687b      	ldr	r3, [r7, #4]
2410a332:	2224      	movs	r2, #36	@ 0x24
2410a334:	f8c3 2088 	str.w	r2, [r3, #136]	@ 0x88

  /* Save actual UART configuration */
  tmpcr1 = READ_REG(huart->Instance->CR1);
2410a338:	687b      	ldr	r3, [r7, #4]
2410a33a:	681b      	ldr	r3, [r3, #0]
2410a33c:	681b      	ldr	r3, [r3, #0]
2410a33e:	60fb      	str	r3, [r7, #12]

  /* Disable UART */
  __HAL_UART_DISABLE(huart);
2410a340:	687b      	ldr	r3, [r7, #4]
2410a342:	681b      	ldr	r3, [r3, #0]
2410a344:	681a      	ldr	r2, [r3, #0]
2410a346:	687b      	ldr	r3, [r7, #4]
2410a348:	681b      	ldr	r3, [r3, #0]
2410a34a:	f022 0201 	bic.w	r2, r2, #1
2410a34e:	601a      	str	r2, [r3, #0]

  /* Update RX threshold configuration */
  MODIFY_REG(huart->Instance->CR3, USART_CR3_RXFTCFG, Threshold);
2410a350:	687b      	ldr	r3, [r7, #4]
2410a352:	681b      	ldr	r3, [r3, #0]
2410a354:	689b      	ldr	r3, [r3, #8]
2410a356:	f023 6160 	bic.w	r1, r3, #234881024	@ 0xe000000
2410a35a:	687b      	ldr	r3, [r7, #4]
2410a35c:	681b      	ldr	r3, [r3, #0]
2410a35e:	683a      	ldr	r2, [r7, #0]
2410a360:	430a      	orrs	r2, r1
2410a362:	609a      	str	r2, [r3, #8]

  /* Determine the number of data to process during RX/TX ISR execution */
  UARTEx_SetNbDataToProcess(huart);
2410a364:	6878      	ldr	r0, [r7, #4]
2410a366:	f000 f811 	bl	2410a38c <UARTEx_SetNbDataToProcess>

  /* Restore UART configuration */
  WRITE_REG(huart->Instance->CR1, tmpcr1);
2410a36a:	687b      	ldr	r3, [r7, #4]
2410a36c:	681b      	ldr	r3, [r3, #0]
2410a36e:	68fa      	ldr	r2, [r7, #12]
2410a370:	601a      	str	r2, [r3, #0]

  huart->gState = HAL_UART_STATE_READY;
2410a372:	687b      	ldr	r3, [r7, #4]
2410a374:	2220      	movs	r2, #32
2410a376:	f8c3 2088 	str.w	r2, [r3, #136]	@ 0x88

  /* Process Unlocked */
  __HAL_UNLOCK(huart);
2410a37a:	687b      	ldr	r3, [r7, #4]
2410a37c:	2200      	movs	r2, #0
2410a37e:	f883 2084 	strb.w	r2, [r3, #132]	@ 0x84

  return HAL_OK;
2410a382:	2300      	movs	r3, #0
}
2410a384:	4618      	mov	r0, r3
2410a386:	3710      	adds	r7, #16
2410a388:	46bd      	mov	sp, r7
2410a38a:	bd80      	pop	{r7, pc}

2410a38c <UARTEx_SetNbDataToProcess>:
  *       the UART configuration registers.
  * @param huart UART handle.
  * @retval None
  */
static void UARTEx_SetNbDataToProcess(UART_HandleTypeDef *huart)
{
2410a38c:	b480      	push	{r7}
2410a38e:	b085      	sub	sp, #20
2410a390:	af00      	add	r7, sp, #0
2410a392:	6078      	str	r0, [r7, #4]
  uint8_t rx_fifo_threshold;
  uint8_t tx_fifo_threshold;
  static const uint8_t numerator[] = {1U, 1U, 1U, 3U, 7U, 1U, 0U, 0U};
  static const uint8_t denominator[] = {8U, 4U, 2U, 4U, 8U, 1U, 1U, 1U};

  if (huart->FifoMode == UART_FIFOMODE_DISABLE)
2410a394:	687b      	ldr	r3, [r7, #4]
2410a396:	6e5b      	ldr	r3, [r3, #100]	@ 0x64
2410a398:	2b00      	cmp	r3, #0
2410a39a:	d108      	bne.n	2410a3ae <UARTEx_SetNbDataToProcess+0x22>
  {
    huart->NbTxDataToProcess = 1U;
2410a39c:	687b      	ldr	r3, [r7, #4]
2410a39e:	2201      	movs	r2, #1
2410a3a0:	f8a3 206a 	strh.w	r2, [r3, #106]	@ 0x6a
    huart->NbRxDataToProcess = 1U;
2410a3a4:	687b      	ldr	r3, [r7, #4]
2410a3a6:	2201      	movs	r2, #1
2410a3a8:	f8a3 2068 	strh.w	r2, [r3, #104]	@ 0x68
    huart->NbTxDataToProcess = ((uint16_t)tx_fifo_depth * numerator[tx_fifo_threshold]) /
                               (uint16_t)denominator[tx_fifo_threshold];
    huart->NbRxDataToProcess = ((uint16_t)rx_fifo_depth * numerator[rx_fifo_threshold]) /
                               (uint16_t)denominator[rx_fifo_threshold];
  }
}
2410a3ac:	e031      	b.n	2410a412 <UARTEx_SetNbDataToProcess+0x86>
    rx_fifo_depth = RX_FIFO_DEPTH;
2410a3ae:	2310      	movs	r3, #16
2410a3b0:	73fb      	strb	r3, [r7, #15]
    tx_fifo_depth = TX_FIFO_DEPTH;
2410a3b2:	2310      	movs	r3, #16
2410a3b4:	73bb      	strb	r3, [r7, #14]
    rx_fifo_threshold = (uint8_t)(READ_BIT(huart->Instance->CR3, USART_CR3_RXFTCFG) >> USART_CR3_RXFTCFG_Pos);
2410a3b6:	687b      	ldr	r3, [r7, #4]
2410a3b8:	681b      	ldr	r3, [r3, #0]
2410a3ba:	689b      	ldr	r3, [r3, #8]
2410a3bc:	0e5b      	lsrs	r3, r3, #25
2410a3be:	b2db      	uxtb	r3, r3
2410a3c0:	f003 0307 	and.w	r3, r3, #7
2410a3c4:	737b      	strb	r3, [r7, #13]
    tx_fifo_threshold = (uint8_t)(READ_BIT(huart->Instance->CR3, USART_CR3_TXFTCFG) >> USART_CR3_TXFTCFG_Pos);
2410a3c6:	687b      	ldr	r3, [r7, #4]
2410a3c8:	681b      	ldr	r3, [r3, #0]
2410a3ca:	689b      	ldr	r3, [r3, #8]
2410a3cc:	0f5b      	lsrs	r3, r3, #29
2410a3ce:	b2db      	uxtb	r3, r3
2410a3d0:	f003 0307 	and.w	r3, r3, #7
2410a3d4:	733b      	strb	r3, [r7, #12]
    huart->NbTxDataToProcess = ((uint16_t)tx_fifo_depth * numerator[tx_fifo_threshold]) /
2410a3d6:	7bbb      	ldrb	r3, [r7, #14]
2410a3d8:	7b3a      	ldrb	r2, [r7, #12]
2410a3da:	4911      	ldr	r1, [pc, #68]	@ (2410a420 <UARTEx_SetNbDataToProcess+0x94>)
2410a3dc:	5c8a      	ldrb	r2, [r1, r2]
2410a3de:	fb02 f303 	mul.w	r3, r2, r3
                               (uint16_t)denominator[tx_fifo_threshold];
2410a3e2:	7b3a      	ldrb	r2, [r7, #12]
2410a3e4:	490f      	ldr	r1, [pc, #60]	@ (2410a424 <UARTEx_SetNbDataToProcess+0x98>)
2410a3e6:	5c8a      	ldrb	r2, [r1, r2]
    huart->NbTxDataToProcess = ((uint16_t)tx_fifo_depth * numerator[tx_fifo_threshold]) /
2410a3e8:	fb93 f3f2 	sdiv	r3, r3, r2
2410a3ec:	b29a      	uxth	r2, r3
2410a3ee:	687b      	ldr	r3, [r7, #4]
2410a3f0:	f8a3 206a 	strh.w	r2, [r3, #106]	@ 0x6a
    huart->NbRxDataToProcess = ((uint16_t)rx_fifo_depth * numerator[rx_fifo_threshold]) /
2410a3f4:	7bfb      	ldrb	r3, [r7, #15]
2410a3f6:	7b7a      	ldrb	r2, [r7, #13]
2410a3f8:	4909      	ldr	r1, [pc, #36]	@ (2410a420 <UARTEx_SetNbDataToProcess+0x94>)
2410a3fa:	5c8a      	ldrb	r2, [r1, r2]
2410a3fc:	fb02 f303 	mul.w	r3, r2, r3
                               (uint16_t)denominator[rx_fifo_threshold];
2410a400:	7b7a      	ldrb	r2, [r7, #13]
2410a402:	4908      	ldr	r1, [pc, #32]	@ (2410a424 <UARTEx_SetNbDataToProcess+0x98>)
2410a404:	5c8a      	ldrb	r2, [r1, r2]
    huart->NbRxDataToProcess = ((uint16_t)rx_fifo_depth * numerator[rx_fifo_threshold]) /
2410a406:	fb93 f3f2 	sdiv	r3, r3, r2
2410a40a:	b29a      	uxth	r2, r3
2410a40c:	687b      	ldr	r3, [r7, #4]
2410a40e:	f8a3 2068 	strh.w	r2, [r3, #104]	@ 0x68
}
2410a412:	bf00      	nop
2410a414:	3714      	adds	r7, #20
2410a416:	46bd      	mov	sp, r7
2410a418:	f85d 7b04 	ldr.w	r7, [sp], #4
2410a41c:	4770      	bx	lr
2410a41e:	bf00      	nop
2410a420:	2410adb8 	.word	0x2410adb8
2410a424:	2410adc0 	.word	0x2410adc0

2410a428 <std>:
2410a428:	2300      	movs	r3, #0
2410a42a:	b510      	push	{r4, lr}
2410a42c:	4604      	mov	r4, r0
2410a42e:	6083      	str	r3, [r0, #8]
2410a430:	8181      	strh	r1, [r0, #12]
2410a432:	4619      	mov	r1, r3
2410a434:	6643      	str	r3, [r0, #100]	@ 0x64
2410a436:	81c2      	strh	r2, [r0, #14]
2410a438:	2208      	movs	r2, #8
2410a43a:	6183      	str	r3, [r0, #24]
2410a43c:	e9c0 3300 	strd	r3, r3, [r0]
2410a440:	e9c0 3304 	strd	r3, r3, [r0, #16]
2410a444:	305c      	adds	r0, #92	@ 0x5c
2410a446:	f000 f9e7 	bl	2410a818 <memset>
2410a44a:	4b0d      	ldr	r3, [pc, #52]	@ (2410a480 <std+0x58>)
2410a44c:	6224      	str	r4, [r4, #32]
2410a44e:	6263      	str	r3, [r4, #36]	@ 0x24
2410a450:	4b0c      	ldr	r3, [pc, #48]	@ (2410a484 <std+0x5c>)
2410a452:	62a3      	str	r3, [r4, #40]	@ 0x28
2410a454:	4b0c      	ldr	r3, [pc, #48]	@ (2410a488 <std+0x60>)
2410a456:	62e3      	str	r3, [r4, #44]	@ 0x2c
2410a458:	4b0c      	ldr	r3, [pc, #48]	@ (2410a48c <std+0x64>)
2410a45a:	6323      	str	r3, [r4, #48]	@ 0x30
2410a45c:	4b0c      	ldr	r3, [pc, #48]	@ (2410a490 <std+0x68>)
2410a45e:	429c      	cmp	r4, r3
2410a460:	d006      	beq.n	2410a470 <std+0x48>
2410a462:	f103 0268 	add.w	r2, r3, #104	@ 0x68
2410a466:	4294      	cmp	r4, r2
2410a468:	d002      	beq.n	2410a470 <std+0x48>
2410a46a:	33d0      	adds	r3, #208	@ 0xd0
2410a46c:	429c      	cmp	r4, r3
2410a46e:	d105      	bne.n	2410a47c <std+0x54>
2410a470:	f104 0058 	add.w	r0, r4, #88	@ 0x58
2410a474:	e8bd 4010 	ldmia.w	sp!, {r4, lr}
2410a478:	f000 ba46 	b.w	2410a908 <__retarget_lock_init_recursive>
2410a47c:	bd10      	pop	{r4, pc}
2410a47e:	bf00      	nop
2410a480:	2410a66d 	.word	0x2410a66d
2410a484:	2410a68f 	.word	0x2410a68f
2410a488:	2410a6c7 	.word	0x2410a6c7
2410a48c:	2410a6ed 	.word	0x2410a6ed
2410a490:	24180120 	.word	0x24180120

2410a494 <stdio_exit_handler>:
2410a494:	4a02      	ldr	r2, [pc, #8]	@ (2410a4a0 <stdio_exit_handler+0xc>)
2410a496:	4903      	ldr	r1, [pc, #12]	@ (2410a4a4 <stdio_exit_handler+0x10>)
2410a498:	4803      	ldr	r0, [pc, #12]	@ (2410a4a8 <stdio_exit_handler+0x14>)
2410a49a:	f000 b86b 	b.w	2410a574 <_fwalk_sglue>
2410a49e:	bf00      	nop
2410a4a0:	2418000c 	.word	0x2418000c
2410a4a4:	2410ac01 	.word	0x2410ac01
2410a4a8:	2418001c 	.word	0x2418001c

2410a4ac <cleanup_stdio>:
2410a4ac:	6841      	ldr	r1, [r0, #4]
2410a4ae:	4b0c      	ldr	r3, [pc, #48]	@ (2410a4e0 <cleanup_stdio+0x34>)
2410a4b0:	4299      	cmp	r1, r3
2410a4b2:	b510      	push	{r4, lr}
2410a4b4:	4604      	mov	r4, r0
2410a4b6:	d001      	beq.n	2410a4bc <cleanup_stdio+0x10>
2410a4b8:	f000 fba2 	bl	2410ac00 <_fflush_r>
2410a4bc:	68a1      	ldr	r1, [r4, #8]
2410a4be:	4b09      	ldr	r3, [pc, #36]	@ (2410a4e4 <cleanup_stdio+0x38>)
2410a4c0:	4299      	cmp	r1, r3
2410a4c2:	d002      	beq.n	2410a4ca <cleanup_stdio+0x1e>
2410a4c4:	4620      	mov	r0, r4
2410a4c6:	f000 fb9b 	bl	2410ac00 <_fflush_r>
2410a4ca:	68e1      	ldr	r1, [r4, #12]
2410a4cc:	4b06      	ldr	r3, [pc, #24]	@ (2410a4e8 <cleanup_stdio+0x3c>)
2410a4ce:	4299      	cmp	r1, r3
2410a4d0:	d004      	beq.n	2410a4dc <cleanup_stdio+0x30>
2410a4d2:	4620      	mov	r0, r4
2410a4d4:	e8bd 4010 	ldmia.w	sp!, {r4, lr}
2410a4d8:	f000 bb92 	b.w	2410ac00 <_fflush_r>
2410a4dc:	bd10      	pop	{r4, pc}
2410a4de:	bf00      	nop
2410a4e0:	24180120 	.word	0x24180120
2410a4e4:	24180188 	.word	0x24180188
2410a4e8:	241801f0 	.word	0x241801f0

2410a4ec <global_stdio_init.part.0>:
2410a4ec:	4b0c      	ldr	r3, [pc, #48]	@ (2410a520 <global_stdio_init.part.0+0x34>)
2410a4ee:	2104      	movs	r1, #4
2410a4f0:	4a0c      	ldr	r2, [pc, #48]	@ (2410a524 <global_stdio_init.part.0+0x38>)
2410a4f2:	480d      	ldr	r0, [pc, #52]	@ (2410a528 <global_stdio_init.part.0+0x3c>)
2410a4f4:	b510      	push	{r4, lr}
2410a4f6:	601a      	str	r2, [r3, #0]
2410a4f8:	2200      	movs	r2, #0
2410a4fa:	f7ff ff95 	bl	2410a428 <std>
2410a4fe:	4b0a      	ldr	r3, [pc, #40]	@ (2410a528 <global_stdio_init.part.0+0x3c>)
2410a500:	2201      	movs	r2, #1
2410a502:	2109      	movs	r1, #9
2410a504:	461c      	mov	r4, r3
2410a506:	f103 0068 	add.w	r0, r3, #104	@ 0x68
2410a50a:	f7ff ff8d 	bl	2410a428 <std>
2410a50e:	2202      	movs	r2, #2
2410a510:	f104 00d0 	add.w	r0, r4, #208	@ 0xd0
2410a514:	2112      	movs	r1, #18
2410a516:	e8bd 4010 	ldmia.w	sp!, {r4, lr}
2410a51a:	f7ff bf85 	b.w	2410a428 <std>
2410a51e:	bf00      	nop
2410a520:	24180258 	.word	0x24180258
2410a524:	2410a495 	.word	0x2410a495
2410a528:	24180120 	.word	0x24180120

2410a52c <__sfp_lock_acquire>:
2410a52c:	4801      	ldr	r0, [pc, #4]	@ (2410a534 <__sfp_lock_acquire+0x8>)
2410a52e:	f000 b9ec 	b.w	2410a90a <__retarget_lock_acquire_recursive>
2410a532:	bf00      	nop
2410a534:	24180261 	.word	0x24180261

2410a538 <__sfp_lock_release>:
2410a538:	4801      	ldr	r0, [pc, #4]	@ (2410a540 <__sfp_lock_release+0x8>)
2410a53a:	f000 b9e7 	b.w	2410a90c <__retarget_lock_release_recursive>
2410a53e:	bf00      	nop
2410a540:	24180261 	.word	0x24180261

2410a544 <__sinit>:
2410a544:	b510      	push	{r4, lr}
2410a546:	4604      	mov	r4, r0
2410a548:	f7ff fff0 	bl	2410a52c <__sfp_lock_acquire>
2410a54c:	6a23      	ldr	r3, [r4, #32]
2410a54e:	b11b      	cbz	r3, 2410a558 <__sinit+0x14>
2410a550:	e8bd 4010 	ldmia.w	sp!, {r4, lr}
2410a554:	f7ff bff0 	b.w	2410a538 <__sfp_lock_release>
2410a558:	4b04      	ldr	r3, [pc, #16]	@ (2410a56c <__sinit+0x28>)
2410a55a:	6223      	str	r3, [r4, #32]
2410a55c:	4b04      	ldr	r3, [pc, #16]	@ (2410a570 <__sinit+0x2c>)
2410a55e:	681b      	ldr	r3, [r3, #0]
2410a560:	2b00      	cmp	r3, #0
2410a562:	d1f5      	bne.n	2410a550 <__sinit+0xc>
2410a564:	f7ff ffc2 	bl	2410a4ec <global_stdio_init.part.0>
2410a568:	e7f2      	b.n	2410a550 <__sinit+0xc>
2410a56a:	bf00      	nop
2410a56c:	2410a4ad 	.word	0x2410a4ad
2410a570:	24180258 	.word	0x24180258

2410a574 <_fwalk_sglue>:
2410a574:	e92d 43f8 	stmdb	sp!, {r3, r4, r5, r6, r7, r8, r9, lr}
2410a578:	4607      	mov	r7, r0
2410a57a:	4688      	mov	r8, r1
2410a57c:	4614      	mov	r4, r2
2410a57e:	2600      	movs	r6, #0
2410a580:	e9d4 9501 	ldrd	r9, r5, [r4, #4]
2410a584:	f1b9 0901 	subs.w	r9, r9, #1
2410a588:	d505      	bpl.n	2410a596 <_fwalk_sglue+0x22>
2410a58a:	6824      	ldr	r4, [r4, #0]
2410a58c:	2c00      	cmp	r4, #0
2410a58e:	d1f7      	bne.n	2410a580 <_fwalk_sglue+0xc>
2410a590:	4630      	mov	r0, r6
2410a592:	e8bd 83f8 	ldmia.w	sp!, {r3, r4, r5, r6, r7, r8, r9, pc}
2410a596:	89ab      	ldrh	r3, [r5, #12]
2410a598:	2b01      	cmp	r3, #1
2410a59a:	d907      	bls.n	2410a5ac <_fwalk_sglue+0x38>
2410a59c:	f9b5 300e 	ldrsh.w	r3, [r5, #14]
2410a5a0:	3301      	adds	r3, #1
2410a5a2:	d003      	beq.n	2410a5ac <_fwalk_sglue+0x38>
2410a5a4:	4629      	mov	r1, r5
2410a5a6:	4638      	mov	r0, r7
2410a5a8:	47c0      	blx	r8
2410a5aa:	4306      	orrs	r6, r0
2410a5ac:	3568      	adds	r5, #104	@ 0x68
2410a5ae:	e7e9      	b.n	2410a584 <_fwalk_sglue+0x10>

2410a5b0 <_puts_r>:
2410a5b0:	6a03      	ldr	r3, [r0, #32]
2410a5b2:	b570      	push	{r4, r5, r6, lr}
2410a5b4:	4605      	mov	r5, r0
2410a5b6:	460e      	mov	r6, r1
2410a5b8:	6884      	ldr	r4, [r0, #8]
2410a5ba:	b90b      	cbnz	r3, 2410a5c0 <_puts_r+0x10>
2410a5bc:	f7ff ffc2 	bl	2410a544 <__sinit>
2410a5c0:	6e63      	ldr	r3, [r4, #100]	@ 0x64
2410a5c2:	07db      	lsls	r3, r3, #31
2410a5c4:	d405      	bmi.n	2410a5d2 <_puts_r+0x22>
2410a5c6:	89a3      	ldrh	r3, [r4, #12]
2410a5c8:	0598      	lsls	r0, r3, #22
2410a5ca:	d402      	bmi.n	2410a5d2 <_puts_r+0x22>
2410a5cc:	6da0      	ldr	r0, [r4, #88]	@ 0x58
2410a5ce:	f000 f99c 	bl	2410a90a <__retarget_lock_acquire_recursive>
2410a5d2:	89a3      	ldrh	r3, [r4, #12]
2410a5d4:	0719      	lsls	r1, r3, #28
2410a5d6:	d502      	bpl.n	2410a5de <_puts_r+0x2e>
2410a5d8:	6923      	ldr	r3, [r4, #16]
2410a5da:	2b00      	cmp	r3, #0
2410a5dc:	d135      	bne.n	2410a64a <_puts_r+0x9a>
2410a5de:	4621      	mov	r1, r4
2410a5e0:	4628      	mov	r0, r5
2410a5e2:	f000 f8c5 	bl	2410a770 <__swsetup_r>
2410a5e6:	b380      	cbz	r0, 2410a64a <_puts_r+0x9a>
2410a5e8:	f04f 35ff 	mov.w	r5, #4294967295	@ 0xffffffff
2410a5ec:	6e63      	ldr	r3, [r4, #100]	@ 0x64
2410a5ee:	07da      	lsls	r2, r3, #31
2410a5f0:	d405      	bmi.n	2410a5fe <_puts_r+0x4e>
2410a5f2:	89a3      	ldrh	r3, [r4, #12]
2410a5f4:	059b      	lsls	r3, r3, #22
2410a5f6:	d402      	bmi.n	2410a5fe <_puts_r+0x4e>
2410a5f8:	6da0      	ldr	r0, [r4, #88]	@ 0x58
2410a5fa:	f000 f987 	bl	2410a90c <__retarget_lock_release_recursive>
2410a5fe:	4628      	mov	r0, r5
2410a600:	bd70      	pop	{r4, r5, r6, pc}
2410a602:	2b00      	cmp	r3, #0
2410a604:	da04      	bge.n	2410a610 <_puts_r+0x60>
2410a606:	69a2      	ldr	r2, [r4, #24]
2410a608:	4293      	cmp	r3, r2
2410a60a:	db17      	blt.n	2410a63c <_puts_r+0x8c>
2410a60c:	290a      	cmp	r1, #10
2410a60e:	d015      	beq.n	2410a63c <_puts_r+0x8c>
2410a610:	6823      	ldr	r3, [r4, #0]
2410a612:	1c5a      	adds	r2, r3, #1
2410a614:	6022      	str	r2, [r4, #0]
2410a616:	7019      	strb	r1, [r3, #0]
2410a618:	68a3      	ldr	r3, [r4, #8]
2410a61a:	f816 1f01 	ldrb.w	r1, [r6, #1]!
2410a61e:	3b01      	subs	r3, #1
2410a620:	60a3      	str	r3, [r4, #8]
2410a622:	2900      	cmp	r1, #0
2410a624:	d1ed      	bne.n	2410a602 <_puts_r+0x52>
2410a626:	2b00      	cmp	r3, #0
2410a628:	da11      	bge.n	2410a64e <_puts_r+0x9e>
2410a62a:	4622      	mov	r2, r4
2410a62c:	210a      	movs	r1, #10
2410a62e:	4628      	mov	r0, r5
2410a630:	f000 f860 	bl	2410a6f4 <__swbuf_r>
2410a634:	3001      	adds	r0, #1
2410a636:	d0d7      	beq.n	2410a5e8 <_puts_r+0x38>
2410a638:	250a      	movs	r5, #10
2410a63a:	e7d7      	b.n	2410a5ec <_puts_r+0x3c>
2410a63c:	4622      	mov	r2, r4
2410a63e:	4628      	mov	r0, r5
2410a640:	f000 f858 	bl	2410a6f4 <__swbuf_r>
2410a644:	3001      	adds	r0, #1
2410a646:	d1e7      	bne.n	2410a618 <_puts_r+0x68>
2410a648:	e7ce      	b.n	2410a5e8 <_puts_r+0x38>
2410a64a:	3e01      	subs	r6, #1
2410a64c:	e7e4      	b.n	2410a618 <_puts_r+0x68>
2410a64e:	6823      	ldr	r3, [r4, #0]
2410a650:	1c5a      	adds	r2, r3, #1
2410a652:	6022      	str	r2, [r4, #0]
2410a654:	220a      	movs	r2, #10
2410a656:	701a      	strb	r2, [r3, #0]
2410a658:	e7ee      	b.n	2410a638 <_puts_r+0x88>
	...

2410a65c <puts>:
2410a65c:	4b02      	ldr	r3, [pc, #8]	@ (2410a668 <puts+0xc>)
2410a65e:	4601      	mov	r1, r0
2410a660:	6818      	ldr	r0, [r3, #0]
2410a662:	f7ff bfa5 	b.w	2410a5b0 <_puts_r>
2410a666:	bf00      	nop
2410a668:	24180018 	.word	0x24180018

2410a66c <__sread>:
2410a66c:	b510      	push	{r4, lr}
2410a66e:	460c      	mov	r4, r1
2410a670:	f9b1 100e 	ldrsh.w	r1, [r1, #14]
2410a674:	f000 f8fa 	bl	2410a86c <_read_r>
2410a678:	2800      	cmp	r0, #0
2410a67a:	bfab      	itete	ge
2410a67c:	6d63      	ldrge	r3, [r4, #84]	@ 0x54
2410a67e:	89a3      	ldrhlt	r3, [r4, #12]
2410a680:	181b      	addge	r3, r3, r0
2410a682:	f423 5380 	biclt.w	r3, r3, #4096	@ 0x1000
2410a686:	bfac      	ite	ge
2410a688:	6563      	strge	r3, [r4, #84]	@ 0x54
2410a68a:	81a3      	strhlt	r3, [r4, #12]
2410a68c:	bd10      	pop	{r4, pc}

2410a68e <__swrite>:
2410a68e:	e92d 41f0 	stmdb	sp!, {r4, r5, r6, r7, r8, lr}
2410a692:	461f      	mov	r7, r3
2410a694:	898b      	ldrh	r3, [r1, #12]
2410a696:	4605      	mov	r5, r0
2410a698:	460c      	mov	r4, r1
2410a69a:	05db      	lsls	r3, r3, #23
2410a69c:	4616      	mov	r6, r2
2410a69e:	d505      	bpl.n	2410a6ac <__swrite+0x1e>
2410a6a0:	2302      	movs	r3, #2
2410a6a2:	2200      	movs	r2, #0
2410a6a4:	f9b1 100e 	ldrsh.w	r1, [r1, #14]
2410a6a8:	f000 f8ce 	bl	2410a848 <_lseek_r>
2410a6ac:	89a3      	ldrh	r3, [r4, #12]
2410a6ae:	4632      	mov	r2, r6
2410a6b0:	f9b4 100e 	ldrsh.w	r1, [r4, #14]
2410a6b4:	4628      	mov	r0, r5
2410a6b6:	f423 5380 	bic.w	r3, r3, #4096	@ 0x1000
2410a6ba:	81a3      	strh	r3, [r4, #12]
2410a6bc:	463b      	mov	r3, r7
2410a6be:	e8bd 41f0 	ldmia.w	sp!, {r4, r5, r6, r7, r8, lr}
2410a6c2:	f000 b8e5 	b.w	2410a890 <_write_r>

2410a6c6 <__sseek>:
2410a6c6:	b510      	push	{r4, lr}
2410a6c8:	460c      	mov	r4, r1
2410a6ca:	f9b1 100e 	ldrsh.w	r1, [r1, #14]
2410a6ce:	f000 f8bb 	bl	2410a848 <_lseek_r>
2410a6d2:	1c42      	adds	r2, r0, #1
2410a6d4:	f9b4 300c 	ldrsh.w	r3, [r4, #12]
2410a6d8:	bf15      	itete	ne
2410a6da:	6560      	strne	r0, [r4, #84]	@ 0x54
2410a6dc:	f423 5380 	biceq.w	r3, r3, #4096	@ 0x1000
2410a6e0:	f443 5380 	orrne.w	r3, r3, #4096	@ 0x1000
2410a6e4:	81a3      	strheq	r3, [r4, #12]
2410a6e6:	bf18      	it	ne
2410a6e8:	81a3      	strhne	r3, [r4, #12]
2410a6ea:	bd10      	pop	{r4, pc}

2410a6ec <__sclose>:
2410a6ec:	f9b1 100e 	ldrsh.w	r1, [r1, #14]
2410a6f0:	f000 b89a 	b.w	2410a828 <_close_r>

2410a6f4 <__swbuf_r>:
2410a6f4:	b5f8      	push	{r3, r4, r5, r6, r7, lr}
2410a6f6:	460e      	mov	r6, r1
2410a6f8:	4614      	mov	r4, r2
2410a6fa:	4605      	mov	r5, r0
2410a6fc:	b118      	cbz	r0, 2410a706 <__swbuf_r+0x12>
2410a6fe:	6a03      	ldr	r3, [r0, #32]
2410a700:	b90b      	cbnz	r3, 2410a706 <__swbuf_r+0x12>
2410a702:	f7ff ff1f 	bl	2410a544 <__sinit>
2410a706:	69a3      	ldr	r3, [r4, #24]
2410a708:	60a3      	str	r3, [r4, #8]
2410a70a:	89a3      	ldrh	r3, [r4, #12]
2410a70c:	071a      	lsls	r2, r3, #28
2410a70e:	d501      	bpl.n	2410a714 <__swbuf_r+0x20>
2410a710:	6923      	ldr	r3, [r4, #16]
2410a712:	b943      	cbnz	r3, 2410a726 <__swbuf_r+0x32>
2410a714:	4621      	mov	r1, r4
2410a716:	4628      	mov	r0, r5
2410a718:	f000 f82a 	bl	2410a770 <__swsetup_r>
2410a71c:	b118      	cbz	r0, 2410a726 <__swbuf_r+0x32>
2410a71e:	f04f 37ff 	mov.w	r7, #4294967295	@ 0xffffffff
2410a722:	4638      	mov	r0, r7
2410a724:	bdf8      	pop	{r3, r4, r5, r6, r7, pc}
2410a726:	6823      	ldr	r3, [r4, #0]
2410a728:	b2f6      	uxtb	r6, r6
2410a72a:	6922      	ldr	r2, [r4, #16]
2410a72c:	4637      	mov	r7, r6
2410a72e:	1a98      	subs	r0, r3, r2
2410a730:	6963      	ldr	r3, [r4, #20]
2410a732:	4283      	cmp	r3, r0
2410a734:	dc05      	bgt.n	2410a742 <__swbuf_r+0x4e>
2410a736:	4621      	mov	r1, r4
2410a738:	4628      	mov	r0, r5
2410a73a:	f000 fa61 	bl	2410ac00 <_fflush_r>
2410a73e:	2800      	cmp	r0, #0
2410a740:	d1ed      	bne.n	2410a71e <__swbuf_r+0x2a>
2410a742:	68a3      	ldr	r3, [r4, #8]
2410a744:	3b01      	subs	r3, #1
2410a746:	60a3      	str	r3, [r4, #8]
2410a748:	6823      	ldr	r3, [r4, #0]
2410a74a:	1c5a      	adds	r2, r3, #1
2410a74c:	6022      	str	r2, [r4, #0]
2410a74e:	701e      	strb	r6, [r3, #0]
2410a750:	1c43      	adds	r3, r0, #1
2410a752:	6962      	ldr	r2, [r4, #20]
2410a754:	429a      	cmp	r2, r3
2410a756:	d004      	beq.n	2410a762 <__swbuf_r+0x6e>
2410a758:	89a3      	ldrh	r3, [r4, #12]
2410a75a:	07db      	lsls	r3, r3, #31
2410a75c:	d5e1      	bpl.n	2410a722 <__swbuf_r+0x2e>
2410a75e:	2e0a      	cmp	r6, #10
2410a760:	d1df      	bne.n	2410a722 <__swbuf_r+0x2e>
2410a762:	4621      	mov	r1, r4
2410a764:	4628      	mov	r0, r5
2410a766:	f000 fa4b 	bl	2410ac00 <_fflush_r>
2410a76a:	2800      	cmp	r0, #0
2410a76c:	d0d9      	beq.n	2410a722 <__swbuf_r+0x2e>
2410a76e:	e7d6      	b.n	2410a71e <__swbuf_r+0x2a>

2410a770 <__swsetup_r>:
2410a770:	b538      	push	{r3, r4, r5, lr}
2410a772:	4b28      	ldr	r3, [pc, #160]	@ (2410a814 <__swsetup_r+0xa4>)
2410a774:	4605      	mov	r5, r0
2410a776:	460c      	mov	r4, r1
2410a778:	6818      	ldr	r0, [r3, #0]
2410a77a:	b118      	cbz	r0, 2410a784 <__swsetup_r+0x14>
2410a77c:	6a03      	ldr	r3, [r0, #32]
2410a77e:	b90b      	cbnz	r3, 2410a784 <__swsetup_r+0x14>
2410a780:	f7ff fee0 	bl	2410a544 <__sinit>
2410a784:	f9b4 300c 	ldrsh.w	r3, [r4, #12]
2410a788:	071a      	lsls	r2, r3, #28
2410a78a:	d421      	bmi.n	2410a7d0 <__swsetup_r+0x60>
2410a78c:	06d8      	lsls	r0, r3, #27
2410a78e:	d407      	bmi.n	2410a7a0 <__swsetup_r+0x30>
2410a790:	2209      	movs	r2, #9
2410a792:	602a      	str	r2, [r5, #0]
2410a794:	f043 0340 	orr.w	r3, r3, #64	@ 0x40
2410a798:	f04f 30ff 	mov.w	r0, #4294967295	@ 0xffffffff
2410a79c:	81a3      	strh	r3, [r4, #12]
2410a79e:	e030      	b.n	2410a802 <__swsetup_r+0x92>
2410a7a0:	0759      	lsls	r1, r3, #29
2410a7a2:	d512      	bpl.n	2410a7ca <__swsetup_r+0x5a>
2410a7a4:	6b61      	ldr	r1, [r4, #52]	@ 0x34
2410a7a6:	b141      	cbz	r1, 2410a7ba <__swsetup_r+0x4a>
2410a7a8:	f104 0344 	add.w	r3, r4, #68	@ 0x44
2410a7ac:	4299      	cmp	r1, r3
2410a7ae:	d002      	beq.n	2410a7b6 <__swsetup_r+0x46>
2410a7b0:	4628      	mov	r0, r5
2410a7b2:	f000 f8ad 	bl	2410a910 <_free_r>
2410a7b6:	2300      	movs	r3, #0
2410a7b8:	6363      	str	r3, [r4, #52]	@ 0x34
2410a7ba:	2200      	movs	r2, #0
2410a7bc:	f9b4 300c 	ldrsh.w	r3, [r4, #12]
2410a7c0:	6062      	str	r2, [r4, #4]
2410a7c2:	f023 0324 	bic.w	r3, r3, #36	@ 0x24
2410a7c6:	6922      	ldr	r2, [r4, #16]
2410a7c8:	6022      	str	r2, [r4, #0]
2410a7ca:	f043 0308 	orr.w	r3, r3, #8
2410a7ce:	81a3      	strh	r3, [r4, #12]
2410a7d0:	6922      	ldr	r2, [r4, #16]
2410a7d2:	b93a      	cbnz	r2, 2410a7e4 <__swsetup_r+0x74>
2410a7d4:	059a      	lsls	r2, r3, #22
2410a7d6:	d501      	bpl.n	2410a7dc <__swsetup_r+0x6c>
2410a7d8:	0618      	lsls	r0, r3, #24
2410a7da:	d503      	bpl.n	2410a7e4 <__swsetup_r+0x74>
2410a7dc:	4621      	mov	r1, r4
2410a7de:	4628      	mov	r0, r5
2410a7e0:	f000 fa5a 	bl	2410ac98 <__smakebuf_r>
2410a7e4:	f9b4 300c 	ldrsh.w	r3, [r4, #12]
2410a7e8:	f013 0201 	ands.w	r2, r3, #1
2410a7ec:	d00a      	beq.n	2410a804 <__swsetup_r+0x94>
2410a7ee:	2200      	movs	r2, #0
2410a7f0:	60a2      	str	r2, [r4, #8]
2410a7f2:	6962      	ldr	r2, [r4, #20]
2410a7f4:	4252      	negs	r2, r2
2410a7f6:	61a2      	str	r2, [r4, #24]
2410a7f8:	6922      	ldr	r2, [r4, #16]
2410a7fa:	b942      	cbnz	r2, 2410a80e <__swsetup_r+0x9e>
2410a7fc:	f013 0080 	ands.w	r0, r3, #128	@ 0x80
2410a800:	d1c8      	bne.n	2410a794 <__swsetup_r+0x24>
2410a802:	bd38      	pop	{r3, r4, r5, pc}
2410a804:	0799      	lsls	r1, r3, #30
2410a806:	bf58      	it	pl
2410a808:	6962      	ldrpl	r2, [r4, #20]
2410a80a:	60a2      	str	r2, [r4, #8]
2410a80c:	e7f4      	b.n	2410a7f8 <__swsetup_r+0x88>
2410a80e:	2000      	movs	r0, #0
2410a810:	e7f7      	b.n	2410a802 <__swsetup_r+0x92>
2410a812:	bf00      	nop
2410a814:	24180018 	.word	0x24180018

2410a818 <memset>:
2410a818:	4402      	add	r2, r0
2410a81a:	4603      	mov	r3, r0
2410a81c:	4293      	cmp	r3, r2
2410a81e:	d100      	bne.n	2410a822 <memset+0xa>
2410a820:	4770      	bx	lr
2410a822:	f803 1b01 	strb.w	r1, [r3], #1
2410a826:	e7f9      	b.n	2410a81c <memset+0x4>

2410a828 <_close_r>:
2410a828:	b538      	push	{r3, r4, r5, lr}
2410a82a:	2300      	movs	r3, #0
2410a82c:	4d05      	ldr	r5, [pc, #20]	@ (2410a844 <_close_r+0x1c>)
2410a82e:	4604      	mov	r4, r0
2410a830:	4608      	mov	r0, r1
2410a832:	602b      	str	r3, [r5, #0]
2410a834:	f7f6 fb29 	bl	24100e8a <_close>
2410a838:	1c43      	adds	r3, r0, #1
2410a83a:	d102      	bne.n	2410a842 <_close_r+0x1a>
2410a83c:	682b      	ldr	r3, [r5, #0]
2410a83e:	b103      	cbz	r3, 2410a842 <_close_r+0x1a>
2410a840:	6023      	str	r3, [r4, #0]
2410a842:	bd38      	pop	{r3, r4, r5, pc}
2410a844:	2418025c 	.word	0x2418025c

2410a848 <_lseek_r>:
2410a848:	b538      	push	{r3, r4, r5, lr}
2410a84a:	4604      	mov	r4, r0
2410a84c:	4d06      	ldr	r5, [pc, #24]	@ (2410a868 <_lseek_r+0x20>)
2410a84e:	4608      	mov	r0, r1
2410a850:	4611      	mov	r1, r2
2410a852:	2200      	movs	r2, #0
2410a854:	602a      	str	r2, [r5, #0]
2410a856:	461a      	mov	r2, r3
2410a858:	f7f6 fb3e 	bl	24100ed8 <_lseek>
2410a85c:	1c43      	adds	r3, r0, #1
2410a85e:	d102      	bne.n	2410a866 <_lseek_r+0x1e>
2410a860:	682b      	ldr	r3, [r5, #0]
2410a862:	b103      	cbz	r3, 2410a866 <_lseek_r+0x1e>
2410a864:	6023      	str	r3, [r4, #0]
2410a866:	bd38      	pop	{r3, r4, r5, pc}
2410a868:	2418025c 	.word	0x2418025c

2410a86c <_read_r>:
2410a86c:	b538      	push	{r3, r4, r5, lr}
2410a86e:	4604      	mov	r4, r0
2410a870:	4d06      	ldr	r5, [pc, #24]	@ (2410a88c <_read_r+0x20>)
2410a872:	4608      	mov	r0, r1
2410a874:	4611      	mov	r1, r2
2410a876:	2200      	movs	r2, #0
2410a878:	602a      	str	r2, [r5, #0]
2410a87a:	461a      	mov	r2, r3
2410a87c:	f7f6 facc 	bl	24100e18 <_read>
2410a880:	1c43      	adds	r3, r0, #1
2410a882:	d102      	bne.n	2410a88a <_read_r+0x1e>
2410a884:	682b      	ldr	r3, [r5, #0]
2410a886:	b103      	cbz	r3, 2410a88a <_read_r+0x1e>
2410a888:	6023      	str	r3, [r4, #0]
2410a88a:	bd38      	pop	{r3, r4, r5, pc}
2410a88c:	2418025c 	.word	0x2418025c

2410a890 <_write_r>:
2410a890:	b538      	push	{r3, r4, r5, lr}
2410a892:	4604      	mov	r4, r0
2410a894:	4d06      	ldr	r5, [pc, #24]	@ (2410a8b0 <_write_r+0x20>)
2410a896:	4608      	mov	r0, r1
2410a898:	4611      	mov	r1, r2
2410a89a:	2200      	movs	r2, #0
2410a89c:	602a      	str	r2, [r5, #0]
2410a89e:	461a      	mov	r2, r3
2410a8a0:	f7f6 fad7 	bl	24100e52 <_write>
2410a8a4:	1c43      	adds	r3, r0, #1
2410a8a6:	d102      	bne.n	2410a8ae <_write_r+0x1e>
2410a8a8:	682b      	ldr	r3, [r5, #0]
2410a8aa:	b103      	cbz	r3, 2410a8ae <_write_r+0x1e>
2410a8ac:	6023      	str	r3, [r4, #0]
2410a8ae:	bd38      	pop	{r3, r4, r5, pc}
2410a8b0:	2418025c 	.word	0x2418025c

2410a8b4 <__errno>:
2410a8b4:	4b01      	ldr	r3, [pc, #4]	@ (2410a8bc <__errno+0x8>)
2410a8b6:	6818      	ldr	r0, [r3, #0]
2410a8b8:	4770      	bx	lr
2410a8ba:	bf00      	nop
2410a8bc:	24180018 	.word	0x24180018

2410a8c0 <__libc_init_array>:
2410a8c0:	b570      	push	{r4, r5, r6, lr}
2410a8c2:	4b0d      	ldr	r3, [pc, #52]	@ (2410a8f8 <__libc_init_array+0x38>)
2410a8c4:	2600      	movs	r6, #0
2410a8c6:	4d0d      	ldr	r5, [pc, #52]	@ (2410a8fc <__libc_init_array+0x3c>)
2410a8c8:	1b5b      	subs	r3, r3, r5
2410a8ca:	109c      	asrs	r4, r3, #2
2410a8cc:	42a6      	cmp	r6, r4
2410a8ce:	d109      	bne.n	2410a8e4 <__libc_init_array+0x24>
2410a8d0:	4d0b      	ldr	r5, [pc, #44]	@ (2410a900 <__libc_init_array+0x40>)
2410a8d2:	f000 fa4d 	bl	2410ad70 <_init>
2410a8d6:	4b0b      	ldr	r3, [pc, #44]	@ (2410a904 <__libc_init_array+0x44>)
2410a8d8:	2600      	movs	r6, #0
2410a8da:	1b5b      	subs	r3, r3, r5
2410a8dc:	109c      	asrs	r4, r3, #2
2410a8de:	42a6      	cmp	r6, r4
2410a8e0:	d105      	bne.n	2410a8ee <__libc_init_array+0x2e>
2410a8e2:	bd70      	pop	{r4, r5, r6, pc}
2410a8e4:	f855 3b04 	ldr.w	r3, [r5], #4
2410a8e8:	3601      	adds	r6, #1
2410a8ea:	4798      	blx	r3
2410a8ec:	e7ee      	b.n	2410a8cc <__libc_init_array+0xc>
2410a8ee:	f855 3b04 	ldr.w	r3, [r5], #4
2410a8f2:	3601      	adds	r6, #1
2410a8f4:	4798      	blx	r3
2410a8f6:	e7f2      	b.n	2410a8de <__libc_init_array+0x1e>
2410a8f8:	2410add0 	.word	0x2410add0
2410a8fc:	2410add0 	.word	0x2410add0
2410a900:	2410add0 	.word	0x2410add0
2410a904:	2410add4 	.word	0x2410add4

2410a908 <__retarget_lock_init_recursive>:
2410a908:	4770      	bx	lr

2410a90a <__retarget_lock_acquire_recursive>:
2410a90a:	4770      	bx	lr

2410a90c <__retarget_lock_release_recursive>:
2410a90c:	4770      	bx	lr
	...

2410a910 <_free_r>:
2410a910:	b538      	push	{r3, r4, r5, lr}
2410a912:	4605      	mov	r5, r0
2410a914:	2900      	cmp	r1, #0
2410a916:	d041      	beq.n	2410a99c <_free_r+0x8c>
2410a918:	f851 3c04 	ldr.w	r3, [r1, #-4]
2410a91c:	1f0c      	subs	r4, r1, #4
2410a91e:	2b00      	cmp	r3, #0
2410a920:	bfb8      	it	lt
2410a922:	18e4      	addlt	r4, r4, r3
2410a924:	f000 f8e0 	bl	2410aae8 <__malloc_lock>
2410a928:	4a1d      	ldr	r2, [pc, #116]	@ (2410a9a0 <_free_r+0x90>)
2410a92a:	6813      	ldr	r3, [r2, #0]
2410a92c:	b933      	cbnz	r3, 2410a93c <_free_r+0x2c>
2410a92e:	6063      	str	r3, [r4, #4]
2410a930:	6014      	str	r4, [r2, #0]
2410a932:	4628      	mov	r0, r5
2410a934:	e8bd 4038 	ldmia.w	sp!, {r3, r4, r5, lr}
2410a938:	f000 b8dc 	b.w	2410aaf4 <__malloc_unlock>
2410a93c:	42a3      	cmp	r3, r4
2410a93e:	d908      	bls.n	2410a952 <_free_r+0x42>
2410a940:	6820      	ldr	r0, [r4, #0]
2410a942:	1821      	adds	r1, r4, r0
2410a944:	428b      	cmp	r3, r1
2410a946:	bf01      	itttt	eq
2410a948:	6819      	ldreq	r1, [r3, #0]
2410a94a:	685b      	ldreq	r3, [r3, #4]
2410a94c:	1809      	addeq	r1, r1, r0
2410a94e:	6021      	streq	r1, [r4, #0]
2410a950:	e7ed      	b.n	2410a92e <_free_r+0x1e>
2410a952:	461a      	mov	r2, r3
2410a954:	685b      	ldr	r3, [r3, #4]
2410a956:	b10b      	cbz	r3, 2410a95c <_free_r+0x4c>
2410a958:	42a3      	cmp	r3, r4
2410a95a:	d9fa      	bls.n	2410a952 <_free_r+0x42>
2410a95c:	6811      	ldr	r1, [r2, #0]
2410a95e:	1850      	adds	r0, r2, r1
2410a960:	42a0      	cmp	r0, r4
2410a962:	d10b      	bne.n	2410a97c <_free_r+0x6c>
2410a964:	6820      	ldr	r0, [r4, #0]
2410a966:	4401      	add	r1, r0
2410a968:	1850      	adds	r0, r2, r1
2410a96a:	6011      	str	r1, [r2, #0]
2410a96c:	4283      	cmp	r3, r0
2410a96e:	d1e0      	bne.n	2410a932 <_free_r+0x22>
2410a970:	6818      	ldr	r0, [r3, #0]
2410a972:	685b      	ldr	r3, [r3, #4]
2410a974:	4408      	add	r0, r1
2410a976:	6053      	str	r3, [r2, #4]
2410a978:	6010      	str	r0, [r2, #0]
2410a97a:	e7da      	b.n	2410a932 <_free_r+0x22>
2410a97c:	d902      	bls.n	2410a984 <_free_r+0x74>
2410a97e:	230c      	movs	r3, #12
2410a980:	602b      	str	r3, [r5, #0]
2410a982:	e7d6      	b.n	2410a932 <_free_r+0x22>
2410a984:	6820      	ldr	r0, [r4, #0]
2410a986:	1821      	adds	r1, r4, r0
2410a988:	428b      	cmp	r3, r1
2410a98a:	bf02      	ittt	eq
2410a98c:	6819      	ldreq	r1, [r3, #0]
2410a98e:	685b      	ldreq	r3, [r3, #4]
2410a990:	1809      	addeq	r1, r1, r0
2410a992:	6063      	str	r3, [r4, #4]
2410a994:	bf08      	it	eq
2410a996:	6021      	streq	r1, [r4, #0]
2410a998:	6054      	str	r4, [r2, #4]
2410a99a:	e7ca      	b.n	2410a932 <_free_r+0x22>
2410a99c:	bd38      	pop	{r3, r4, r5, pc}
2410a99e:	bf00      	nop
2410a9a0:	24180268 	.word	0x24180268

2410a9a4 <sbrk_aligned>:
2410a9a4:	b570      	push	{r4, r5, r6, lr}
2410a9a6:	4e0f      	ldr	r6, [pc, #60]	@ (2410a9e4 <sbrk_aligned+0x40>)
2410a9a8:	460c      	mov	r4, r1
2410a9aa:	4605      	mov	r5, r0
2410a9ac:	6831      	ldr	r1, [r6, #0]
2410a9ae:	b911      	cbnz	r1, 2410a9b6 <sbrk_aligned+0x12>
2410a9b0:	f000 f9ce 	bl	2410ad50 <_sbrk_r>
2410a9b4:	6030      	str	r0, [r6, #0]
2410a9b6:	4621      	mov	r1, r4
2410a9b8:	4628      	mov	r0, r5
2410a9ba:	f000 f9c9 	bl	2410ad50 <_sbrk_r>
2410a9be:	1c43      	adds	r3, r0, #1
2410a9c0:	d103      	bne.n	2410a9ca <sbrk_aligned+0x26>
2410a9c2:	f04f 34ff 	mov.w	r4, #4294967295	@ 0xffffffff
2410a9c6:	4620      	mov	r0, r4
2410a9c8:	bd70      	pop	{r4, r5, r6, pc}
2410a9ca:	1cc4      	adds	r4, r0, #3
2410a9cc:	f024 0403 	bic.w	r4, r4, #3
2410a9d0:	42a0      	cmp	r0, r4
2410a9d2:	d0f8      	beq.n	2410a9c6 <sbrk_aligned+0x22>
2410a9d4:	1a21      	subs	r1, r4, r0
2410a9d6:	4628      	mov	r0, r5
2410a9d8:	f000 f9ba 	bl	2410ad50 <_sbrk_r>
2410a9dc:	3001      	adds	r0, #1
2410a9de:	d1f2      	bne.n	2410a9c6 <sbrk_aligned+0x22>
2410a9e0:	e7ef      	b.n	2410a9c2 <sbrk_aligned+0x1e>
2410a9e2:	bf00      	nop
2410a9e4:	24180264 	.word	0x24180264

2410a9e8 <_malloc_r>:
2410a9e8:	e92d 43f8 	stmdb	sp!, {r3, r4, r5, r6, r7, r8, r9, lr}
2410a9ec:	1ccd      	adds	r5, r1, #3
2410a9ee:	4606      	mov	r6, r0
2410a9f0:	f025 0503 	bic.w	r5, r5, #3
2410a9f4:	3508      	adds	r5, #8
2410a9f6:	2d0c      	cmp	r5, #12
2410a9f8:	bf38      	it	cc
2410a9fa:	250c      	movcc	r5, #12
2410a9fc:	2d00      	cmp	r5, #0
2410a9fe:	db01      	blt.n	2410aa04 <_malloc_r+0x1c>
2410aa00:	42a9      	cmp	r1, r5
2410aa02:	d904      	bls.n	2410aa0e <_malloc_r+0x26>
2410aa04:	230c      	movs	r3, #12
2410aa06:	6033      	str	r3, [r6, #0]
2410aa08:	2000      	movs	r0, #0
2410aa0a:	e8bd 83f8 	ldmia.w	sp!, {r3, r4, r5, r6, r7, r8, r9, pc}
2410aa0e:	f8df 80d4 	ldr.w	r8, [pc, #212]	@ 2410aae4 <_malloc_r+0xfc>
2410aa12:	f000 f869 	bl	2410aae8 <__malloc_lock>
2410aa16:	f8d8 3000 	ldr.w	r3, [r8]
2410aa1a:	461c      	mov	r4, r3
2410aa1c:	bb44      	cbnz	r4, 2410aa70 <_malloc_r+0x88>
2410aa1e:	4629      	mov	r1, r5
2410aa20:	4630      	mov	r0, r6
2410aa22:	f7ff ffbf 	bl	2410a9a4 <sbrk_aligned>
2410aa26:	1c43      	adds	r3, r0, #1
2410aa28:	4604      	mov	r4, r0
2410aa2a:	d158      	bne.n	2410aade <_malloc_r+0xf6>
2410aa2c:	f8d8 4000 	ldr.w	r4, [r8]
2410aa30:	4627      	mov	r7, r4
2410aa32:	2f00      	cmp	r7, #0
2410aa34:	d143      	bne.n	2410aabe <_malloc_r+0xd6>
2410aa36:	2c00      	cmp	r4, #0
2410aa38:	d04b      	beq.n	2410aad2 <_malloc_r+0xea>
2410aa3a:	6823      	ldr	r3, [r4, #0]
2410aa3c:	4639      	mov	r1, r7
2410aa3e:	4630      	mov	r0, r6
2410aa40:	eb04 0903 	add.w	r9, r4, r3
2410aa44:	f000 f984 	bl	2410ad50 <_sbrk_r>
2410aa48:	4581      	cmp	r9, r0
2410aa4a:	d142      	bne.n	2410aad2 <_malloc_r+0xea>
2410aa4c:	6821      	ldr	r1, [r4, #0]
2410aa4e:	4630      	mov	r0, r6
2410aa50:	1a6d      	subs	r5, r5, r1
2410aa52:	4629      	mov	r1, r5
2410aa54:	f7ff ffa6 	bl	2410a9a4 <sbrk_aligned>
2410aa58:	3001      	adds	r0, #1
2410aa5a:	d03a      	beq.n	2410aad2 <_malloc_r+0xea>
2410aa5c:	6823      	ldr	r3, [r4, #0]
2410aa5e:	442b      	add	r3, r5
2410aa60:	6023      	str	r3, [r4, #0]
2410aa62:	f8d8 3000 	ldr.w	r3, [r8]
2410aa66:	685a      	ldr	r2, [r3, #4]
2410aa68:	bb62      	cbnz	r2, 2410aac4 <_malloc_r+0xdc>
2410aa6a:	f8c8 7000 	str.w	r7, [r8]
2410aa6e:	e00f      	b.n	2410aa90 <_malloc_r+0xa8>
2410aa70:	6822      	ldr	r2, [r4, #0]
2410aa72:	1b52      	subs	r2, r2, r5
2410aa74:	d420      	bmi.n	2410aab8 <_malloc_r+0xd0>
2410aa76:	2a0b      	cmp	r2, #11
2410aa78:	d917      	bls.n	2410aaaa <_malloc_r+0xc2>
2410aa7a:	1961      	adds	r1, r4, r5
2410aa7c:	42a3      	cmp	r3, r4
2410aa7e:	6025      	str	r5, [r4, #0]
2410aa80:	bf18      	it	ne
2410aa82:	6059      	strne	r1, [r3, #4]
2410aa84:	6863      	ldr	r3, [r4, #4]
2410aa86:	bf08      	it	eq
2410aa88:	f8c8 1000 	streq.w	r1, [r8]
2410aa8c:	5162      	str	r2, [r4, r5]
2410aa8e:	604b      	str	r3, [r1, #4]
2410aa90:	4630      	mov	r0, r6
2410aa92:	f000 f82f 	bl	2410aaf4 <__malloc_unlock>
2410aa96:	f104 000b 	add.w	r0, r4, #11
2410aa9a:	1d23      	adds	r3, r4, #4
2410aa9c:	f020 0007 	bic.w	r0, r0, #7
2410aaa0:	1ac2      	subs	r2, r0, r3
2410aaa2:	bf1c      	itt	ne
2410aaa4:	1a1b      	subne	r3, r3, r0
2410aaa6:	50a3      	strne	r3, [r4, r2]
2410aaa8:	e7af      	b.n	2410aa0a <_malloc_r+0x22>
2410aaaa:	6862      	ldr	r2, [r4, #4]
2410aaac:	42a3      	cmp	r3, r4
2410aaae:	bf0c      	ite	eq
2410aab0:	f8c8 2000 	streq.w	r2, [r8]
2410aab4:	605a      	strne	r2, [r3, #4]
2410aab6:	e7eb      	b.n	2410aa90 <_malloc_r+0xa8>
2410aab8:	4623      	mov	r3, r4
2410aaba:	6864      	ldr	r4, [r4, #4]
2410aabc:	e7ae      	b.n	2410aa1c <_malloc_r+0x34>
2410aabe:	463c      	mov	r4, r7
2410aac0:	687f      	ldr	r7, [r7, #4]
2410aac2:	e7b6      	b.n	2410aa32 <_malloc_r+0x4a>
2410aac4:	461a      	mov	r2, r3
2410aac6:	685b      	ldr	r3, [r3, #4]
2410aac8:	42a3      	cmp	r3, r4
2410aaca:	d1fb      	bne.n	2410aac4 <_malloc_r+0xdc>
2410aacc:	2300      	movs	r3, #0
2410aace:	6053      	str	r3, [r2, #4]
2410aad0:	e7de      	b.n	2410aa90 <_malloc_r+0xa8>
2410aad2:	230c      	movs	r3, #12
2410aad4:	4630      	mov	r0, r6
2410aad6:	6033      	str	r3, [r6, #0]
2410aad8:	f000 f80c 	bl	2410aaf4 <__malloc_unlock>
2410aadc:	e794      	b.n	2410aa08 <_malloc_r+0x20>
2410aade:	6005      	str	r5, [r0, #0]
2410aae0:	e7d6      	b.n	2410aa90 <_malloc_r+0xa8>
2410aae2:	bf00      	nop
2410aae4:	24180268 	.word	0x24180268

2410aae8 <__malloc_lock>:
2410aae8:	4801      	ldr	r0, [pc, #4]	@ (2410aaf0 <__malloc_lock+0x8>)
2410aaea:	f7ff bf0e 	b.w	2410a90a <__retarget_lock_acquire_recursive>
2410aaee:	bf00      	nop
2410aaf0:	24180260 	.word	0x24180260

2410aaf4 <__malloc_unlock>:
2410aaf4:	4801      	ldr	r0, [pc, #4]	@ (2410aafc <__malloc_unlock+0x8>)
2410aaf6:	f7ff bf09 	b.w	2410a90c <__retarget_lock_release_recursive>
2410aafa:	bf00      	nop
2410aafc:	24180260 	.word	0x24180260

2410ab00 <__sflush_r>:
2410ab00:	f9b1 200c 	ldrsh.w	r2, [r1, #12]
2410ab04:	e92d 41f0 	stmdb	sp!, {r4, r5, r6, r7, r8, lr}
2410ab08:	0716      	lsls	r6, r2, #28
2410ab0a:	4605      	mov	r5, r0
2410ab0c:	460c      	mov	r4, r1
2410ab0e:	d451      	bmi.n	2410abb4 <__sflush_r+0xb4>
2410ab10:	684b      	ldr	r3, [r1, #4]
2410ab12:	2b00      	cmp	r3, #0
2410ab14:	dc02      	bgt.n	2410ab1c <__sflush_r+0x1c>
2410ab16:	6c0b      	ldr	r3, [r1, #64]	@ 0x40
2410ab18:	2b00      	cmp	r3, #0
2410ab1a:	dd49      	ble.n	2410abb0 <__sflush_r+0xb0>
2410ab1c:	6ae6      	ldr	r6, [r4, #44]	@ 0x2c
2410ab1e:	2e00      	cmp	r6, #0
2410ab20:	d046      	beq.n	2410abb0 <__sflush_r+0xb0>
2410ab22:	2300      	movs	r3, #0
2410ab24:	f412 5280 	ands.w	r2, r2, #4096	@ 0x1000
2410ab28:	682f      	ldr	r7, [r5, #0]
2410ab2a:	602b      	str	r3, [r5, #0]
2410ab2c:	d031      	beq.n	2410ab92 <__sflush_r+0x92>
2410ab2e:	6d62      	ldr	r2, [r4, #84]	@ 0x54
2410ab30:	89a3      	ldrh	r3, [r4, #12]
2410ab32:	0759      	lsls	r1, r3, #29
2410ab34:	d505      	bpl.n	2410ab42 <__sflush_r+0x42>
2410ab36:	6863      	ldr	r3, [r4, #4]
2410ab38:	1ad2      	subs	r2, r2, r3
2410ab3a:	6b63      	ldr	r3, [r4, #52]	@ 0x34
2410ab3c:	b10b      	cbz	r3, 2410ab42 <__sflush_r+0x42>
2410ab3e:	6c23      	ldr	r3, [r4, #64]	@ 0x40
2410ab40:	1ad2      	subs	r2, r2, r3
2410ab42:	2300      	movs	r3, #0
2410ab44:	6ae6      	ldr	r6, [r4, #44]	@ 0x2c
2410ab46:	6a21      	ldr	r1, [r4, #32]
2410ab48:	4628      	mov	r0, r5
2410ab4a:	47b0      	blx	r6
2410ab4c:	1c42      	adds	r2, r0, #1
2410ab4e:	f9b4 300c 	ldrsh.w	r3, [r4, #12]
2410ab52:	d106      	bne.n	2410ab62 <__sflush_r+0x62>
2410ab54:	6829      	ldr	r1, [r5, #0]
2410ab56:	291d      	cmp	r1, #29
2410ab58:	d845      	bhi.n	2410abe6 <__sflush_r+0xe6>
2410ab5a:	4a28      	ldr	r2, [pc, #160]	@ (2410abfc <__sflush_r+0xfc>)
2410ab5c:	40ca      	lsrs	r2, r1
2410ab5e:	07d6      	lsls	r6, r2, #31
2410ab60:	d541      	bpl.n	2410abe6 <__sflush_r+0xe6>
2410ab62:	2200      	movs	r2, #0
2410ab64:	04d9      	lsls	r1, r3, #19
2410ab66:	6062      	str	r2, [r4, #4]
2410ab68:	6922      	ldr	r2, [r4, #16]
2410ab6a:	6022      	str	r2, [r4, #0]
2410ab6c:	d504      	bpl.n	2410ab78 <__sflush_r+0x78>
2410ab6e:	1c42      	adds	r2, r0, #1
2410ab70:	d101      	bne.n	2410ab76 <__sflush_r+0x76>
2410ab72:	682b      	ldr	r3, [r5, #0]
2410ab74:	b903      	cbnz	r3, 2410ab78 <__sflush_r+0x78>
2410ab76:	6560      	str	r0, [r4, #84]	@ 0x54
2410ab78:	6b61      	ldr	r1, [r4, #52]	@ 0x34
2410ab7a:	602f      	str	r7, [r5, #0]
2410ab7c:	b1c1      	cbz	r1, 2410abb0 <__sflush_r+0xb0>
2410ab7e:	f104 0344 	add.w	r3, r4, #68	@ 0x44
2410ab82:	4299      	cmp	r1, r3
2410ab84:	d002      	beq.n	2410ab8c <__sflush_r+0x8c>
2410ab86:	4628      	mov	r0, r5
2410ab88:	f7ff fec2 	bl	2410a910 <_free_r>
2410ab8c:	2300      	movs	r3, #0
2410ab8e:	6363      	str	r3, [r4, #52]	@ 0x34
2410ab90:	e00e      	b.n	2410abb0 <__sflush_r+0xb0>
2410ab92:	2301      	movs	r3, #1
2410ab94:	6a21      	ldr	r1, [r4, #32]
2410ab96:	4628      	mov	r0, r5
2410ab98:	47b0      	blx	r6
2410ab9a:	4602      	mov	r2, r0
2410ab9c:	1c50      	adds	r0, r2, #1
2410ab9e:	d1c7      	bne.n	2410ab30 <__sflush_r+0x30>
2410aba0:	682b      	ldr	r3, [r5, #0]
2410aba2:	2b00      	cmp	r3, #0
2410aba4:	d0c4      	beq.n	2410ab30 <__sflush_r+0x30>
2410aba6:	2b1d      	cmp	r3, #29
2410aba8:	d001      	beq.n	2410abae <__sflush_r+0xae>
2410abaa:	2b16      	cmp	r3, #22
2410abac:	d119      	bne.n	2410abe2 <__sflush_r+0xe2>
2410abae:	602f      	str	r7, [r5, #0]
2410abb0:	2000      	movs	r0, #0
2410abb2:	e01d      	b.n	2410abf0 <__sflush_r+0xf0>
2410abb4:	690f      	ldr	r7, [r1, #16]
2410abb6:	2f00      	cmp	r7, #0
2410abb8:	d0fa      	beq.n	2410abb0 <__sflush_r+0xb0>
2410abba:	0793      	lsls	r3, r2, #30
2410abbc:	680e      	ldr	r6, [r1, #0]
2410abbe:	600f      	str	r7, [r1, #0]
2410abc0:	bf0c      	ite	eq
2410abc2:	694b      	ldreq	r3, [r1, #20]
2410abc4:	2300      	movne	r3, #0
2410abc6:	eba6 0807 	sub.w	r8, r6, r7
2410abca:	608b      	str	r3, [r1, #8]
2410abcc:	f1b8 0f00 	cmp.w	r8, #0
2410abd0:	ddee      	ble.n	2410abb0 <__sflush_r+0xb0>
2410abd2:	4643      	mov	r3, r8
2410abd4:	463a      	mov	r2, r7
2410abd6:	6a21      	ldr	r1, [r4, #32]
2410abd8:	4628      	mov	r0, r5
2410abda:	6aa6      	ldr	r6, [r4, #40]	@ 0x28
2410abdc:	47b0      	blx	r6
2410abde:	2800      	cmp	r0, #0
2410abe0:	dc08      	bgt.n	2410abf4 <__sflush_r+0xf4>
2410abe2:	f9b4 300c 	ldrsh.w	r3, [r4, #12]
2410abe6:	f043 0340 	orr.w	r3, r3, #64	@ 0x40
2410abea:	f04f 30ff 	mov.w	r0, #4294967295	@ 0xffffffff
2410abee:	81a3      	strh	r3, [r4, #12]
2410abf0:	e8bd 81f0 	ldmia.w	sp!, {r4, r5, r6, r7, r8, pc}
2410abf4:	4407      	add	r7, r0
2410abf6:	eba8 0800 	sub.w	r8, r8, r0
2410abfa:	e7e7      	b.n	2410abcc <__sflush_r+0xcc>
2410abfc:	20400001 	.word	0x20400001

2410ac00 <_fflush_r>:
2410ac00:	b538      	push	{r3, r4, r5, lr}
2410ac02:	690b      	ldr	r3, [r1, #16]
2410ac04:	4605      	mov	r5, r0
2410ac06:	460c      	mov	r4, r1
2410ac08:	b913      	cbnz	r3, 2410ac10 <_fflush_r+0x10>
2410ac0a:	2500      	movs	r5, #0
2410ac0c:	4628      	mov	r0, r5
2410ac0e:	bd38      	pop	{r3, r4, r5, pc}
2410ac10:	b118      	cbz	r0, 2410ac1a <_fflush_r+0x1a>
2410ac12:	6a03      	ldr	r3, [r0, #32]
2410ac14:	b90b      	cbnz	r3, 2410ac1a <_fflush_r+0x1a>
2410ac16:	f7ff fc95 	bl	2410a544 <__sinit>
2410ac1a:	f9b4 300c 	ldrsh.w	r3, [r4, #12]
2410ac1e:	2b00      	cmp	r3, #0
2410ac20:	d0f3      	beq.n	2410ac0a <_fflush_r+0xa>
2410ac22:	6e62      	ldr	r2, [r4, #100]	@ 0x64
2410ac24:	07d0      	lsls	r0, r2, #31
2410ac26:	d404      	bmi.n	2410ac32 <_fflush_r+0x32>
2410ac28:	0599      	lsls	r1, r3, #22
2410ac2a:	d402      	bmi.n	2410ac32 <_fflush_r+0x32>
2410ac2c:	6da0      	ldr	r0, [r4, #88]	@ 0x58
2410ac2e:	f7ff fe6c 	bl	2410a90a <__retarget_lock_acquire_recursive>
2410ac32:	4628      	mov	r0, r5
2410ac34:	4621      	mov	r1, r4
2410ac36:	f7ff ff63 	bl	2410ab00 <__sflush_r>
2410ac3a:	6e63      	ldr	r3, [r4, #100]	@ 0x64
2410ac3c:	4605      	mov	r5, r0
2410ac3e:	07da      	lsls	r2, r3, #31
2410ac40:	d4e4      	bmi.n	2410ac0c <_fflush_r+0xc>
2410ac42:	89a3      	ldrh	r3, [r4, #12]
2410ac44:	059b      	lsls	r3, r3, #22
2410ac46:	d4e1      	bmi.n	2410ac0c <_fflush_r+0xc>
2410ac48:	6da0      	ldr	r0, [r4, #88]	@ 0x58
2410ac4a:	f7ff fe5f 	bl	2410a90c <__retarget_lock_release_recursive>
2410ac4e:	e7dd      	b.n	2410ac0c <_fflush_r+0xc>

2410ac50 <__swhatbuf_r>:
2410ac50:	b570      	push	{r4, r5, r6, lr}
2410ac52:	460c      	mov	r4, r1
2410ac54:	f9b1 100e 	ldrsh.w	r1, [r1, #14]
2410ac58:	b096      	sub	sp, #88	@ 0x58
2410ac5a:	4615      	mov	r5, r2
2410ac5c:	2900      	cmp	r1, #0
2410ac5e:	461e      	mov	r6, r3
2410ac60:	da0a      	bge.n	2410ac78 <__swhatbuf_r+0x28>
2410ac62:	89a1      	ldrh	r1, [r4, #12]
2410ac64:	f011 0180 	ands.w	r1, r1, #128	@ 0x80
2410ac68:	d113      	bne.n	2410ac92 <__swhatbuf_r+0x42>
2410ac6a:	f44f 6280 	mov.w	r2, #1024	@ 0x400
2410ac6e:	2000      	movs	r0, #0
2410ac70:	6031      	str	r1, [r6, #0]
2410ac72:	602a      	str	r2, [r5, #0]
2410ac74:	b016      	add	sp, #88	@ 0x58
2410ac76:	bd70      	pop	{r4, r5, r6, pc}
2410ac78:	466a      	mov	r2, sp
2410ac7a:	f000 f847 	bl	2410ad0c <_fstat_r>
2410ac7e:	2800      	cmp	r0, #0
2410ac80:	dbef      	blt.n	2410ac62 <__swhatbuf_r+0x12>
2410ac82:	9901      	ldr	r1, [sp, #4]
2410ac84:	f401 4170 	and.w	r1, r1, #61440	@ 0xf000
2410ac88:	f5a1 5300 	sub.w	r3, r1, #8192	@ 0x2000
2410ac8c:	4259      	negs	r1, r3
2410ac8e:	4159      	adcs	r1, r3
2410ac90:	e7eb      	b.n	2410ac6a <__swhatbuf_r+0x1a>
2410ac92:	2100      	movs	r1, #0
2410ac94:	2240      	movs	r2, #64	@ 0x40
2410ac96:	e7ea      	b.n	2410ac6e <__swhatbuf_r+0x1e>

2410ac98 <__smakebuf_r>:
2410ac98:	898b      	ldrh	r3, [r1, #12]
2410ac9a:	b573      	push	{r0, r1, r4, r5, r6, lr}
2410ac9c:	079e      	lsls	r6, r3, #30
2410ac9e:	4605      	mov	r5, r0
2410aca0:	460c      	mov	r4, r1
2410aca2:	d507      	bpl.n	2410acb4 <__smakebuf_r+0x1c>
2410aca4:	f104 0347 	add.w	r3, r4, #71	@ 0x47
2410aca8:	6023      	str	r3, [r4, #0]
2410acaa:	6123      	str	r3, [r4, #16]
2410acac:	2301      	movs	r3, #1
2410acae:	6163      	str	r3, [r4, #20]
2410acb0:	b002      	add	sp, #8
2410acb2:	bd70      	pop	{r4, r5, r6, pc}
2410acb4:	ab01      	add	r3, sp, #4
2410acb6:	466a      	mov	r2, sp
2410acb8:	f7ff ffca 	bl	2410ac50 <__swhatbuf_r>
2410acbc:	9e00      	ldr	r6, [sp, #0]
2410acbe:	4628      	mov	r0, r5
2410acc0:	4631      	mov	r1, r6
2410acc2:	f7ff fe91 	bl	2410a9e8 <_malloc_r>
2410acc6:	f9b4 300c 	ldrsh.w	r3, [r4, #12]
2410acca:	b938      	cbnz	r0, 2410acdc <__smakebuf_r+0x44>
2410accc:	059a      	lsls	r2, r3, #22
2410acce:	d4ef      	bmi.n	2410acb0 <__smakebuf_r+0x18>
2410acd0:	f023 0303 	bic.w	r3, r3, #3
2410acd4:	f043 0302 	orr.w	r3, r3, #2
2410acd8:	81a3      	strh	r3, [r4, #12]
2410acda:	e7e3      	b.n	2410aca4 <__smakebuf_r+0xc>
2410acdc:	f043 0380 	orr.w	r3, r3, #128	@ 0x80
2410ace0:	6020      	str	r0, [r4, #0]
2410ace2:	81a3      	strh	r3, [r4, #12]
2410ace4:	9b01      	ldr	r3, [sp, #4]
2410ace6:	e9c4 0604 	strd	r0, r6, [r4, #16]
2410acea:	2b00      	cmp	r3, #0
2410acec:	d0e0      	beq.n	2410acb0 <__smakebuf_r+0x18>
2410acee:	f9b4 100e 	ldrsh.w	r1, [r4, #14]
2410acf2:	4628      	mov	r0, r5
2410acf4:	f000 f81c 	bl	2410ad30 <_isatty_r>
2410acf8:	2800      	cmp	r0, #0
2410acfa:	d0d9      	beq.n	2410acb0 <__smakebuf_r+0x18>
2410acfc:	89a3      	ldrh	r3, [r4, #12]
2410acfe:	f023 0303 	bic.w	r3, r3, #3
2410ad02:	f043 0301 	orr.w	r3, r3, #1
2410ad06:	81a3      	strh	r3, [r4, #12]
2410ad08:	e7d2      	b.n	2410acb0 <__smakebuf_r+0x18>
	...

2410ad0c <_fstat_r>:
2410ad0c:	b538      	push	{r3, r4, r5, lr}
2410ad0e:	2300      	movs	r3, #0
2410ad10:	4d06      	ldr	r5, [pc, #24]	@ (2410ad2c <_fstat_r+0x20>)
2410ad12:	4604      	mov	r4, r0
2410ad14:	4608      	mov	r0, r1
2410ad16:	4611      	mov	r1, r2
2410ad18:	602b      	str	r3, [r5, #0]
2410ad1a:	f7f6 f8c2 	bl	24100ea2 <_fstat>
2410ad1e:	1c43      	adds	r3, r0, #1
2410ad20:	d102      	bne.n	2410ad28 <_fstat_r+0x1c>
2410ad22:	682b      	ldr	r3, [r5, #0]
2410ad24:	b103      	cbz	r3, 2410ad28 <_fstat_r+0x1c>
2410ad26:	6023      	str	r3, [r4, #0]
2410ad28:	bd38      	pop	{r3, r4, r5, pc}
2410ad2a:	bf00      	nop
2410ad2c:	2418025c 	.word	0x2418025c

2410ad30 <_isatty_r>:
2410ad30:	b538      	push	{r3, r4, r5, lr}
2410ad32:	2300      	movs	r3, #0
2410ad34:	4d05      	ldr	r5, [pc, #20]	@ (2410ad4c <_isatty_r+0x1c>)
2410ad36:	4604      	mov	r4, r0
2410ad38:	4608      	mov	r0, r1
2410ad3a:	602b      	str	r3, [r5, #0]
2410ad3c:	f7f6 f8c1 	bl	24100ec2 <_isatty>
2410ad40:	1c43      	adds	r3, r0, #1
2410ad42:	d102      	bne.n	2410ad4a <_isatty_r+0x1a>
2410ad44:	682b      	ldr	r3, [r5, #0]
2410ad46:	b103      	cbz	r3, 2410ad4a <_isatty_r+0x1a>
2410ad48:	6023      	str	r3, [r4, #0]
2410ad4a:	bd38      	pop	{r3, r4, r5, pc}
2410ad4c:	2418025c 	.word	0x2418025c

2410ad50 <_sbrk_r>:
2410ad50:	b538      	push	{r3, r4, r5, lr}
2410ad52:	2300      	movs	r3, #0
2410ad54:	4d05      	ldr	r5, [pc, #20]	@ (2410ad6c <_sbrk_r+0x1c>)
2410ad56:	4604      	mov	r4, r0
2410ad58:	4608      	mov	r0, r1
2410ad5a:	602b      	str	r3, [r5, #0]
2410ad5c:	f7f6 f8ca 	bl	24100ef4 <_sbrk>
2410ad60:	1c43      	adds	r3, r0, #1
2410ad62:	d102      	bne.n	2410ad6a <_sbrk_r+0x1a>
2410ad64:	682b      	ldr	r3, [r5, #0]
2410ad66:	b103      	cbz	r3, 2410ad6a <_sbrk_r+0x1a>
2410ad68:	6023      	str	r3, [r4, #0]
2410ad6a:	bd38      	pop	{r3, r4, r5, pc}
2410ad6c:	2418025c 	.word	0x2418025c

2410ad70 <_init>:
2410ad70:	b5f8      	push	{r3, r4, r5, r6, r7, lr}
2410ad72:	bf00      	nop
2410ad74:	bcf8      	pop	{r3, r4, r5, r6, r7}
2410ad76:	bc08      	pop	{r3}
2410ad78:	469e      	mov	lr, r3
2410ad7a:	4770      	bx	lr

2410ad7c <_fini>:
2410ad7c:	b5f8      	push	{r3, r4, r5, r6, r7, lr}
2410ad7e:	bf00      	nop
2410ad80:	bcf8      	pop	{r3, r4, r5, r6, r7}
2410ad82:	bc08      	pop	{r3}
2410ad84:	469e      	mov	lr, r3
2410ad86:	4770      	bx	lr

2410ad88 <__SECURE_SystemCoreClockUpdate_veneer>:
2410ad88:	f85f f000 	ldr.w	pc, [pc]	@ 2410ad8c <__SECURE_SystemCoreClockUpdate_veneer+0x4>
2410ad8c:	34001481 	.word	0x34001481
